 PhysXCommon_64

 Timestamp is 64493dd1 (Wed Apr 26 17:05:53 2023)

 Preferred load address is 0000000180000000

 Start         Length     Name                   Class
 0001:00000000 000032f0H .text$di                CODE
 0001:000032f0 001cea30H .text$mn                CODE
 0001:001d1d20 00000040H .text$mn$00             CODE
 0001:001d1d60 000004d0H .text$x                 CODE
 0001:001d2230 0000000fH .text$yd                CODE
 0002:00000000 00000268H .idata$5                DATA
 0002:00000268 00000038H .00cfg                  DATA
 0002:000002a0 00000008H .CRT$XCA                DATA
 0002:000002a8 000018b0H .CRT$XCU                DATA
 0002:00001b58 00000008H .CRT$XCZ                DATA
 0002:00001b60 00000008H .CRT$XIA                DATA
 0002:00001b68 00000018H .CRT$XIC                DATA
 0002:00001b80 00000008H .CRT$XIZ                DATA
 0002:00001b88 00000008H .CRT$XPA                DATA
 0002:00001b90 00000010H .CRT$XPX                DATA
 0002:00001ba0 00000008H .CRT$XPXA               DATA
 0002:00001ba8 00000008H .CRT$XPZ                DATA
 0002:00001bb0 00000008H .CRT$XTA                DATA
 0002:00001bb8 00000008H .CRT$XTZ                DATA
 0002:00001bc0 00000000H .gehcont$y              DATA
 0002:00001bc0 00000000H .gfids$y                DATA
 0002:00001bc0 000128c0H .rdata                  DATA
 0002:00014480 00000000H .rdata$CastGuardVftablesA DATA
 0002:00014480 00000000H .rdata$CastGuardVftablesC DATA
 0002:00014480 0000043cH .rdata$r                DATA
 0002:000148bc 00000220H .rdata$voltmd           DATA
 0002:00014adc 00000424H .rdata$zzzdbg           DATA
 0002:00014f00 00000008H .rtc$IAA                DATA
 0002:00014f08 00000008H .rtc$IZZ                DATA
 0002:00014f10 00000008H .rtc$TAA                DATA
 0002:00014f18 00000008H .rtc$TZZ                DATA
 0002:00014f20 00014918H .xdata                  DATA
 0002:00029838 00000084H .xdata$x                DATA
 0002:000298bc 00000020H .didat$2                DATA
 0002:000298dc 00000024H .didat$3                DATA
 0002:00029900 000000c8H .didat$4                DATA
 0002:000299c8 00000410H .didat$6                DATA
 0002:00029dd8 000000c8H .didat$7                DATA
 0002:00029ea0 0000c478H .edata                  DATA
 0002:00036318 00000014H .idata$2                DATA
 0002:0003632c 00000014H .idata$3                DATA
 0002:00036340 00000268H .idata$4                DATA
 0002:000365a8 00000598H .idata$6                DATA
 0003:00000000 00001c40H .data                   DATA
 0003:00001c40 000010e0H .data$r                 DATA
 0003:00002d20 000000f0H .data$rs                DATA
 0003:00002e10 000000d0H .didat$5                DATA
 0003:00002ee0 000043fcH .bss                    DATA
 0004:00000000 0000c15cH .pdata                  DATA
 0005:00000000 0000236cH _RDATA                  DATA
 0006:00000000 000000a0H .rsrc$01                DATA
 0006:000000a0 000004b0H .rsrc$02                DATA

  Address         Publics by Value              Rva+Base               Lib:Object

 0000:00000000       __AbsoluteZero             0000000000000000     <absolute>
 0000:00000000       ___safe_se_handler_count   0000000000000000     <absolute>
 0000:00000000       ___safe_se_handler_table   0000000000000000     <absolute>
 0000:00000000       __arm64x_extra_rfe_table   0000000000000000     <absolute>
 0000:00000000       __arm64x_extra_rfe_table_size 0000000000000000     <absolute>
 0000:00000000       __arm64x_native_entrypoint 0000000000000000     <absolute>
 0000:00000000       __arm64x_redirection_metadata 0000000000000000     <absolute>
 0000:00000000       __arm64x_redirection_metadata_count 0000000000000000     <absolute>
 0000:00000000       __dynamic_value_reloc_table 0000000000000000     <absolute>
 0000:00000000       __enclave_config           0000000000000000     <absolute>
 0000:00000000       __guard_check_icall_a64n_fptr 0000000000000000     <absolute>
 0000:00000000       __guard_eh_cont_count      0000000000000000     <absolute>
 0000:00000000       __guard_eh_cont_table      0000000000000000     <absolute>
 0000:00000000       __guard_fids_count         0000000000000000     <absolute>
 0000:00000000       __guard_fids_table         0000000000000000     <absolute>
 0000:00000000       __guard_iat_count          0000000000000000     <absolute>
 0000:00000000       __guard_iat_table          0000000000000000     <absolute>
 0000:00000000       __guard_longjmp_count      0000000000000000     <absolute>
 0000:00000000       __guard_longjmp_table      0000000000000000     <absolute>
 0000:00000000       __hybrid_auxiliary_iat     0000000000000000     <absolute>
 0000:00000000       __hybrid_auxiliary_iat_copy 0000000000000000     <absolute>
 0000:00000000       __hybrid_code_map          0000000000000000     <absolute>
 0000:00000000       __hybrid_code_map_count    0000000000000000     <absolute>
 0000:00000000       __x64_code_ranges_to_entry_points 0000000000000000     <absolute>
 0000:00000000       __x64_code_ranges_to_entry_points_count 0000000000000000     <absolute>
 0000:00000100       __guard_flags              0000000000000100     <absolute>
 0000:00000000       __ImageBase                0000000180000000     <linker-defined>
 0001:000032f0       ??0PtrTable@Cm@physx@@QEAA@W4PxEMPTY@2@@Z 00000001800042f0 f i CmPtrTable.obj
 0001:00003310       ??0PtrTable@Cm@physx@@QEAA@XZ 0000000180004310 f   CmPtrTable.obj
 0001:00003320       ??1AABBTreeBuildNode@Gu@physx@@QEAA@XZ 0000000180004320 f   GuMeshFactory.obj
 0001:00003320       ??1BigConvexDataBuilder@physx@@QEAA@XZ 0000000180004320 f   GuCookingBigConvexDataBuilder.obj
 0001:00003320       ??1Box@Gu@physx@@QEAA@XZ   0000000180004320 f   GuBox.obj
 0001:00003320       ??1HeightFieldData@Gu@physx@@QEAA@XZ 0000000180004320 f   GuCCTSweepTests.obj
 0001:00003320       ??1PtrTable@Cm@physx@@QEAA@XZ 0000000180004320 f   CmPtrTable.obj
 0001:00003320       ?build@CompanionPrunerIncremental@@UEAAXXZ 0000000180004320 f   GuSecondaryPruner.obj
 0001:00003320       ?checkTreeLeaf@IncrementalAABBTree@Gu@physx@@QEAAXPEAVIncrementalAABBTreeNode@23@I@Z 0000000180004320 f   GuIncrementalAABBTree.obj
 0001:00003320       ?execute@?$PxThreadT@V?$PxReflectionAllocator@VPxThreadImpl@physx@@@physx@@@physx@@UEAAXXZ 0000000180004320 f   GuSDF.obj
 0001:00003320       ?execute@PxRunnable@physx@@UEAAXXZ 0000000180004320 f   GuSDF.obj
 0001:00003320       ?merge@BucketPruner@Gu@physx@@UEAAXPEBX@Z 0000000180004320 f   GuBucketPruner.obj
 0001:00003320       ?merge@IncrementalAABBPruner@Gu@physx@@UEAAXPEBX@Z 0000000180004320 f   GuIncrementalAABBPruner.obj
 0001:00003320       ?onMeshIndexFormatChange@TriangleMeshBuilder@physx@@UEAAXXZ 0000000180004320 f   GuCookingTriangleMesh.obj
 0001:00003320       ?profile@Callback@RTree@Gu@physx@@UEAAXXZ 0000000180004320 f   GuMidphaseRTree.obj
 0001:00003320       ?purge@BucketPruner@Gu@physx@@UEAAXXZ 0000000180004320 f   GuBucketPruner.obj
 0001:00003320       ?requiresObjects@ConvexMesh@Gu@physx@@UEAAXAEAVPxProcessPxBaseCallback@3@@Z 0000000180004320 f   GuConvexMesh.obj
 0001:00003320       ?requiresObjects@HeightField@Gu@physx@@UEAAXAEAVPxProcessPxBaseCallback@3@@Z 0000000180004320 f   GuHeightField.obj
 0001:00003320       ?requiresObjects@SoftBodyMesh@Gu@physx@@UEAAXAEAVPxProcessPxBaseCallback@3@@Z 0000000180004320 f   GuTetrahedronMesh.obj
 0001:00003320       ?requiresObjects@TriangleMesh@Gu@physx@@UEAAXAEAVPxProcessPxBaseCallback@3@@Z 0000000180004320 f   GuTriangleMesh.obj
 0001:00003320       ?swapIndex@CompanionPrunerAABBTree@@UEAAXII@Z 0000000180004320 f   GuSecondaryPruner.obj
 0001:00003320       ?swapIndex@CompanionPrunerBucket@@UEAAXII@Z 0000000180004320 f   GuSecondaryPruner.obj
 0001:00003320       ?timeStampChange@CompanionPrunerAABBTree@@UEAAXXZ 0000000180004320 f   GuSecondaryPruner.obj
 0001:00003320       ?timeStampChange@CompanionPrunerBucket@@UEAAXXZ 0000000180004320 f   GuSecondaryPruner.obj
 0001:00003320       ?visualize@BasePruner@Gu@physx@@UEBAXAEAVPxRenderOutput@3@II@Z 0000000180004320 f   GuIncrementalAABBPruner.obj
 0001:00003320       _guard_check_icall_nop     0000000180004320 f   LIBCMT:guard_support.obj
 0001:00003330       ??4AABBTreeBounds@Gu@physx@@QEAAAEAV012@AEBV012@@Z 0000000180004330 f i GuMeshFactory.obj
 0001:00003330       ??4CmModuleUpdateLoader@Cm@physx@@QEAAAEAV012@AEBV012@@Z 0000000180004330 f i CmWindowsModuleUpdateLoader.obj
 0001:00003330       ??4PtrTable@Cm@physx@@QEAAAEAU012@AEBU012@@Z 0000000180004330 f i CmPtrTable.obj
 0001:00003340       ?add@PtrTable@Cm@physx@@QEAAXPEAXAEAVPtrTableStorageManager@23@@Z 0000000180004340 f   CmPtrTable.obj
 0001:00003450       ?clear@PtrTable@Cm@physx@@QEAAXAEAVPtrTableStorageManager@23@@Z 0000000180004450 f   CmPtrTable.obj
 0001:000034c0       ?exportExtraData@PtrTable@Cm@physx@@QEAAXAEAVPxSerializationContext@3@@Z 00000001800044c0 f   CmPtrTable.obj
 0001:00003510       ?find@PtrTable@Cm@physx@@QEBAIPEBX@Z 0000000180004510 f   CmPtrTable.obj
 0001:00003540       ?getBinaryMetaData@PtrTable@Cm@physx@@SAXAEAVPxOutputStream@3@@Z 0000000180004540 f   CmPtrTable.obj
 0001:00003730       ?getCount@PtrTable@Cm@physx@@QEBAIXZ 0000000180004730 f i CmPtrTable.obj
 0001:00003740       ?getPtrs@PtrTable@Cm@physx@@QEAAPEAPEAXXZ 0000000180004740 f i CmPtrTable.obj
 0001:00003740       ?getPtrs@PtrTable@Cm@physx@@QEBAPEBQEAXXZ 0000000180004740 f i CmPtrTable.obj
 0001:00003750       ?importExtraData@PtrTable@Cm@physx@@QEAAXAEAVPxDeserializationContext@3@@Z 0000000180004750 f   CmPtrTable.obj
 0001:00003780       ?realloc@PtrTable@Cm@physx@@AEAAXIIAEAVPtrTableStorageManager@23@@Z 0000000180004780 f   CmPtrTable.obj
 0001:00003810       ?replaceWithLast@PtrTable@Cm@physx@@QEAAXIAEAVPtrTableStorageManager@23@@Z 0000000180004810 f   CmPtrTable.obj
 0001:00003910       ??_ECollection@Cm@physx@@UEAAPEAXI@Z 0000000180004910 f i CmCollection.obj
 0001:00003910       ??_GCollection@Cm@physx@@UEAAPEAXI@Z 0000000180004910 f i CmCollection.obj
 0001:000039c0       ??_EPxCollection@physx@@MEAAPEAXI@Z 00000001800049c0 f i CmCollection.obj
 0001:000039c0       ??_GPxCollection@physx@@MEAAPEAXI@Z 00000001800049c0 f i CmCollection.obj
 0001:000039f0       ?add@Collection@Cm@physx@@UEAAXAEAVPxBase@3@_K@Z 00000001800049f0 f   CmCollection.obj
 0001:00003ae0       ?add@Collection@Cm@physx@@UEAAXAEAVPxCollection@3@@Z 0000000180004ae0 f   CmCollection.obj
 0001:00003d00       ?addId@Collection@Cm@physx@@UEAAXAEAVPxBase@3@_K@Z 0000000180004d00 f   CmCollection.obj
 0001:00003e40       ?contains@Collection@Cm@physx@@UEBA_NAEAVPxBase@3@@Z 0000000180004e40 f   CmCollection.obj
 0001:00003ef0       ?create@?$PxHashBase@V?$PxPair@$$CB_KPEAVPxBase@physx@@@physx@@_KU?$PxHash@_K@2@UGetKey@?$PxHashMapBase@_KPEAVPxBase@physx@@U?$PxHash@_K@2@VPxAllocator@2@@2@VPxAllocator@2@$00@physx@@QEAAPEAV?$PxPair@$$CB_KPEAVPxBase@physx@@@2@AEB_KAEA_N@Z 0000000180004ef0 f i CmCollection.obj
 0001:00003ef0       ?create@?$PxHashBase@V?$PxPair@QEAVPxBase@physx@@_K@physx@@PEAVPxBase@2@U?$PxHash@PEAVPxBase@physx@@@2@UGetKey@?$PxHashMapBase@PEAVPxBase@physx@@_KU?$PxHash@PEAVPxBase@physx@@@2@VPxAllocator@2@@2@VPxAllocator@2@$00@physx@@QEAAPEAV?$PxPair@QEAVPxBase@physx@@_K@2@AEBQEAVPxBase@2@AEA_N@Z 0000000180004ef0 f i CmCollection.obj
 0001:00004080       ?erase@?$PxHashBase@V?$PxPair@$$CB_KPEAVPxBase@physx@@@physx@@_KU?$PxHash@_K@2@UGetKey@?$PxHashMapBase@_KPEAVPxBase@physx@@U?$PxHash@_K@2@VPxAllocator@2@@2@VPxAllocator@2@$00@physx@@QEAA_NAEB_K@Z 0000000180005080 f i CmCollection.obj
 0001:00004080       ?erase@?$PxHashBase@V?$PxPair@QEAVPxBase@physx@@_K@physx@@PEAVPxBase@2@U?$PxHash@PEAVPxBase@physx@@@2@UGetKey@?$PxHashMapBase@PEAVPxBase@physx@@_KU?$PxHash@PEAVPxBase@physx@@@2@VPxAllocator@2@@2@VPxAllocator@2@$00@physx@@QEAA_NAEBQEAVPxBase@2@@Z 0000000180005080 f i CmCollection.obj
 0001:00004230       ?find@?$PxHashMapBase@PEAVPxBase@physx@@_KU?$PxHash@PEAVPxBase@physx@@@2@VPxAllocator@2@@physx@@QEBAPEBV?$PxPair@QEAVPxBase@physx@@_K@2@AEBQEAVPxBase@2@@Z 0000000180005230 f i CmCollection.obj
 0001:00004230       ?find@?$PxHashMapBase@_KPEAVPxBase@physx@@U?$PxHash@_K@2@VPxAllocator@2@@physx@@QEBAPEBV?$PxPair@$$CB_KPEAVPxBase@physx@@@2@AEB_K@Z 0000000180005230 f i CmCollection.obj
 0001:000042d0       ?find@Collection@Cm@physx@@UEBAPEAVPxBase@3@_K@Z 00000001800052d0 f   CmCollection.obj
 0001:00004330       ?getId@Collection@Cm@physx@@UEBA_KAEBVPxBase@3@@Z 0000000180005330 f   CmCollection.obj
 0001:000043e0       ?getIds@Collection@Cm@physx@@UEBAIPEA_KII@Z 00000001800053e0 f   CmCollection.obj
 0001:00004500       ?getNbIds@Collection@Cm@physx@@UEBAIXZ 0000000180005500 f   CmCollection.obj
 0001:00004510       ?getNbObjects@Collection@Cm@physx@@UEBAIXZ 0000000180005510 f   CmCollection.obj
 0001:00004520       ?getObject@Collection@Cm@physx@@UEBAAEAVPxBase@3@I@Z 0000000180005520 f   CmCollection.obj
 0001:00004530       ?getObjects@Collection@Cm@physx@@UEBAIPEAPEAVPxBase@3@II@Z 0000000180005530 f   CmCollection.obj
 0001:000045d0       ?insert@?$PxHashMapBase@_KPEAVPxBase@physx@@U?$PxHash@_K@2@VPxAllocator@2@@physx@@QEAA_N_KQEAVPxBase@2@@Z 00000001800055d0 f i CmCollection.obj
 0001:00004620       ?release@Collection@Cm@physx@@UEAAXXZ 0000000180005620 f i CmCollection.obj
 0001:00004640       ?remove@Collection@Cm@physx@@UEAAXAEAVPxBase@3@@Z 0000000180005640 f   CmCollection.obj
 0001:00004780       ?remove@Collection@Cm@physx@@UEAAXAEAVPxCollection@3@@Z 0000000180005780 f   CmCollection.obj
 0001:000048e0       ?removeId@Collection@Cm@physx@@UEAAX_K@Z 00000001800058e0 f   CmCollection.obj
 0001:000049d0       ?reserveInternal@?$PxHashBase@V?$PxPair@$$CB_KPEAVPxBase@physx@@@physx@@_KU?$PxHash@_K@2@UGetKey@?$PxHashMapBase@_KPEAVPxBase@physx@@U?$PxHash@_K@2@VPxAllocator@2@@2@VPxAllocator@2@$00@physx@@AEAAXI@Z 00000001800059d0 f i CmCollection.obj
 0001:000049d0       ?reserveInternal@?$PxHashBase@V?$PxPair@QEAVPxBase@physx@@_K@physx@@PEAVPxBase@2@U?$PxHash@PEAVPxBase@physx@@@2@UGetKey@?$PxHashMapBase@PEAVPxBase@physx@@_KU?$PxHash@PEAVPxBase@physx@@@2@VPxAllocator@2@@2@VPxAllocator@2@$00@physx@@AEAAXI@Z 00000001800059d0 f i CmCollection.obj
 0001:00004bb0       PxCreateCollection         0000000180005bb0 f   CmCollection.obj
 0001:00004cb0       ??0RadixSort@Cm@physx@@QEAA@XZ 0000000180005cb0 f   CmRadixSort.obj
 0001:00004ce0       ??0RadixSortBuffered@Cm@physx@@QEAA@XZ 0000000180005ce0 f   CmRadixSort.obj
 0001:00004d10       ??1RadixSort@Cm@physx@@UEAA@XZ 0000000180005d10 f   CmRadixSort.obj
 0001:00004d20       ??1RadixSortBuffered@Cm@physx@@UEAA@XZ 0000000180005d20 f   CmRadixSort.obj
 0001:00004d50       ??_ERadixSort@Cm@physx@@UEAAPEAXI@Z 0000000180005d50 f i CmRadixSort.obj
 0001:00004de0       ??_ERadixSortBuffered@Cm@physx@@UEAAPEAXI@Z 0000000180005de0 f i CmRadixSort.obj
 0001:00004ed0       ?CheckResize@RadixSortBuffered@Cm@physx@@AEAAXI@Z 0000000180005ed0 f i CmRadixSort.obj
 0001:00004f10       ?GetNbHits@RadixSort@Cm@physx@@QEBAIXZ 0000000180005f10 f i CmRadixSort.obj
 0001:00004f20       ?GetNbTotalCalls@RadixSort@Cm@physx@@QEBAIXZ 0000000180005f20 f i CmRadixSort.obj
 0001:00004f30       ?GetRanks@RadixSort@Cm@physx@@QEBAPEBIXZ 0000000180005f30 f i CmRadixSort.obj
 0001:00004f30       ?getHeightField@HeightFieldUtil@Gu@physx@@QEBAAEBVHeightField@23@XZ 0000000180005f30 f i GuCCTSweepTests.obj
 0001:00004f30       ?getSimulationMesh@SoftBodyMesh@Gu@physx@@UEAAPEAVPxTetrahedronMesh@3@XZ 0000000180005f30 f i GuTetrahedronMesh.obj
 0001:00004f30       ?getSimulationMesh@SoftBodyMesh@Gu@physx@@UEBAPEBVPxTetrahedronMesh@3@XZ 0000000180005f30 f i GuTetrahedronMesh.obj
 0001:00004f40       ?GetRecyclable@RadixSort@Cm@physx@@QEBAPEAIXZ 0000000180005f40 f i CmRadixSort.obj
 0001:00004f40       ?GetValencies@BigConvexData@physx@@QEBAPEBUValency@Gu@2@XZ 0000000180005f40 f i GuMetaData.obj
 0001:00004f40       ?getCollisionMesh@SoftBodyMesh@Gu@physx@@UEAAPEAVPxTetrahedronMesh@3@XZ 0000000180005f40 f i GuTetrahedronMesh.obj
 0001:00004f40       ?getCollisionMesh@SoftBodyMesh@Gu@physx@@UEBAPEBVPxTetrahedronMesh@3@XZ 0000000180005f40 f i GuTetrahedronMesh.obj
 0001:00004f40       ?getHeightFieldGeometry@HeightFieldUtil@Gu@physx@@QEBAAEBVPxHeightFieldGeometry@3@XZ 0000000180005f40 f i GuCCTSweepTests.obj
 0001:00004f40       ?getObjects@PruningPool@Gu@physx@@QEBAPEAUPrunerPayload@23@XZ 0000000180005f40 f i GuIncrementalAABBPrunerCore.obj
 0001:00004f40       ?getPos@AABBTreeBuildNode@Gu@physx@@QEBAPEBV123@XZ 0000000180005f40 f i GuMeshFactory.obj
 0001:00004f40       ?getVertices@TetrahedronMesh@Gu@physx@@UEBAPEBV?$PxVec3T@M@3@XZ 0000000180005f40 f i GuTetrahedronMesh.obj
 0001:00004f40       ?getVertices@TriangleMesh@Gu@physx@@UEBAPEBV?$PxVec3T@M@3@XZ 0000000180005f40 f i GuTriangleMesh.obj
 0001:00004f50       ?Resize@RadixSortBuffered@Cm@physx@@AEAA_NI@Z 0000000180005f50 f   CmRadixSort.obj
 0001:00005040       ?SetBuffers@RadixSort@Cm@physx@@QEAA_NPEAI00PEAPEAI@Z 0000000180006040 f   CmRadixSort.obj
 0001:00005080       ?Sort@RadixSort@Cm@physx@@QEAAAEAV123@PEBIIW4RadixHint@23@@Z 0000000180006080 f   CmRadixSort.obj
 0001:00005730       ?Sort@RadixSort@Cm@physx@@QEAAAEAV123@PEBMI@Z 0000000180006730 f   CmRadixSort.obj
 0001:00005ed0       ?Sort@RadixSortBuffered@Cm@physx@@QEAAAEAV123@PEBIIW4RadixHint@23@@Z 0000000180006ed0 f   CmRadixSort.obj
 0001:00005f70       ?Sort@RadixSortBuffered@Cm@physx@@QEAAAEAV123@PEBMI@Z 0000000180006f70 f   CmRadixSort.obj
 0001:00006000       ?invalidateRanks@RadixSort@Cm@physx@@QEAAXXZ 0000000180007000 f i CmRadixSort.obj
 0001:00006010       ?reset@RadixSortBuffered@Cm@physx@@QEAAXXZ 0000000180007010 f   CmRadixSort.obj
 0001:00006090       ?ReadHeader@Cm@physx@@YA_NEEEEAEAIAEA_NAEAVPxInputStream@2@@Z 0000000180007090 f   CmSerialize.obj
 0001:000061f0       ?ReadIndices@Cm@physx@@YAXGIPEAGAEAVPxInputStream@2@_N@Z 00000001800071f0 f   CmSerialize.obj
 0001:00006340       ?StoreIndices@Cm@physx@@YAXGIPEBGAEAVPxOutputStream@2@_N@Z 0000000180007340 f   CmSerialize.obj
 0001:00006430       ?WriteHeader@Cm@physx@@YA_NEEEEI_NAEAVPxOutputStream@2@@Z 0000000180007430 f   CmSerialize.obj
 0001:00006560       ?computeMaxIndex@physx@@YAGPEBGI@Z 0000000180007560 f   CmSerialize.obj
 0001:00006590       ?computeMaxIndex@physx@@YAIPEBII@Z 0000000180007590 f   CmSerialize.obj
 0001:000065c0       ?readByteBuffer@physx@@YAXPEAEIAEAVPxInputStream@1@@Z 00000001800075c0 f   CmSerialize.obj
 0001:000065c0       ?writeByteBuffer@physx@@YAXPEBEIAEAVPxOutputStream@1@@Z 00000001800075c0 f   CmSerialize.obj
 0001:000065e0       ?readChunk@physx@@YAXAEAC000AEAVPxInputStream@1@@Z 00000001800075e0 f   CmSerialize.obj
 0001:00006660       ?readDword@physx@@YAI_NAEAVPxInputStream@1@@Z 0000000180007660 f   CmSerialize.obj
 0001:000066c0       ?readFloat@physx@@YAM_NAEAVPxInputStream@1@@Z 00000001800076c0 f   CmSerialize.obj
 0001:00006720       ?readFloatBuffer@physx@@YA_NPEAMI_NAEAVPxInputStream@1@@Z 0000000180007720 f   CmSerialize.obj
 0001:000067a0       ?readHeader@physx@@YA_NCCCCAEAIAEA_NAEAVPxInputStream@1@@Z 00000001800077a0 f   CmSerialize.obj
 0001:000068f0       ?readIndices@physx@@YAXIIPEAIAEAVPxInputStream@1@_N@Z 00000001800078f0 f   CmSerialize.obj
 0001:00006a20       ?readWord@physx@@YAG_NAEAVPxInputStream@1@@Z 0000000180007a20 f   CmSerialize.obj
 0001:00006a60       ?readWordBuffer@physx@@YAXPEAGI_NAEAVPxInputStream@1@@Z 0000000180007a60 f   CmSerialize.obj
 0001:00006ad0       ?storeIndices@physx@@YAXIIPEBIAEAVPxOutputStream@1@_N@Z 0000000180007ad0 f   CmSerialize.obj
 0001:00006c60       ?writeDword@physx@@YAXI_NAEAVPxOutputStream@1@@Z 0000000180007c60 f   CmSerialize.obj
 0001:00006cb0       ?writeFloat@physx@@YAXM_NAEAVPxOutputStream@1@@Z 0000000180007cb0 f   CmSerialize.obj
 0001:00006d00       ?writeFloatBuffer@physx@@YAXPEBMI_NAEAVPxOutputStream@1@@Z 0000000180007d00 f   CmSerialize.obj
 0001:00006da0       ?writeHeader@physx@@YA_NCCCCI_NAEAVPxOutputStream@1@@Z 0000000180007da0 f   CmSerialize.obj
 0001:00006ed0       ?writeWord@physx@@YAXG_NAEAVPxOutputStream@1@@Z 0000000180007ed0 f   CmSerialize.obj
 0001:00006f10       ?writeWordBuffer@physx@@YAXPEBGI_NAEAVPxOutputStream@1@@Z 0000000180007f10 f   CmSerialize.obj
 0001:00006f90       ??0PxRenderOutput@physx@@QEAA@AEAVPxRenderBuffer@1@@Z 0000000180007f90 f i CmVisualization.obj
 0001:00006fe0       ??0PxRenderOutput@physx@@QEAA@AEBV01@@Z 0000000180007fe0 f i CmVisualization.obj
 0001:00007080       ??6PxRenderOutput@physx@@QEAAAEAV01@AEBV?$PxMat44T@M@1@@Z 0000000180008080 f i CmVisualization.obj
 0001:000070f0       ??6PxRenderOutput@physx@@QEAAAEAV01@AEBV?$PxTransformT@M@1@@Z 00000001800080f0 f i CmVisualization.obj
 0001:00007270       ??6PxRenderOutput@physx@@QEAAAEAV01@AEBV?$PxVec3T@M@1@@Z 0000000180008270 f i CmVisualization.obj
 0001:00007560       ??6PxRenderOutput@physx@@QEAAAEAV01@I@Z 0000000180008560 f i CmVisualization.obj
 0001:00007570       ??6PxRenderOutput@physx@@QEAAAEAV01@W4Primitive@01@@Z 0000000180008570 f i CmVisualization.obj
 0001:00007580       ?outputCapsule@PxRenderOutput@physx@@QEAAAEAV12@MMAEBV?$PxMat44T@M@2@@Z 0000000180008580 f i CmVisualization.obj
 0001:000080c0       ?outputSegment@PxRenderOutput@physx@@QEAAXAEBV?$PxVec3T@M@2@0@Z 00000001800090c0 f i CmVisualization.obj
 0001:00008130       ?renderOutputDebugArrow@Cm@physx@@YAXAEAVPxRenderOutput@2@AEBUPxDebugArrow@2@@Z 0000000180009130 f   CmVisualization.obj
 0001:000084d0       ?renderOutputDebugBasis@Cm@physx@@YAXAEAVPxRenderOutput@2@AEBUPxDebugBasis@2@@Z 00000001800094d0 f   CmVisualization.obj
 0001:00008a60       ?renderOutputDebugBox@Cm@physx@@YAXAEAVPxRenderOutput@2@AEBVPxBounds3@2@@Z 0000000180009a60 f   CmVisualization.obj
 0001:00008cd0       ?renderOutputDebugCircle@Cm@physx@@YAXAEAVPxRenderOutput@2@IM@Z 0000000180009cd0 f   CmVisualization.obj
 0001:00008db0       ?reservePoints@PxRenderOutput@physx@@QEAAPEAUPxDebugPoint@2@I@Z 0000000180009db0 f i CmVisualization.obj
 0001:00008dc0       ?reserveSegments@PxRenderOutput@physx@@QEAAPEAUPxDebugLine@2@I@Z 0000000180009dc0 f i CmVisualization.obj
 0001:00008dd0       ?visualizeAngularLimit@Cm@physx@@YAXAEAVPxRenderOutput@2@MAEBV?$PxTransformT@M@2@MM_N@Z 0000000180009dd0 f   CmVisualization.obj
 0001:00008f70       ?visualizeDoubleCone@Cm@physx@@YAXAEAVPxRenderOutput@2@MAEBV?$PxTransformT@M@2@M_N@Z 0000000180009f70 f   CmVisualization.obj
 0001:000091a0       ?visualizeJointFrames@Cm@physx@@YAXAEAVPxRenderOutput@2@MAEBV?$PxTransformT@M@2@1@Z 000000018000a1a0 f   CmVisualization.obj
 0001:00009ca0       ?visualizeLimitCone@Cm@physx@@YAXAEAVPxRenderOutput@2@MAEBV?$PxTransformT@M@2@MM_N@Z 000000018000aca0 f   CmVisualization.obj
 0001:00009ee0       ?visualizeLinearLimit@Cm@physx@@YAXAEAVPxRenderOutput@2@MAEBV?$PxTransformT@M@2@1M_N@Z 000000018000aee0 f   CmVisualization.obj
 0001:0000a4e0       ??0CmModuleUpdateLoader@Cm@physx@@QEAA@PEBD@Z 000000018000b4e0 f   CmWindowsModuleUpdateLoader.obj
 0001:0000a520       ??1CmModuleUpdateLoader@Cm@physx@@QEAA@XZ 000000018000b520 f   CmWindowsModuleUpdateLoader.obj
 0001:0000a550       ?LoadModule@CmModuleUpdateLoader@Cm@physx@@QEAAPEAUHINSTANCE__@@PEBD0@Z 000000018000b550 f   CmWindowsModuleUpdateLoader.obj
 0001:0000a5c0       __local_stdio_printf_options 000000018000b5c0 f i CmWindowsModuleUpdateLoader.obj
 0001:0000a5d0       printf                     000000018000b5d0 f i CmWindowsModuleUpdateLoader.obj
 0001:0000a630       ?commonDelayHook@@YAP6A_JXZIPEAUDelayLoadInfo@@@Z 000000018000b630 f   CmWindowsDelayLoadHook.obj
 0001:0000a710       PxSetPhysXCommonDelayLoadHook 000000018000b710 f   CmWindowsDelayLoadHook.obj
 0001:0000a720       ??0?$PxQuatT@M@physx@@QEAA@AEBV?$PxMat33T@M@1@@Z 000000018000b720 f i GuBox.obj
 0001:0000a920       ??0Box@Gu@physx@@QEAA@AEBV012@@Z 000000018000b920 f i GuBox.obj
 0001:0000a920       ??4Box@Gu@physx@@QEAAAEBV012@AEBV012@@Z 000000018000b920 f i GuBox.obj
 0001:0000a980       ??0Box@Gu@physx@@QEAA@AEBV?$PxVec3T@M@2@0AEBV?$PxMat33T@M@2@@Z 000000018000b980 f i GuBox.obj
 0001:0000a9f0       ??$forward@_K@std@@YA$$QEA_KAEA_K@Z 000000018000b9f0 f i libvcruntime:undname.obj
 0001:0000a9f0       ??0AABBTreeBuildNode@Gu@physx@@QEAA@XZ 000000018000b9f0 f i GuMeshFactory.obj
 0001:0000a9f0       ??0BigConvexData@physx@@QEAA@W4PxEMPTY@1@@Z 000000018000b9f0 f i GuMetaData.obj
 0001:0000a9f0       ??0Box@Gu@physx@@QEAA@XZ   000000018000b9f0 f i GuBox.obj
 0001:0000a9f0       ??0HeightFieldData@Gu@physx@@QEAA@W4PxEMPTY@2@@Z 000000018000b9f0 f i GuCCTSweepTests.obj
 0001:0000a9f0       ?getAABB@AABBTreeBuildNode@Gu@physx@@QEBAAEBVPxBounds3@3@XZ 000000018000b9f0 f i GuMeshFactory.obj
 0001:0000a9f0       ?getPaddedBounds@HeightFieldData@Gu@physx@@QEBAAEBVCenterExtentsPadded@23@XZ 000000018000b9f0 f i GuCCTSweepTests.obj
 0001:0000aa00       ?computeAABBExtent@Box@Gu@physx@@QEBA?AV?$PxVec3T@M@3@XZ 000000018000ba00 f i GuBox.obj
 0001:0000aac0       ?computeBoxPoints@Box@Gu@physx@@QEBAXPEIAV?$PxVec3T@M@3@@Z 000000018000bac0 f i GuBox.obj
 0001:0000ab00       ?computeOBBPoints@Gu@physx@@YAXPEIAV?$PxVec3T@M@2@AEBV32@1111@Z 000000018000bb00 f   GuBox.obj
 0001:0000ad80       ?create@Box@Gu@physx@@QEAAXAEBVCapsule@23@@Z 000000018000bd80 f   GuBox.obj
 0001:0000afb0       ?getBoxEdges@Gu@physx@@YAPEBEXZ 000000018000bfb0 f   GuBox.obj
 0001:0000afc0       ?getTransform@Box@Gu@physx@@QEBA?AV?$PxTransformT@M@3@XZ 000000018000bfc0 f i GuBox.obj
 0001:0000b020       ?isValid@Box@Gu@physx@@QEBA_NXZ 000000018000c020 f i GuBox.obj
 0001:0000b040       ?rotate@Box@Gu@physx@@QEBA?AV?$PxVec3T@M@3@AEBV43@@Z 000000018000c040 f i GuBox.obj
 0001:0000b0d0       ?rotateInv@Box@Gu@physx@@QEBA?AV?$PxVec3T@M@3@AEBV43@@Z 000000018000c0d0 f i GuBox.obj
 0001:0000b160       ?setAxes@Box@Gu@physx@@QEAAXAEBV?$PxVec3T@M@3@00@Z 000000018000c160 f i GuBox.obj
 0001:0000b1a0       ?setEmpty@Box@Gu@physx@@QEAAXXZ 000000018000c1a0 f i GuBox.obj
 0001:0000b1e0       ?transform@Box@Gu@physx@@QEBA?AV?$PxVec3T@M@3@AEBV43@@Z 000000018000c1e0 f i GuBox.obj
 0001:0000b280       ?PxComputeBasisVectors@physx@@YAXAEBV?$PxVec3T@M@1@0AEAV21@11@Z 000000018000c280 f i GuCapsule.obj
 0001:0000b420       ?computeBoxAroundCapsule@Gu@physx@@YAXAEBVCapsule@12@AEAVBox@12@@Z 000000018000c420 f   GuCapsule.obj
 0001:0000b570       ??0HeightFieldData@Gu@physx@@QEAA@$$QEAU012@@Z 000000018000c570 f i GuCCTSweepTests.obj
 0001:0000b570       ??0HeightFieldData@Gu@physx@@QEAA@AEBU012@@Z 000000018000c570 f i GuCCTSweepTests.obj
 0001:0000b570       ??4HeightFieldData@Gu@physx@@QEAAAEAU012@$$QEAU012@@Z 000000018000c570 f i GuCCTSweepTests.obj
 0001:0000b570       ??4HeightFieldData@Gu@physx@@QEAAAEAU012@AEBU012@@Z 000000018000c570 f i GuCCTSweepTests.obj
 0001:0000b5d0       ??0HeightFieldData@Gu@physx@@QEAA@XZ 000000018000c5d0 f i GuCCTSweepTests.obj
 0001:0000b5e0       ??0HeightFieldTraceUtil@Gu@physx@@QEAA@AEBVPxHeightFieldGeometry@2@@Z 000000018000c5e0 f i GuCCTSweepTests.obj
 0001:0000b5e0       ??0HeightFieldUtil@Gu@physx@@QEAA@AEBVPxHeightFieldGeometry@2@@Z 000000018000c5e0 f i GuCCTSweepTests.obj
 0001:0000b620       ??4AABBTreeBuildParams@Gu@physx@@QEAAAEAV012@AEBV012@@Z 000000018000c620 f i GuMeshFactory.obj
 0001:0000b620       ??4HeightFieldTraceUtil@Gu@physx@@QEAAAEAV012@$$QEAV012@@Z 000000018000c620 f i GuCCTSweepTests.obj
 0001:0000b620       ??4HeightFieldTraceUtil@Gu@physx@@QEAAAEAV012@AEBV012@@Z 000000018000c620 f i GuCCTSweepTests.obj
 0001:0000b620       ??4HeightFieldUtil@Gu@physx@@QEAAAEAV012@AEBV012@@Z 000000018000c620 f i GuCCTSweepTests.obj
 0001:0000b640       ??4HeightFieldUtil@Gu@physx@@QEAAAEAV012@$$QEAV012@@Z 000000018000c640 f i GuCCTSweepTests.obj
 0001:0000b6a0       ??_EEntityReport@Gu@physx@@UEAAPEAXI@Z 000000018000c6a0 f i GuSweepsHF.obj
 0001:0000b6a0       ??_EOverlapCallback@PxBVH@physx@@UEAAPEAXI@Z 000000018000c6a0 f i GuQuerySystem.obj
 0001:0000b6a0       ??_EOverlapReport@Gu@physx@@UEAAPEAXI@Z 000000018000c6a0 f i GuCCTSweepTests.obj
 0001:0000b6a0       ??_ERaycastCallback@PxBVH@physx@@UEAAPEAXI@Z 000000018000c6a0 f i GuQuerySystem.obj
 0001:0000b6a0       ??_ERemapCallback@RTreeCooker@physx@@UEAAPEAXI@Z 000000018000c6a0 f i GuCookingTriangleMesh.obj
 0001:0000b6a0       ??_GEntityReport@Gu@physx@@UEAAPEAXI@Z 000000018000c6a0 f i GuSweepsHF.obj
 0001:0000b6a0       ??_GOverlapCallback@PxBVH@physx@@UEAAPEAXI@Z 000000018000c6a0 f i GuQuerySystem.obj
 0001:0000b6a0       ??_GOverlapReport@Gu@physx@@UEAAPEAXI@Z 000000018000c6a0 f i GuCCTSweepTests.obj
 0001:0000b6a0       ??_GRaycastCallback@PxBVH@physx@@UEAAPEAXI@Z 000000018000c6a0 f i GuQuerySystem.obj
 0001:0000b6a0       ??_GRemapCallback@RTreeCooker@physx@@UEAAPEAXI@Z 000000018000c6a0 f i GuCookingTriangleMesh.obj
 0001:0000b6d0       ??_H@YAXPEAX_K1P6APEAX0@Z@Z 000000018000c6d0 f i GuCCTSweepTests.obj
 0001:0000b720       ?ceilUp@HeightFieldTraceUtil@Gu@physx@@SAMM@Z 000000018000c720 f i GuCCTSweepTests.obj
 0001:0000b760       ?floorDown@HeightFieldTraceUtil@Gu@physx@@SAMM@Z 000000018000c760 f i GuCCTSweepTests.obj
 0001:0000b7a0       ?getHeightAtShapePoint@HeightFieldUtil@Gu@physx@@QEBAMMM@Z 000000018000c7a0 f i GuCCTSweepTests.obj
 0001:0000b800       ?getHeightInternal2@HeightField@Gu@physx@@QEBAMIMM@Z 000000018000c800 f i GuCCTSweepTests.obj
 0001:0000b970       ?getNormalAtShapePoint@HeightFieldUtil@Gu@physx@@QEBA?AV?$PxVec3T@M@3@MM@Z 000000018000c970 f i GuCCTSweepTests.obj
 0001:0000ba30       ?getNormal_2@HeightField@Gu@physx@@QEBA?AV?$PxVec3T@M@3@IMMMMM@Z 000000018000ca30 f i GuCCTSweepTests.obj
 0001:0000bb50       ?getOneOverColumnScale@HeightFieldUtil@Gu@physx@@QEBAMXZ 000000018000cb50 f i GuCCTSweepTests.obj
 0001:0000bb60       ?getOneOverHeightScale@HeightFieldUtil@Gu@physx@@QEBAMXZ 000000018000cb60 f i GuCCTSweepTests.obj
 0001:0000bb70       ?getOneOverRowScale@HeightFieldUtil@Gu@physx@@QEBAMXZ 000000018000cb70 f i GuCCTSweepTests.obj
 0001:0000bb80       ?hf2shapen@HeightFieldUtil@Gu@physx@@QEBA?AV?$PxVec3T@M@3@AEBV43@@Z 000000018000cb80 f i GuCCTSweepTests.obj
 0001:0000bb80       ?shape2hfp@HeightFieldUtil@Gu@physx@@QEBA?AV?$PxVec3T@M@3@AEBV43@@Z 000000018000cb80 f i GuCCTSweepTests.obj
 0001:0000bbc0       ?hf2shapep@HeightFieldUtil@Gu@physx@@QEBA?AV?$PxVec3T@M@3@AEBV43@@Z 000000018000cbc0 f i GuCCTSweepTests.obj
 0001:0000bc00       ?hf2worldn@HeightFieldUtil@Gu@physx@@QEBA?AV?$PxVec3T@M@3@AEBV?$PxTransformT@M@3@AEBV43@@Z 000000018000cc00 f i GuCCTSweepTests.obj
 0001:0000bd70       ?hf2worldp@HeightFieldUtil@Gu@physx@@QEBA?AV?$PxVec3T@M@3@AEBV?$PxTransformT@M@3@AEBV43@@Z 000000018000cd70 f i GuCCTSweepTests.obj
 0001:0000bef0       ?overlapAABBTriangles0to1@HeightFieldUtil@Gu@physx@@QEBAXAEBV?$PxTransformT@M@3@AEBVPxBounds3@3@AEAVOverlapReport@23@I@Z 000000018000cef0 f i GuCCTSweepTests.obj
 0001:0000c290       ?overlapAABBTriangles@HeightFieldUtil@Gu@physx@@QEBAXAEBV?$PxTransformT@M@3@0AEBVPxBounds3@3@AEAVOverlapReport@23@I@Z 000000018000d290 f i GuCCTSweepTests.obj
 0001:0000c8b0       ?overlapAABBTriangles@HeightFieldUtil@Gu@physx@@QEBAXAEBV?$PxTransformT@M@3@AEBVPxBounds3@3@AEAVOverlapReport@23@I@Z 000000018000d8b0 f i GuCCTSweepTests.obj
 0001:0000cf90       ?sweepBoxTriangles_Precise@Gu@physx@@YA_NIPEBVPxTriangle@2@_NAEBVPxBoxGeometry@2@AEBV?$PxTransformT@M@2@AEBV?$PxVec3T@M@2@MAEAUPxGeomSweepHit@2@PEBIMV?$PxFlags@W4Enum@PxHitFlag@physx@@G@2@@Z 000000018000df90 f   GuCCTSweepTests.obj
 0001:0000dd10       ?sweepBox_BoxGeom_Precise@@YA_NAEBVPxGeometry@physx@@AEBV?$PxTransformT@M@2@AEBVPxBoxGeometry@2@1AEBVBox@Gu@2@AEBV?$PxVec3T@M@2@MAEAUPxGeomSweepHit@2@V?$PxFlags@W4Enum@PxHitFlag@physx@@G@2@MPEAUPxQueryThreadContext@2@@Z 000000018000ed10 f   GuCCTSweepTests.obj
 0001:0000ded0       ?sweepBox_CapsuleGeom_Precise@@YA_NAEBVPxGeometry@physx@@AEBV?$PxTransformT@M@2@AEBVPxBoxGeometry@2@1AEBVBox@Gu@2@AEBV?$PxVec3T@M@2@MAEAUPxGeomSweepHit@2@V?$PxFlags@W4Enum@PxHitFlag@physx@@G@2@MPEAUPxQueryThreadContext@2@@Z 000000018000eed0 f   GuCCTSweepTests.obj
 0001:0000e2a0       ?sweepBox_HeightFieldGeom_Precise@@YA_NAEBVPxGeometry@physx@@AEBV?$PxTransformT@M@2@AEBVPxBoxGeometry@2@1AEBVBox@Gu@2@AEBV?$PxVec3T@M@2@MAEAUPxGeomSweepHit@2@V?$PxFlags@W4Enum@PxHitFlag@physx@@G@2@MPEAUPxQueryThreadContext@2@@Z 000000018000f2a0 f   GuCCTSweepTests.obj
 0001:0000eac0       ?sweepBox_SphereGeom_Precise@@YA_NAEBVPxGeometry@physx@@AEBV?$PxTransformT@M@2@AEBVPxBoxGeometry@2@1AEBVBox@Gu@2@AEBV?$PxVec3T@M@2@MAEAUPxGeomSweepHit@2@V?$PxFlags@W4Enum@PxHitFlag@physx@@G@2@MPEAUPxQueryThreadContext@2@@Z 000000018000fac0 f   GuCCTSweepTests.obj
 0001:0000eda0       ?sweepCapsule_BoxGeom_Precise@@YA_NAEBVPxGeometry@physx@@AEBV?$PxTransformT@M@2@AEBVPxCapsuleGeometry@2@1AEBVCapsule@Gu@2@AEBV?$PxVec3T@M@2@MAEAUPxGeomSweepHit@2@V?$PxFlags@W4Enum@PxHitFlag@physx@@G@2@MPEAUPxQueryThreadContext@2@@Z 000000018000fda0 f   GuCCTSweepTests.obj
 0001:0000f400       ??0?$CacheMap@UCachedEdge@Gu@physx@@$0IA@@Gu@physx@@QEAA@XZ 0000000180010400 f i GuGeometryQuery.obj
 0001:0000f4c0       ??0?$CacheMap@UCachedVertex@Gu@physx@@$0IA@@Gu@physx@@QEAA@XZ 00000001800104c0 f i GuGeometryQuery.obj
 0001:0000f580       ??0MultiplePersistentContactManifold@Gu@physx@@QEAA@XZ 0000000180010580 f i GuGeometryQuery.obj
 0001:0000f5d0       ??0PCMMeshContactGeneration@Gu@physx@@QEAA@AEBT__m128@@0AEBVPxTransformV@aos@2@1AEAVMultiplePersistentContactManifold@12@AEAVPxContactBuffer@2@PEAV?$PxInlineArray@I$0DMA@V?$PxReflectionAllocator@I@physx@@@2@PEAVPxRenderOutput@2@@Z 00000001800105d0 f i GuGeometryQuery.obj
 0001:0000fef0       ??0PolygonalBox@Gu@physx@@QEAA@AEBV012@@Z 0000000180010ef0 f i GuGeometryQuery.obj
 0001:00010170       ??4MultiplePersistentContactManifold@Gu@physx@@QEAAAEAV012@$$QEAV012@@Z 0000000180011170 f i GuGeometryQuery.obj
 0001:00010480       ??4MultiplePersistentContactManifold@Gu@physx@@QEAAAEAV012@AEBV012@@Z 0000000180011480 f i GuGeometryQuery.obj
 0001:000104a0       ??_E?$SupportLocalImpl@VBoxV@Gu@physx@@@Gu@physx@@UEAAPEAXI@Z 00000001800114a0 f i GuGeometryQuery.obj
 0001:000104a0       ??_E?$SupportLocalImpl@VConvexHullNoScaleV@Gu@physx@@@Gu@physx@@UEAAPEAXI@Z 00000001800114a0 f i GuMTD.obj
 0001:000104a0       ??_E?$SupportLocalImpl@VConvexHullV@Gu@physx@@@Gu@physx@@UEAAPEAXI@Z 00000001800114a0 f i GuGeometryQuery.obj
 0001:000104a0       ??_E?$SupportLocalImpl@VTriangleV@Gu@physx@@@Gu@physx@@UEAAPEAXI@Z 00000001800114a0 f i GuPCMContactConvexCommon.obj
 0001:000104a0       ??_G?$SupportLocalImpl@VBoxV@Gu@physx@@@Gu@physx@@UEAAPEAXI@Z 00000001800114a0 f i GuGeometryQuery.obj
 0001:000104a0       ??_G?$SupportLocalImpl@VConvexHullNoScaleV@Gu@physx@@@Gu@physx@@UEAAPEAXI@Z 00000001800114a0 f i GuMTD.obj
 0001:000104a0       ??_G?$SupportLocalImpl@VConvexHullV@Gu@physx@@@Gu@physx@@UEAAPEAXI@Z 00000001800114a0 f i GuGeometryQuery.obj
 0001:000104a0       ??_G?$SupportLocalImpl@VTriangleV@Gu@physx@@@Gu@physx@@UEAAPEAXI@Z 00000001800114a0 f i GuPCMContactConvexCommon.obj
 0001:000104d0       ??_ESupportLocal@Gu@physx@@UEAAPEAXI@Z 00000001800114d0 f i GuGeometryQuery.obj
 0001:000104d0       ??_GSupportLocal@Gu@physx@@UEAAPEAXI@Z 00000001800114d0 f i GuGeometryQuery.obj
 0001:00010500       ?clearManifold@MultiplePersistentContactManifold@Gu@physx@@QEAAXXZ 0000000180011500 f i GuGeometryQuery.obj
 0001:00010560       ?computeGeomBounds@PxGeometryQuery@physx@@SAXAEAVPxBounds3@2@AEBVPxGeometry@2@AEBV?$PxTransformT@M@2@MMV?$PxFlags@W4Enum@PxGeometryQueryFlag@physx@@I@2@@Z 0000000180011560 f   GuGeometryQuery.obj
 0001:00010670       ?computePenetration@PxGeometryQuery@physx@@SA_NAEAV?$PxVec3T@M@2@AEAMAEBVPxGeometry@2@AEBV?$PxTransformT@M@2@23V?$PxFlags@W4Enum@PxGeometryQueryFlag@physx@@I@2@@Z 0000000180011670 f   GuGeometryQuery.obj
 0001:00010830       ?doSupport@?$SupportLocalImpl@VBoxV@Gu@physx@@@Gu@physx@@UEBA?AT__m128@@AEBT4@@Z 0000000180011830 f i GuGeometryQuery.obj
 0001:00010860       ?doSupport@?$SupportLocalImpl@VBoxV@Gu@physx@@@Gu@physx@@UEBAXAEBT__m128@@AEAT4@1@Z 0000000180011860 f i GuGeometryQuery.obj
 0001:000108b0       ?doSupport@?$SupportLocalImpl@VConvexHullV@Gu@physx@@@Gu@physx@@UEBA?AT__m128@@AEBT4@@Z 00000001800118b0 f i GuGeometryQuery.obj
 0001:00010990       ?doSupport@?$SupportLocalImpl@VConvexHullV@Gu@physx@@@Gu@physx@@UEBAXAEBT__m128@@AEAT4@1@Z 0000000180011990 f i GuGeometryQuery.obj
 0001:00010cf0       ?generateTriangleContacts@PxGeometryQuery@physx@@SA_NAEBVPxGeometry@2@AEBV?$PxTransformT@M@2@QEBV?$PxVec3T@M@2@IMMMAEAVPxContactBuffer@2@@Z 0000000180011cf0 f   GuGeometryQuery.obj
 0001:00012660       ?getEmptyManifold@MultiplePersistentContactManifold@Gu@physx@@QEAAPEAVSinglePersistentContactManifold@23@XZ 0000000180013660 f i GuGeometryQuery.obj
 0001:00012680       ?getManifold@MultiplePersistentContactManifold@Gu@physx@@QEAAPEAVSinglePersistentContactManifold@23@I@Z 0000000180013680 f i GuGeometryQuery.obj
 0001:000126a0       ?getUniqueID@PxCustomGeometry@physx@@SAIXZ 00000001800136a0 f   GuGeometryQuery.obj
 0001:000126c0       ?getWorldBounds@PxGeometryQuery@physx@@SA?AVPxBounds3@2@AEBVPxGeometry@2@AEBV?$PxTransformT@M@2@M@Z 00000001800136c0 f   GuGeometryQuery.obj
 0001:00012800       ?hillClimbing@ConvexHullV@Gu@physx@@QEBAIAEBT__m128@@@Z 0000000180013800 f i GuGeometryQuery.obj
 0001:00012a30       ?initialize@MultiplePersistentContactManifold@Gu@physx@@QEAAXXZ 0000000180013a30 f i GuGeometryQuery.obj
 0001:00012a90       ?invalidate@MultiplePersistentContactManifold@Gu@physx@@QEAAIAEBVPxTransformV@aos@3@AEBT__m128@@1@Z 0000000180013a90 f i GuGeometryQuery.obj
 0001:00012b00       ?invalidate@MultiplePersistentContactManifold@Gu@physx@@QEAAIAEBVPxTransformV@aos@3@AEBT__m128@@@Z 0000000180013b00 f i GuGeometryQuery.obj
 0001:00012b70       ?isFinite@?$PxQuatT@M@physx@@QEBA_NXZ 0000000180013b70 f i GuGeometryQuery.obj
 0001:00012be0       ?isFinite@?$PxVec3T@M@physx@@QEBA_NXZ 0000000180013be0 f i GuGeometryQuery.obj
 0001:00012c40       ?isUnit@?$PxQuatT@M@physx@@QEBA_NXZ 0000000180013c40 f i GuGeometryQuery.obj
 0001:00012cb0       ?isValid@?$PxTransformT@M@physx@@QEBA_NXZ 0000000180013cb0 f i GuGeometryQuery.obj
 0001:00012d20       ?isValid@PxGeometryQuery@physx@@SA_NAEBVPxGeometry@2@@Z 0000000180013d20 f   GuGeometryQuery.obj
 0001:00013010       ?maxTransformPositionDelta@MultiplePersistentContactManifold@Gu@physx@@QEAA?AT__m128@@AEBT4@@Z 0000000180014010 f i GuGeometryQuery.obj
 0001:00013050       ?maxTransformQuatDelta@MultiplePersistentContactManifold@Gu@physx@@QEAA?AT__m128@@AEBT4@@Z 0000000180014050 f i GuGeometryQuery.obj
 0001:00013090       ?overlap@PxGeometryQuery@physx@@SA_NAEBVPxGeometry@2@AEBV?$PxTransformT@M@2@01V?$PxFlags@W4Enum@PxGeometryQueryFlag@physx@@I@2@PEAUPxQueryThreadContext@2@@Z 0000000180014090 f   GuGeometryQuery.obj
 0001:000131e0       ?pointDistance@PxGeometryQuery@physx@@SAMAEBV?$PxVec3T@M@2@AEBVPxGeometry@2@AEBV?$PxTransformT@M@2@PEAV32@PEAIV?$PxFlags@W4Enum@PxGeometryQueryFlag@physx@@I@2@@Z 00000001800141e0 f   GuGeometryQuery.obj
 0001:000139c0       ?populateVerts@?$SupportLocalImpl@VBoxV@Gu@physx@@@Gu@physx@@UEBAXPEBEIPEBV?$PxVec3T@M@3@PEAT__m128@@@Z 00000001800149c0 f i GuGeometryQuery.obj
 0001:00013a00       ?populateVerts@?$SupportLocalImpl@VConvexHullV@Gu@physx@@@Gu@physx@@UEBAXPEBEIPEBV?$PxVec3T@M@3@PEAT__m128@@@Z 0000000180014a00 f i GuGeometryQuery.obj
 0001:00013a60       ?raycast@PxGeometryQuery@physx@@SAIAEBV?$PxVec3T@M@2@0AEBVPxGeometry@2@AEBV?$PxTransformT@M@2@MV?$PxFlags@W4Enum@PxHitFlag@physx@@G@2@IPEIAUPxGeomRaycastHit@2@IV?$PxFlags@W4Enum@PxGeometryQueryFlag@physx@@I@2@PEAUPxQueryThreadContext@2@@Z 0000000180014a60 f   GuGeometryQuery.obj
 0001:00013d30       ?reduceManifoldContactsInDifferentPatches@MultiplePersistentContactManifold@Gu@physx@@QEAAIPEAPEAUPCMContactPatch@23@IPEAVMeshPersistentContact@23@IAEBT__m128@@@Z 0000000180014d30 f i GuGeometryQuery.obj
 0001:00013ea0       ?refineContactPatchConnective@MultiplePersistentContactManifold@Gu@physx@@QEAAXPEAPEAUPCMContactPatch@23@IPEAVMeshPersistentContact@23@AEBT__m128@@@Z 0000000180014ea0 f i GuGeometryQuery.obj
 0001:00013f90       ?refreshManifold@MultiplePersistentContactManifold@Gu@physx@@QEAAXAEBVPxMatTransformV@aos@3@AEBT__m128@@1@Z 0000000180014f90 f i GuGeometryQuery.obj
 0001:00014090       ?setRelativeTransform@MultiplePersistentContactManifold@Gu@physx@@QEAAXAEBVPxTransformV@aos@3@@Z 0000000180015090 f i GuGeometryQuery.obj
 0001:000140a0       ?supportVertexIndex@ConvexHullV@Gu@physx@@QEBAIAEBT__m128@@@Z 00000001800150a0 f i GuGeometryQuery.obj
 0001:00014320       ?sweep@PxGeometryQuery@physx@@SA_NAEBV?$PxVec3T@M@2@MAEBVPxGeometry@2@AEBV?$PxTransformT@M@2@12AEAUPxGeomSweepHit@2@V?$PxFlags@W4Enum@PxHitFlag@physx@@G@2@MV?$PxFlags@W4Enum@PxGeometryQueryFlag@physx@@I@2@PEAUPxQueryThreadContext@2@@Z 0000000180015320 f   GuGeometryQuery.obj
 0001:00014930       ?toBuffer@MultiplePersistentContactManifold@Gu@physx@@QEAAXPEIAE@Z 0000000180015930 f i GuGeometryQuery.obj
 0001:00014a10       ?computeBoxPoints@Gu@physx@@YAXAEBVPxBounds3@2@PEIAV?$PxVec3T@M@2@@Z 0000000180015a10 f   GuInternal.obj
 0001:00014ab0       ?computeSweptBox@Gu@physx@@YAXAEAVBox@12@AEBV?$PxVec3T@M@2@1AEBV?$PxMat33T@M@2@1M@Z 0000000180015ab0 f   GuInternal.obj
 0001:00014ff0       ?getPlane@Gu@physx@@YA?AVPxPlane@2@AEBV?$PxTransformT@M@2@@Z 0000000180015ff0 f   GuInternal.obj
 0001:00015550       ??_ECallbackRaycast@RTree@Gu@physx@@UEAAPEAXI@Z 0000000180016550 f i GuMidphaseRTree.obj
 0001:00015550       ??_ECallbackRefit@RTree@Gu@physx@@UEAAPEAXI@Z 0000000180016550 f i GuTriangleMeshRTree.obj
 0001:00015550       ??_EPxInsertionCallback@physx@@MEAAPEAXI@Z 0000000180016550 f i GuMeshFactory.obj
 0001:00015550       ??_GCallbackRaycast@RTree@Gu@physx@@UEAAPEAXI@Z 0000000180016550 f i GuMidphaseRTree.obj
 0001:00015550       ??_GCallbackRefit@RTree@Gu@physx@@UEAAPEAXI@Z 0000000180016550 f i GuTriangleMeshRTree.obj
 0001:00015550       ??_GPxInsertionCallback@physx@@MEAAPEAXI@Z 0000000180016550 f i GuMeshFactory.obj
 0001:00015580       ??$copy@V?$PxReflectionAllocator@USlab@NodeAllocator@Gu@physx@@@physx@@@?$PxArray@USlab@NodeAllocator@Gu@physx@@V?$PxReflectionAllocator@USlab@NodeAllocator@Gu@physx@@@4@@physx@@IEAAXAEBV01@@Z 0000000180016580 f i GuMeshFactory.obj
 0001:00015640       ??0AABBTreeBounds@Gu@physx@@QEAA@XZ 0000000180016640 f i GuMeshFactory.obj
 0001:00015650       ??0AABBTreeBuildNode@Gu@physx@@QEAA@AEBV012@@Z 0000000180016650 f i GuMeshFactory.obj
 0001:00015650       ??4AABBTreeBuildNode@Gu@physx@@QEAAAEAV012@AEBV012@@Z 0000000180016650 f i GuMeshFactory.obj
 0001:00015690       ??0AABBTreeBuildParams@Gu@physx@@QEAA@IIPEBVAABBTreeBounds@12@W4BVHBuildStrategy@12@@Z 0000000180016690 f i GuMeshFactory.obj
 0001:000156b0       ??0MeshFactory@Gu@physx@@QEAA@XZ 00000001800166b0 f   GuMeshFactory.obj
 0001:000158b0       ??0NodeAllocator@Gu@physx@@QEAA@AEBV012@@Z 00000001800168b0 f i GuMeshFactory.obj
 0001:000158f0       ??0TriangleMeshData@Gu@physx@@QEAA@XZ 00000001800168f0 f i GuMeshFactory.obj
 0001:00015a00       ??1AABBTreeBounds@Gu@physx@@QEAA@XZ 0000000180016a00 f i GuMeshFactory.obj
 0001:00015a10       ??1AABBTreeBuildParams@Gu@physx@@QEAA@XZ 0000000180016a10 f i GuMeshFactory.obj
 0001:00015a10       ?reset@AABBTreeBuildParams@Gu@physx@@QEAAXXZ 0000000180016a10 f i GuMeshFactory.obj
 0001:00015a60       ??1CollisionMeshMappingData@Gu@physx@@UEAA@XZ 0000000180016a60 f i GuMeshFactory.obj
 0001:00015ba0       ??1MeshDataBase@Gu@physx@@UEAA@XZ 0000000180016ba0 f i GuMeshFactory.obj
 0001:00015ce0       ??1MeshFactory@Gu@physx@@MEAA@XZ 0000000180016ce0 f   GuMeshFactory.obj
 0001:00015e10       ??1RTreeTriangleData@Gu@physx@@UEAA@XZ 0000000180016e10 f i GuMeshFactory.obj
 0001:00015e80       ??1SoftBodyCollisionData@Gu@physx@@UEAA@XZ 0000000180016e80 f i GuMeshFactory.obj
 0001:00015fb0       ??1SoftBodySimulationData@Gu@physx@@UEAA@XZ 0000000180016fb0 f i GuMeshFactory.obj
 0001:000160c0       ??1TetrahedronMeshData@Gu@physx@@QEAA@XZ 00000001800170c0 f i GuMeshFactory.obj
 0001:00016150       ??1TriangleMeshData@Gu@physx@@UEAA@XZ 0000000180017150 f i GuMeshFactory.obj
 0001:00016280       ??4NodeAllocator@Gu@physx@@QEAAAEAV012@AEBV012@@Z 0000000180017280 f i GuMeshFactory.obj
 0001:00016330       ??_EMeshFactory@Gu@physx@@MEAAPEAXI@Z 0000000180017330 f i GuMeshFactory.obj
 0001:00016440       ??_FAABBTreeBuildParams@Gu@physx@@QEAAXXZ 0000000180017440 f i GuMeshFactory.obj
 0001:00016460       ??_EBV4TriangleData@Gu@physx@@UEAAPEAXI@Z 0000000180017460 f i GuMeshFactory.obj
 0001:00016460       ??_GBV4TriangleData@Gu@physx@@UEAAPEAXI@Z 0000000180017460 f i GuMeshFactory.obj
 0001:000164f0       ??_ECollisionMeshMappingData@Gu@physx@@UEAAPEAXI@Z 00000001800174f0 f i GuMeshFactory.obj
 0001:000164f0       ??_GCollisionMeshMappingData@Gu@physx@@UEAAPEAXI@Z 00000001800174f0 f i GuMeshFactory.obj
 0001:00016560       ??_EMeshDataBase@Gu@physx@@UEAAPEAXI@Z 0000000180017560 f i GuMeshFactory.obj
 0001:00016560       ??_GMeshDataBase@Gu@physx@@UEAAPEAXI@Z 0000000180017560 f i GuMeshFactory.obj
 0001:000165d0       ??_EPxCollisionMeshMappingData@physx@@UEAAPEAXI@Z 00000001800175d0 f i GuMeshFactory.obj
 0001:000165d0       ??_GPxCollisionMeshMappingData@physx@@UEAAPEAXI@Z 00000001800175d0 f i GuMeshFactory.obj
 0001:00016620       ??_ERTreeTriangleData@Gu@physx@@UEAAPEAXI@Z 0000000180017620 f i GuMeshFactory.obj
 0001:00016620       ??_GRTreeTriangleData@Gu@physx@@UEAAPEAXI@Z 0000000180017620 f i GuMeshFactory.obj
 0001:000166d0       ??_ESoftBodyCollisionData@Gu@physx@@UEAAPEAXI@Z 00000001800176d0 f i GuMeshFactory.obj
 0001:000166d0       ??_GSoftBodyCollisionData@Gu@physx@@UEAAPEAXI@Z 00000001800176d0 f i GuMeshFactory.obj
 0001:00016740       ??_ESoftBodySimulationData@Gu@physx@@UEAAPEAXI@Z 0000000180017740 f i GuMeshFactory.obj
 0001:00016740       ??_GSoftBodySimulationData@Gu@physx@@UEAAPEAXI@Z 0000000180017740 f i GuMeshFactory.obj
 0001:000167b0       ??_ETriangleMeshData@Gu@physx@@UEAAPEAXI@Z 00000001800177b0 f i GuMeshFactory.obj
 0001:000167b0       ??_GTriangleMeshData@Gu@physx@@UEAAPEAXI@Z 00000001800177b0 f i GuMeshFactory.obj
 0001:00016820       ??_V@YAXPEAX_K@Z           0000000180017820 f i LIBCMT:delete_array_size.obj
 0001:00016820       ?__global_delete@@YAXPEAX_K@Z 0000000180017820 f i GuMeshFactory.obj
 0001:00016830       ?addBVH@MeshFactory@Gu@physx@@QEAAXPEAVBVH@23@_N@Z 0000000180017830 f   GuMeshFactory.obj
 0001:000168d0       ?addConvexMesh@MeshFactory@Gu@physx@@QEAAXPEAVConvexMesh@23@_N@Z 00000001800178d0 f   GuMeshFactory.obj
 0001:00016970       ?addFactoryListener@MeshFactory@Gu@physx@@QEAAXAEAVMeshFactoryListener@23@@Z 0000000180017970 f   GuMeshFactory.obj
 0001:000169e0       ?addHeightField@MeshFactory@Gu@physx@@QEAAXPEAVHeightField@23@_N@Z 00000001800179e0 f   GuMeshFactory.obj
 0001:00016a80       ?addSoftBodyMesh@MeshFactory@Gu@physx@@QEAAXPEAVSoftBodyMesh@23@_N@Z 0000000180017a80 f   GuMeshFactory.obj
 0001:00016b20       ?addTetrahedronMesh@MeshFactory@Gu@physx@@QEAAXPEAVTetrahedronMesh@23@_N@Z 0000000180017b20 f   GuMeshFactory.obj
 0001:00016bc0       ?addTriangleMesh@MeshFactory@Gu@physx@@QEAAXPEAVTriangleMesh@23@_N@Z 0000000180017bc0 f   GuMeshFactory.obj
 0001:00016c60       ?allocate@?$PxArray@USlab@NodeAllocator@Gu@physx@@V?$PxReflectionAllocator@USlab@NodeAllocator@Gu@physx@@@4@@physx@@IEAAPEAUSlab@NodeAllocator@Gu@2@I@Z 0000000180017c60 f i GuMeshFactory.obj
 0001:00016d10       ?allocateAdjacencies@TriangleMeshData@Gu@physx@@QEAAPEAIXZ 0000000180017d10 f i GuMeshFactory.obj
 0001:00016d80       ?allocateExtraTrigData@TriangleMeshData@Gu@physx@@QEAAPEAEXZ 0000000180017d80 f i GuMeshFactory.obj
 0001:00016df0       ?allocateFaceRemap@TriangleMeshData@Gu@physx@@QEAAPEAIXZ 0000000180017df0 f i GuMeshFactory.obj
 0001:00016e60       ?allocateGridModelData@SoftBodySimulationData@Gu@physx@@QEAAXIIIIIII@Z 0000000180017e60 f i GuMeshFactory.obj
 0001:000170d0       ?allocateMaterials@TetrahedronMeshData@Gu@physx@@QEAAPEAGXZ 00000001800180d0 f i GuMeshFactory.obj
 0001:00017140       ?allocateMaterials@TriangleMeshData@Gu@physx@@QEAAPEAGXZ 0000000180018140 f i GuMeshFactory.obj
 0001:000171b0       ?allocateTetrahedrons@TetrahedronMeshData@Gu@physx@@QEAAXII@Z 00000001800181b0 f i GuMeshFactory.obj
 0001:00017240       ?allocateTriangles@TriangleMeshData@Gu@physx@@QEAAPEAXI_NI@Z 0000000180018240 f i GuMeshFactory.obj
 0001:00017330       ?allocateVertices@MeshDataBase@Gu@physx@@QEAAPEAV?$PxVec3T@M@3@I@Z 0000000180018330 f i GuMeshFactory.obj
 0001:000173a0       ?allocateVertices@TetrahedronMeshData@Gu@physx@@QEAAPEAV?$PxVec3T@M@3@II@Z 00000001800183a0 f i GuMeshFactory.obj
 0001:00017440       ?allocatemappingData@CollisionMeshMappingData@Gu@physx@@QEAAXIIII@Z 0000000180018440 f i GuMeshFactory.obj
 0001:00017610       ?create@?$PxHashBase@PEAVBVH@Gu@physx@@PEAV123@U?$PxHash@PEAVBVH@Gu@physx@@@3@UGetKey@?$PxHashSetBase@PEAVBVH@Gu@physx@@U?$PxHash@PEAVBVH@Gu@physx@@@3@VPxAllocator@3@$00@3@VPxAllocator@3@$00@physx@@QEAAPEAPEAVBVH@Gu@2@AEBQEAV342@AEA_N@Z 0000000180018610 f i GuMeshFactory.obj
 0001:00017610       ?create@?$PxHashBase@PEAVConvexMesh@Gu@physx@@PEAV123@U?$PxHash@PEAVConvexMesh@Gu@physx@@@3@UGetKey@?$PxHashSetBase@PEAVConvexMesh@Gu@physx@@U?$PxHash@PEAVConvexMesh@Gu@physx@@@3@VPxAllocator@3@$00@3@VPxAllocator@3@$00@physx@@QEAAPEAPEAVConvexMesh@Gu@2@AEBQEAV342@AEA_N@Z 0000000180018610 f i GuMeshFactory.obj
 0001:00017610       ?create@?$PxHashBase@PEAVHeightField@Gu@physx@@PEAV123@U?$PxHash@PEAVHeightField@Gu@physx@@@3@UGetKey@?$PxHashSetBase@PEAVHeightField@Gu@physx@@U?$PxHash@PEAVHeightField@Gu@physx@@@3@VPxAllocator@3@$00@3@VPxAllocator@3@$00@physx@@QEAAPEAPEAVHeightField@Gu@2@AEBQEAV342@AEA_N@Z 0000000180018610 f i GuMeshFactory.obj
 0001:00017610       ?create@?$PxHashBase@PEAVSoftBodyMesh@Gu@physx@@PEAV123@U?$PxHash@PEAVSoftBodyMesh@Gu@physx@@@3@UGetKey@?$PxHashSetBase@PEAVSoftBodyMesh@Gu@physx@@U?$PxHash@PEAVSoftBodyMesh@Gu@physx@@@3@VPxAllocator@3@$00@3@VPxAllocator@3@$00@physx@@QEAAPEAPEAVSoftBodyMesh@Gu@2@AEBQEAV342@AEA_N@Z 0000000180018610 f i GuMeshFactory.obj
 0001:00017610       ?create@?$PxHashBase@PEAVTetrahedronMesh@Gu@physx@@PEAV123@U?$PxHash@PEAVTetrahedronMesh@Gu@physx@@@3@UGetKey@?$PxHashSetBase@PEAVTetrahedronMesh@Gu@physx@@U?$PxHash@PEAVTetrahedronMesh@Gu@physx@@@3@VPxAllocator@3@$00@3@VPxAllocator@3@$00@physx@@QEAAPEAPEAVTetrahedronMesh@Gu@2@AEBQEAV342@AEA_N@Z 0000000180018610 f i GuMeshFactory.obj
 0001:00017610       ?create@?$PxHashBase@PEAVTriangleMesh@Gu@physx@@PEAV123@U?$PxHash@PEAVTriangleMesh@Gu@physx@@@3@UGetKey@?$PxHashSetBase@PEAVTriangleMesh@Gu@physx@@U?$PxHash@PEAVTriangleMesh@Gu@physx@@@3@VPxAllocator@3@$00@3@VPxAllocator@3@$00@physx@@QEAAPEAPEAVTriangleMesh@Gu@2@AEBQEAV342@AEA_N@Z 0000000180018610 f i GuMeshFactory.obj
 0001:000177a0       ?createBVH@MeshFactory@Gu@physx@@IEAAPEAVPxBVH@3@AEAVBVHData@23@@Z 00000001800187a0 f   GuMeshFactory.obj
 0001:00017900       ?createBVH@MeshFactory@Gu@physx@@QEAAPEAVPxBVH@3@AEAVPxInputStream@3@@Z 0000000180018900 f   GuMeshFactory.obj
 0001:00017a80       ?createBVH@MeshFactory@Gu@physx@@QEAAPEAVPxBVH@3@PEAX@Z 0000000180018a80 f   GuMeshFactory.obj
 0001:00017a90       ?createConvexMesh@MeshFactory@Gu@physx@@IEAAPEAVPxConvexMesh@3@AEAUConvexHullInitData@23@@Z 0000000180018a90 f   GuMeshFactory.obj
 0001:00017be0       ?createConvexMesh@MeshFactory@Gu@physx@@QEAAPEAVPxConvexMesh@3@AEAVPxInputStream@3@@Z 0000000180018be0 f   GuMeshFactory.obj
 0001:00017d40       ?createConvexMesh@MeshFactory@Gu@physx@@QEAAPEAVPxConvexMesh@3@PEAX@Z 0000000180018d40 f   GuMeshFactory.obj
 0001:00017d50       ?createHeightField@MeshFactory@Gu@physx@@QEAAPEAVPxHeightField@3@AEAVPxInputStream@3@@Z 0000000180018d50 f   GuMeshFactory.obj
 0001:00017ed0       ?createHeightField@MeshFactory@Gu@physx@@QEAAPEAVPxHeightField@3@PEAX@Z 0000000180018ed0 f   GuMeshFactory.obj
 0001:00018030       ?createSoftBodyMesh@MeshFactory@Gu@physx@@IEAAPEAVPxSoftBodyMesh@3@AEAVSoftBodyMeshData@23@@Z 0000000180019030 f   GuMeshFactory.obj
 0001:00018180       ?createSoftBodyMesh@MeshFactory@Gu@physx@@QEAAPEAVPxSoftBodyMesh@3@AEAVPxInputStream@3@@Z 0000000180019180 f   GuMeshFactory.obj
 0001:00018740       ?createSoftBodyMesh@MeshFactory@Gu@physx@@QEAAPEAVPxSoftBodyMesh@3@PEAX@Z 0000000180019740 f   GuMeshFactory.obj
 0001:00018750       ?createTetrahedronMesh@MeshFactory@Gu@physx@@IEAAPEAVPxTetrahedronMesh@3@AEAVTetrahedronMeshData@23@@Z 0000000180019750 f   GuMeshFactory.obj
 0001:000188b0       ?createTetrahedronMesh@MeshFactory@Gu@physx@@QEAAPEAVPxTetrahedronMesh@3@AEAVPxInputStream@3@@Z 00000001800198b0 f   GuMeshFactory.obj
 0001:00018910       ?createTetrahedronMesh@MeshFactory@Gu@physx@@QEAAPEAVPxTetrahedronMesh@3@PEAX@Z 0000000180019910 f   GuMeshFactory.obj
 0001:00018920       ?createTriangleMesh@MeshFactory@Gu@physx@@IEAAPEAVPxTriangleMesh@3@AEAVTriangleMeshData@23@@Z 0000000180019920 f   GuMeshFactory.obj
 0001:00018b20       ?createTriangleMesh@MeshFactory@Gu@physx@@QEAAPEAVPxTriangleMesh@3@AEAVPxInputStream@3@@Z 0000000180019b20 f   GuMeshFactory.obj
 0001:00018b80       ?createTriangleMesh@MeshFactory@Gu@physx@@QEAAPEAVPxTriangleMesh@3@PEAX@Z 0000000180019b80 f   GuMeshFactory.obj
 0001:00018b90       ?erase@?$PxHashBase@PEAVBVH@Gu@physx@@PEAV123@U?$PxHash@PEAVBVH@Gu@physx@@@3@UGetKey@?$PxHashSetBase@PEAVBVH@Gu@physx@@U?$PxHash@PEAVBVH@Gu@physx@@@3@VPxAllocator@3@$00@3@VPxAllocator@3@$00@physx@@QEAA_NAEBQEAVBVH@Gu@2@@Z 0000000180019b90 f i GuMeshFactory.obj
 0001:00018b90       ?erase@?$PxHashBase@PEAVConvexMesh@Gu@physx@@PEAV123@U?$PxHash@PEAVConvexMesh@Gu@physx@@@3@UGetKey@?$PxHashSetBase@PEAVConvexMesh@Gu@physx@@U?$PxHash@PEAVConvexMesh@Gu@physx@@@3@VPxAllocator@3@$00@3@VPxAllocator@3@$00@physx@@QEAA_NAEBQEAVConvexMesh@Gu@2@@Z 0000000180019b90 f i GuMeshFactory.obj
 0001:00018b90       ?erase@?$PxHashBase@PEAVHeightField@Gu@physx@@PEAV123@U?$PxHash@PEAVHeightField@Gu@physx@@@3@UGetKey@?$PxHashSetBase@PEAVHeightField@Gu@physx@@U?$PxHash@PEAVHeightField@Gu@physx@@@3@VPxAllocator@3@$00@3@VPxAllocator@3@$00@physx@@QEAA_NAEBQEAVHeightField@Gu@2@@Z 0000000180019b90 f i GuMeshFactory.obj
 0001:00018b90       ?erase@?$PxHashBase@PEAVSoftBodyMesh@Gu@physx@@PEAV123@U?$PxHash@PEAVSoftBodyMesh@Gu@physx@@@3@UGetKey@?$PxHashSetBase@PEAVSoftBodyMesh@Gu@physx@@U?$PxHash@PEAVSoftBodyMesh@Gu@physx@@@3@VPxAllocator@3@$00@3@VPxAllocator@3@$00@physx@@QEAA_NAEBQEAVSoftBodyMesh@Gu@2@@Z 0000000180019b90 f i GuMeshFactory.obj
 0001:00018b90       ?erase@?$PxHashBase@PEAVTetrahedronMesh@Gu@physx@@PEAV123@U?$PxHash@PEAVTetrahedronMesh@Gu@physx@@@3@UGetKey@?$PxHashSetBase@PEAVTetrahedronMesh@Gu@physx@@U?$PxHash@PEAVTetrahedronMesh@Gu@physx@@@3@VPxAllocator@3@$00@3@VPxAllocator@3@$00@physx@@QEAA_NAEBQEAVTetrahedronMesh@Gu@2@@Z 0000000180019b90 f i GuMeshFactory.obj
 0001:00018b90       ?erase@?$PxHashBase@PEAVTriangleMesh@Gu@physx@@PEAV123@U?$PxHash@PEAVTriangleMesh@Gu@physx@@@3@UGetKey@?$PxHashSetBase@PEAVTriangleMesh@Gu@physx@@U?$PxHash@PEAVTriangleMesh@Gu@physx@@@3@VPxAllocator@3@$00@3@VPxAllocator@3@$00@physx@@QEAA_NAEBQEAVTriangleMesh@Gu@2@@Z 0000000180019b90 f i GuMeshFactory.obj
 0001:00018d10       ?getBVHs@MeshFactory@Gu@physx@@QEBAIPEAPEAVPxBVH@3@II@Z 0000000180019d10 f   GuMeshFactory.obj
 0001:00018db0       ?getBounds@AABBTreeBounds@Gu@physx@@QEAAPEAVPxBounds3@3@XZ 0000000180019db0 f i GuMeshFactory.obj
 0001:00018db0       ?getBounds@AABBTreeBounds@Gu@physx@@QEBAPEBVPxBounds3@3@XZ 0000000180019db0 f i GuMeshFactory.obj
 0001:00018dc0       ?getConvexMeshes@MeshFactory@Gu@physx@@QEBAIPEAPEAVPxConvexMesh@3@II@Z 0000000180019dc0 f   GuMeshFactory.obj
 0001:00018e60       ?getHeightFields@MeshFactory@Gu@physx@@QEBAIPEAPEAVPxHeightField@3@II@Z 0000000180019e60 f   GuMeshFactory.obj
 0001:00018f00       ?getNbBVHs@MeshFactory@Gu@physx@@QEBAIXZ 0000000180019f00 f   GuMeshFactory.obj
 0001:00018f40       ?getNbConvexMeshes@MeshFactory@Gu@physx@@QEBAIXZ 0000000180019f40 f   GuMeshFactory.obj
 0001:00018f80       ?getNbHeightFields@MeshFactory@Gu@physx@@QEBAIXZ 0000000180019f80 f   GuMeshFactory.obj
 0001:00018fc0       ?getNbPrimitives@AABBTreeBuildNode@Gu@physx@@QEBAIXZ 0000000180019fc0 f i GuMeshFactory.obj
 0001:00018fc0       ?getNbRuntimePrimitives@AABBTreeBuildNode@Gu@physx@@QEBAIXZ 0000000180019fc0 f i GuMeshFactory.obj
 0001:00018fd0       ?getNbSoftBodyMeshes@MeshFactory@Gu@physx@@QEBAIXZ 0000000180019fd0 f   GuMeshFactory.obj
 0001:00019010       ?getNbTetrahedronMeshes@MeshFactory@Gu@physx@@QEBAIXZ 000000018001a010 f   GuMeshFactory.obj
 0001:00019050       ?getNbTriangleMeshes@MeshFactory@Gu@physx@@QEBAIXZ 000000018001a050 f   GuMeshFactory.obj
 0001:00019090       ?getNeg@AABBTreeBuildNode@Gu@physx@@QEBAPEBV123@XZ 000000018001a090 f i GuMeshFactory.obj
 0001:000190b0       ?getPrimitives@AABBTreeBuildNode@Gu@physx@@QEAAPEAIPEAI@Z 000000018001a0b0 f i GuMeshFactory.obj
 0001:000190b0       ?getPrimitives@AABBTreeBuildNode@Gu@physx@@QEBAPEBIPEBI@Z 000000018001a0b0 f i GuMeshFactory.obj
 0001:000190c0       ?getSoftBodyMeshes@MeshFactory@Gu@physx@@QEBAIPEAPEAVPxSoftBodyMesh@3@II@Z 000000018001a0c0 f   GuMeshFactory.obj
 0001:00019160       ?getTetrahedronMeshes@MeshFactory@Gu@physx@@QEBAIPEAPEAVPxTetrahedronMesh@3@II@Z 000000018001a160 f   GuMeshFactory.obj
 0001:000191f0       ?getTriangleMeshes@MeshFactory@Gu@physx@@QEBAIPEAPEAVPxTriangleMesh@3@II@Z 000000018001a1f0 f   GuMeshFactory.obj
 0001:00019280       ?growAndPushBack@?$PxArray@PEAVMeshFactoryListener@Gu@physx@@V?$PxReflectionAllocator@PEAVMeshFactoryListener@Gu@physx@@@3@@physx@@IEAAAEAPEAVMeshFactoryListener@Gu@2@AEBQEAV342@@Z 000000018001a280 f i GuMeshFactory.obj
 0001:000193c0       ?isLeaf@AABBTreeBuildNode@Gu@physx@@QEBA_NXZ 000000018001a3c0 f i GuMeshFactory.obj
 0001:0001ada0       ?moveFrom@AABBTreeBounds@Gu@physx@@QEAAXAEAV123@@Z 000000018001bda0 f i GuMeshFactory.obj
 0001:0001adb0       ?notifyFactoryListener@MeshFactory@Gu@physx@@QEAAXPEBVPxBase@3@G@Z 000000018001bdb0 f   GuMeshFactory.obj
 0001:0001ae20       ?notifyListenersAdd@MeshFactory@Gu@physx@@IEAAXPEBVPxBase@3@@Z 000000018001be20 f   GuMeshFactory.obj
 0001:0001ae70       ?notifyListenersRemove@MeshFactory@Gu@physx@@IEAAXPEBVPxBase@3@@Z 000000018001be70 f   GuMeshFactory.obj
 0001:0001aec0       ?ownsMemory@AABBTreeBounds@Gu@physx@@QEBA_NXZ 000000018001bec0 f i GuMeshFactory.obj
 0001:0001b1a0       ?recreate@?$PxArray@USlab@NodeAllocator@Gu@physx@@V?$PxReflectionAllocator@USlab@NodeAllocator@Gu@physx@@@4@@physx@@IEAAXI@Z 000000018001c1a0 f i GuMeshFactory.obj
 0001:0001b250       ?release@CollisionMeshMappingData@Gu@physx@@UEAAXXZ 000000018001c250 f i GuMeshFactory.obj
 0001:0001b270       ?release@MeshFactory@Gu@physx@@QEAAXXZ 000000018001c270 f   GuMeshFactory.obj
 0001:0001b370       ?remove@MeshFactory@Gu@physx@@QEAA_NAEAVPxBase@3@@Z 000000018001c370 f   GuMeshFactory.obj
 0001:0001b3c0       ?removeBVH@MeshFactory@Gu@physx@@QEAA_NAEAVPxBVH@3@@Z 000000018001c3c0 f   GuMeshFactory.obj
 0001:0001b450       ?removeConvexMesh@MeshFactory@Gu@physx@@QEAA_NAEAVPxConvexMesh@3@@Z 000000018001c450 f   GuMeshFactory.obj
 0001:0001b4e0       ?removeFactoryListener@MeshFactory@Gu@physx@@QEAAXAEAVMeshFactoryListener@23@@Z 000000018001c4e0 f   GuMeshFactory.obj
 0001:0001b570       ?removeHeightField@MeshFactory@Gu@physx@@QEAA_NAEAVPxHeightField@3@@Z 000000018001c570 f   GuMeshFactory.obj
 0001:0001b600       ?removeSoftBodyMesh@MeshFactory@Gu@physx@@QEAA_NAEAVPxSoftBodyMesh@3@@Z 000000018001c600 f   GuMeshFactory.obj
 0001:0001b690       ?removeTetrahedronMesh@MeshFactory@Gu@physx@@QEAA_NAEAVPxTetrahedronMesh@3@@Z 000000018001c690 f   GuMeshFactory.obj
 0001:0001b720       ?removeTriangleMesh@MeshFactory@Gu@physx@@QEAA_NAEAVPxTriangleMesh@3@@Z 000000018001c720 f   GuMeshFactory.obj
 0001:0001b7b0       ?reserveInternal@?$PxHashBase@PEAVBVH@Gu@physx@@PEAV123@U?$PxHash@PEAVBVH@Gu@physx@@@3@UGetKey@?$PxHashSetBase@PEAVBVH@Gu@physx@@U?$PxHash@PEAVBVH@Gu@physx@@@3@VPxAllocator@3@$00@3@VPxAllocator@3@$00@physx@@AEAAXI@Z 000000018001c7b0 f i GuMeshFactory.obj
 0001:0001b7b0       ?reserveInternal@?$PxHashBase@PEAVConvexMesh@Gu@physx@@PEAV123@U?$PxHash@PEAVConvexMesh@Gu@physx@@@3@UGetKey@?$PxHashSetBase@PEAVConvexMesh@Gu@physx@@U?$PxHash@PEAVConvexMesh@Gu@physx@@@3@VPxAllocator@3@$00@3@VPxAllocator@3@$00@physx@@AEAAXI@Z 000000018001c7b0 f i GuMeshFactory.obj
 0001:0001b7b0       ?reserveInternal@?$PxHashBase@PEAVHeightField@Gu@physx@@PEAV123@U?$PxHash@PEAVHeightField@Gu@physx@@@3@UGetKey@?$PxHashSetBase@PEAVHeightField@Gu@physx@@U?$PxHash@PEAVHeightField@Gu@physx@@@3@VPxAllocator@3@$00@3@VPxAllocator@3@$00@physx@@AEAAXI@Z 000000018001c7b0 f i GuMeshFactory.obj
 0001:0001b7b0       ?reserveInternal@?$PxHashBase@PEAVSoftBodyMesh@Gu@physx@@PEAV123@U?$PxHash@PEAVSoftBodyMesh@Gu@physx@@@3@UGetKey@?$PxHashSetBase@PEAVSoftBodyMesh@Gu@physx@@U?$PxHash@PEAVSoftBodyMesh@Gu@physx@@@3@VPxAllocator@3@$00@3@VPxAllocator@3@$00@physx@@AEAAXI@Z 000000018001c7b0 f i GuMeshFactory.obj
 0001:0001b7b0       ?reserveInternal@?$PxHashBase@PEAVTetrahedronMesh@Gu@physx@@PEAV123@U?$PxHash@PEAVTetrahedronMesh@Gu@physx@@@3@UGetKey@?$PxHashSetBase@PEAVTetrahedronMesh@Gu@physx@@U?$PxHash@PEAVTetrahedronMesh@Gu@physx@@@3@VPxAllocator@3@$00@3@VPxAllocator@3@$00@physx@@AEAAXI@Z 000000018001c7b0 f i GuMeshFactory.obj
 0001:0001b7b0       ?reserveInternal@?$PxHashBase@PEAVTriangleMesh@Gu@physx@@PEAV123@U?$PxHash@PEAVTriangleMesh@Gu@physx@@@3@UGetKey@?$PxHashSetBase@PEAVTriangleMesh@Gu@physx@@U?$PxHash@PEAVTriangleMesh@Gu@physx@@@3@VPxAllocator@3@$00@3@VPxAllocator@3@$00@physx@@AEAAXI@Z 000000018001c7b0 f i GuMeshFactory.obj
 0001:0001b980       ?setBounds@AABBTreeBounds@Gu@physx@@QEAAXPEAVPxBounds3@3@@Z 000000018001c980 f i GuMeshFactory.obj
 0001:0001b990       ?setNbRunTimePrimitives@AABBTreeBuildNode@Gu@physx@@QEAAXI@Z 000000018001c990 f i GuMeshFactory.obj
 0001:0001b9a0       ?takeOwnership@AABBTreeBounds@Gu@physx@@QEAAXXZ 000000018001c9a0 f i GuMeshFactory.obj
 0001:0001b9b0       getInsertionCallback       000000018001c9b0 f   GuMeshFactory.obj
 0001:0001b9c0       ??4BigConvexData@physx@@QEAAAEAV01@AEBV01@@Z 000000018001c9c0 f i GuMetaData.obj
 0001:0001b9e0       ?GetAdjacentVerts@BigConvexData@physx@@QEBAPEBEXZ 000000018001c9e0 f i GuMetaData.obj
 0001:0001b9e0       ?getSoftBodyAuxData@SoftBodyMesh@Gu@physx@@UEAAPEAVPxSoftBodyAuxData@3@XZ 000000018001c9e0 f i GuTetrahedronMesh.obj
 0001:0001b9e0       ?getSoftBodyAuxData@SoftBodyMesh@Gu@physx@@UEBAPEBVPxSoftBodyAuxData@3@XZ 000000018001c9e0 f i GuTetrahedronMesh.obj
 0001:0001b9e0       ?getTransforms@PruningPool@Gu@physx@@QEAAPEAV?$PxTransformT@M@3@XZ 000000018001c9e0 f i GuIncrementalAABBPrunerCore.obj
 0001:0001b9e0       ?getTransforms@PruningPool@Gu@physx@@QEBAPEBV?$PxTransformT@M@3@XZ 000000018001c9e0 f i GuIncrementalAABBPrunerCore.obj
 0001:0001b9e0       ?getTriangles@TriangleMesh@Gu@physx@@UEBAPEBXXZ 000000018001c9e0 f i GuTriangleMesh.obj
 0001:0001b9f0       ?GetNbNeighbors@BigConvexData@physx@@QEBAGI@Z 000000018001c9f0 f i GuMetaData.obj
 0001:0001b9f0       ?GetValency@BigConvexData@physx@@QEBAGI@Z 000000018001c9f0 f i GuMetaData.obj
 0001:0001ba00       ?GetNbSamples@BigConvexData@physx@@QEBAIXZ 000000018001ca00 f i GuMetaData.obj
 0001:0001ba10       ?GetNbVerts@BigConvexData@physx@@QEBAIXZ 000000018001ca10 f i GuMetaData.obj
 0001:0001ba10       ?getNbVertices@TetrahedronMesh@Gu@physx@@UEBAIXZ 000000018001ca10 f i GuTetrahedronMesh.obj
 0001:0001ba10       ?getNbVertices@TriangleMesh@Gu@physx@@UEBAIXZ 000000018001ca10 f i GuTriangleMesh.obj
 0001:0001ba10       ?length@pcharNode@@UEBAHXZ 000000018001ca10 f i libvcruntime:undname.obj
 0001:0001ba10       ?raw_length@pcharNode@@UEBAHXZ 000000018001ca10 f i libvcruntime:undname.obj
 0001:0001ba20       ?GetNeighbors@BigConvexData@physx@@QEBAPEBEI@Z 000000018001ca20 f i GuMetaData.obj
 0001:0001ba30       ?GetOffset@BigConvexData@physx@@QEBAGI@Z 000000018001ca30 f i GuMetaData.obj
 0001:0001ba40       ?GetSubdiv@BigConvexData@physx@@QEBAIXZ 000000018001ca40 f i GuMetaData.obj
 0001:0001ba50       ?getBinaryMetaData@BV4Tree@Gu@physx@@SAXAEAVPxOutputStream@3@@Z 000000018001ca50 f   GuMetaData.obj
 0001:0001bff0       ?getBinaryMetaData@BV4TriangleMesh@Gu@physx@@SAXAEAVPxOutputStream@3@@Z 000000018001cff0 f   GuMetaData.obj
 0001:0001c370       ?getBinaryMetaData@BigConvexData@physx@@SAXAEAVPxOutputStream@2@@Z 000000018001d370 f   GuMetaData.obj
 0001:0001c630       ?getBinaryMetaData@ConvexMesh@Gu@physx@@SAXAEAVPxOutputStream@3@@Z 000000018001d630 f   GuMetaData.obj
 0001:0001ccc0       ?getBinaryMetaData@HeightField@Gu@physx@@SAXAEAVPxOutputStream@3@@Z 000000018001dcc0 f   GuMetaData.obj
 0001:0001d0b0       ?getBinaryMetaData@RTree@Gu@physx@@SAXAEAVPxOutputStream@3@@Z 000000018001e0b0 f   GuMetaData.obj
 0001:0001d3e0       ?getBinaryMetaData@RTreeTriangleMesh@Gu@physx@@SAXAEAVPxOutputStream@3@@Z 000000018001e3e0 f   GuMetaData.obj
 0001:0001d4c0       ?getBinaryMetaData@TriangleMesh@Gu@physx@@SAXAEAVPxOutputStream@3@@Z 000000018001e4c0 f   GuMetaData.obj
 0001:0001f000       ?doSupport@?$SupportLocalImpl@VConvexHullNoScaleV@Gu@physx@@@Gu@physx@@UEBA?AT__m128@@AEBT4@@Z 0000000180020000 f i GuMTD.obj
 0001:0001f050       ?doSupport@?$SupportLocalImpl@VConvexHullNoScaleV@Gu@physx@@@Gu@physx@@UEBAXAEBT__m128@@AEAT4@1@Z 0000000180020050 f i GuMTD.obj
 0001:0001f1d0       ?populateVerts@?$SupportLocalImpl@VConvexHullNoScaleV@Gu@physx@@@Gu@physx@@UEBAXPEBEIPEBV?$PxVec3T@M@3@PEAT__m128@@@Z 00000001800201d0 f i GuMTD.obj
 0001:0001f210       ?getInternalData@TriangleMesh@Gu@physx@@UEBA_NAEAUPxTriangleMeshInternalData@3@_N@Z 0000000180020210 f   GuTriangleMesh.obj
 0001:0001f210       ?isDynamic@Pruner@Gu@physx@@UEBA_NXZ 0000000180020210 f   GuIncrementalAABBPruner.obj
 0001:00020fb0       ??$gjk@U?$LocalConvex@VCapsuleV@Gu@physx@@@Gu@physx@@U?$LocalConvex@VConvexHullV@Gu@physx@@@23@@Gu@physx@@YA?AW4GjkStatus@01@AEBU?$LocalConvex@VCapsuleV@Gu@physx@@@01@AEBU?$LocalConvex@VConvexHullV@Gu@physx@@@01@AEBT__m128@@2AEAT5@333@Z 0000000180021fb0 f i GuMTD.obj
 0001:00021d10       ??0SeparatingAxes@Gu@physx@@QEAA@$$QEAV012@@Z 0000000180022d10 f i GuMTD.obj
 0001:00021d10       ??0SeparatingAxes@Gu@physx@@QEAA@AEBV012@@Z 0000000180022d10 f i GuMTD.obj
 0001:00021e20       ??0SeparatingAxes@Gu@physx@@QEAA@XZ 0000000180022e20 f i GuMTD.obj
 0001:00021e30       ??4SeparatingAxes@Gu@physx@@QEAAAEAV012@$$QEAV012@@Z 0000000180022e30 f i GuMTD.obj
 0001:00021e30       ??4SeparatingAxes@Gu@physx@@QEAAAEAV012@AEBV012@@Z 0000000180022e30 f i GuMTD.obj
 0001:00021f40       ??_E?$LocalConvex@UCustomConvexV@@@Gu@physx@@UEAAPEAXI@Z 0000000180022f40 f i GuGjkQuery.obj
 0001:00021f40       ??_E?$LocalConvex@UPointConvexV@@@Gu@physx@@UEAAPEAXI@Z 0000000180022f40 f i GuGjkQuery.obj
 0001:00021f40       ??_E?$LocalConvex@VBoxV@Gu@physx@@@Gu@physx@@UEAAPEAXI@Z 0000000180022f40 f i GuSweepTests.obj
 0001:00021f40       ??_E?$LocalConvex@VCapsuleV@Gu@physx@@@Gu@physx@@UEAAPEAXI@Z 0000000180022f40 f i GuMTD.obj
 0001:00021f40       ??_E?$LocalConvex@VConvexHullNoScaleV@Gu@physx@@@Gu@physx@@UEAAPEAXI@Z 0000000180022f40 f i GuPCMContactBoxConvex.obj
 0001:00021f40       ??_E?$LocalConvex@VConvexHullV@Gu@physx@@@Gu@physx@@UEAAPEAXI@Z 0000000180022f40 f i GuMTD.obj
 0001:00021f40       ??_E?$LocalConvex@VTetrahedronV@Gu@physx@@@Gu@physx@@UEAAPEAXI@Z 0000000180022f40 f i GuCookingTetrahedronMesh.obj
 0001:00021f40       ??_E?$LocalConvex@VTriangleV@Gu@physx@@@Gu@physx@@UEAAPEAXI@Z 0000000180022f40 f i GuSweepTests.obj
 0001:00021f40       ??_EGjkConvex@Gu@physx@@UEAAPEAXI@Z 0000000180022f40 f i GuMTD.obj
 0001:00021f40       ??_G?$LocalConvex@UCustomConvexV@@@Gu@physx@@UEAAPEAXI@Z 0000000180022f40 f i GuGjkQuery.obj
 0001:00021f40       ??_G?$LocalConvex@UPointConvexV@@@Gu@physx@@UEAAPEAXI@Z 0000000180022f40 f i GuGjkQuery.obj
 0001:00021f40       ??_G?$LocalConvex@VBoxV@Gu@physx@@@Gu@physx@@UEAAPEAXI@Z 0000000180022f40 f i GuSweepTests.obj
 0001:00021f40       ??_G?$LocalConvex@VCapsuleV@Gu@physx@@@Gu@physx@@UEAAPEAXI@Z 0000000180022f40 f i GuMTD.obj
 0001:00021f40       ??_G?$LocalConvex@VConvexHullNoScaleV@Gu@physx@@@Gu@physx@@UEAAPEAXI@Z 0000000180022f40 f i GuPCMContactBoxConvex.obj
 0001:00021f40       ??_G?$LocalConvex@VConvexHullV@Gu@physx@@@Gu@physx@@UEAAPEAXI@Z 0000000180022f40 f i GuMTD.obj
 0001:00021f40       ??_G?$LocalConvex@VTetrahedronV@Gu@physx@@@Gu@physx@@UEAAPEAXI@Z 0000000180022f40 f i GuCookingTetrahedronMesh.obj
 0001:00021f40       ??_G?$LocalConvex@VTriangleV@Gu@physx@@@Gu@physx@@UEAAPEAXI@Z 0000000180022f40 f i GuSweepTests.obj
 0001:00021f40       ??_GGjkConvex@Gu@physx@@UEAAPEAXI@Z 0000000180022f40 f i GuMTD.obj
 0001:000260c0       ?getAxes@SeparatingAxes@Gu@physx@@QEBAPEBV?$PxVec3T@M@3@XZ 00000001800270c0 f i GuMTD.obj
 0001:000260d0       ?getCenter@?$LocalConvex@UCustomConvexV@@@Gu@physx@@UEBA?AT__m128@@XZ 00000001800270d0 f i GuGjkQuery.obj
 0001:000260d0       ?getCenter@?$LocalConvex@UPointConvexV@@@Gu@physx@@UEBA?AT__m128@@XZ 00000001800270d0 f i GuGjkQuery.obj
 0001:000260d0       ?getCenter@?$LocalConvex@VBoxV@Gu@physx@@@Gu@physx@@UEBA?AT__m128@@XZ 00000001800270d0 f i GuSweepTests.obj
 0001:000260d0       ?getCenter@?$LocalConvex@VCapsuleV@Gu@physx@@@Gu@physx@@UEBA?AT__m128@@XZ 00000001800270d0 f i GuMTD.obj
 0001:000260d0       ?getCenter@?$LocalConvex@VConvexHullNoScaleV@Gu@physx@@@Gu@physx@@UEBA?AT__m128@@XZ 00000001800270d0 f i GuPCMContactBoxConvex.obj
 0001:000260d0       ?getCenter@?$LocalConvex@VConvexHullV@Gu@physx@@@Gu@physx@@UEBA?AT__m128@@XZ 00000001800270d0 f i GuMTD.obj
 0001:000260d0       ?getCenter@?$LocalConvex@VTetrahedronV@Gu@physx@@@Gu@physx@@UEBA?AT__m128@@XZ 00000001800270d0 f i GuCookingTetrahedronMesh.obj
 0001:000260d0       ?getCenter@?$LocalConvex@VTriangleV@Gu@physx@@@Gu@physx@@UEBA?AT__m128@@XZ 00000001800270d0 f i GuSweepTests.obj
 0001:000260e0       ?getCount@BuildStats@Gu@physx@@QEBAIXZ 00000001800270e0 f i GuBV4Build.obj
 0001:000260e0       ?getNbActiveObjects@PruningPool@Gu@physx@@QEBAIXZ 00000001800270e0 f i GuIncrementalAABBPrunerCore.obj
 0001:000260e0       ?getNumAxes@SeparatingAxes@Gu@physx@@QEBAIXZ 00000001800270e0 f i GuMTD.obj
 0001:000260f0       ?getSweepMargin@?$LocalConvex@VCapsuleV@Gu@physx@@@Gu@physx@@UEBA?AT__m128@@XZ 00000001800270f0 f i GuMTD.obj
 0001:000260f0       ?getSweepMargin@?$RelativeConvex@VCapsuleV@Gu@physx@@@Gu@physx@@UEBA?AT__m128@@XZ 00000001800270f0 f i GuCCDSweepPrimitives.obj
 0001:00026100       ?getSweepMargin@?$LocalConvex@UCustomConvexV@@@Gu@physx@@UEBA?AT__m128@@XZ 0000000180027100 f i GuGjkQuery.obj
 0001:00026100       ?getSweepMargin@?$LocalConvex@UPointConvexV@@@Gu@physx@@UEBA?AT__m128@@XZ 0000000180027100 f i GuGjkQuery.obj
 0001:00026100       ?getSweepMargin@?$LocalConvex@VBoxV@Gu@physx@@@Gu@physx@@UEBA?AT__m128@@XZ 0000000180027100 f i GuSweepTests.obj
 0001:00026100       ?getSweepMargin@?$LocalConvex@VConvexHullNoScaleV@Gu@physx@@@Gu@physx@@UEBA?AT__m128@@XZ 0000000180027100 f i GuPCMContactBoxConvex.obj
 0001:00026100       ?getSweepMargin@?$LocalConvex@VConvexHullV@Gu@physx@@@Gu@physx@@UEBA?AT__m128@@XZ 0000000180027100 f i GuMTD.obj
 0001:00026100       ?getSweepMargin@?$RelativeConvex@UCustomConvexV@@@Gu@physx@@UEBA?AT__m128@@XZ 0000000180027100 f i GuGjkQuery.obj
 0001:00026100       ?getSweepMargin@?$RelativeConvex@VBoxV@Gu@physx@@@Gu@physx@@UEBA?AT__m128@@XZ 0000000180027100 f i GuOverlapTests.obj
 0001:00026100       ?getSweepMargin@?$RelativeConvex@VConvexHullNoScaleV@Gu@physx@@@Gu@physx@@UEBA?AT__m128@@XZ 0000000180027100 f i GuPCMContactConvexConvex.obj
 0001:00026100       ?getSweepMargin@?$RelativeConvex@VConvexHullV@Gu@physx@@@Gu@physx@@UEBA?AT__m128@@XZ 0000000180027100 f i GuOverlapTests.obj
 0001:00026120       ?getSweepMargin@GjkConvex@Gu@physx@@UEBA?AT__m128@@XZ 0000000180027120 f i GuMTD.obj
 0001:00026140       ?pointConvexDistance@@YA_NAEAV?$PxVec3T@M@physx@@0AEAMAEBV12@PEBVConvexMesh@Gu@2@AEBVPxMeshScale@2@AEBV?$PxTransformT@M@2@@Z 0000000180027140 f   GuMTD.obj
 0001:00026ea0       ?reset@SeparatingAxes@Gu@physx@@QEAAXXZ 0000000180027ea0 f i GuMTD.obj
 0001:00026eb0       ?support@?$LocalConvex@VCapsuleV@Gu@physx@@@Gu@physx@@UEBA?AT__m128@@AEBT4@@Z 0000000180027eb0 f i GuMTD.obj
 0001:00026f10       ?support@?$LocalConvex@VCapsuleV@Gu@physx@@@Gu@physx@@UEBA?AT__m128@@AEBT4@AEAH@Z 0000000180027f10 f i GuMTD.obj
 0001:00026f80       ?support@?$LocalConvex@VConvexHullV@Gu@physx@@@Gu@physx@@UEBA?AT__m128@@AEBT4@@Z 0000000180027f80 f i GuMTD.obj
 0001:00027060       ?support@?$LocalConvex@VConvexHullV@Gu@physx@@@Gu@physx@@UEBA?AT__m128@@AEBT4@AEAH@Z 0000000180028060 f i GuMTD.obj
 0001:00027130       ?support@GjkConvex@Gu@physx@@UEBA?AT__m128@@AEBT4@@Z 0000000180028130 f i GuMTD.obj
 0001:00027150       ?support@GjkConvex@Gu@physx@@UEBA?AT__m128@@AEBT4@AEAH@Z 0000000180028150 f i GuMTD.obj
 0001:00027170       ?supportPoint@?$LocalConvex@VCapsuleV@Gu@physx@@@Gu@physx@@UEBA?AT__m128@@H@Z 0000000180028170 f i GuMTD.obj
 0001:000271a0       ?supportPoint@?$LocalConvex@VConvexHullV@Gu@physx@@@Gu@physx@@UEBA?AT__m128@@H@Z 00000001800281a0 f i GuMTD.obj
 0001:000271f0       ?supportPoint@GjkConvex@Gu@physx@@UEBA?AT__m128@@H@Z 00000001800281f0 f i GuMTD.obj
 0001:00027210       ?supportPoint@?$RelativeConvex@VBoxV@Gu@physx@@@Gu@physx@@UEBA?AT__m128@@H@Z 0000000180028210 f i GuOverlapTests.obj
 0001:00027280       ?support@?$RelativeConvex@VBoxV@Gu@physx@@@Gu@physx@@UEBA?AT__m128@@AEBT4@@Z 0000000180028280 f i GuOverlapTests.obj
 0001:00027300       ?support@?$RelativeConvex@VBoxV@Gu@physx@@@Gu@physx@@UEBA?AT__m128@@AEBT4@AEAH@Z 0000000180028300 f i GuOverlapTests.obj
 0001:00027390       ?getCenter@?$RelativeConvex@UCustomConvexV@@@Gu@physx@@UEBA?AT__m128@@XZ 0000000180028390 f i GuGjkQuery.obj
 0001:00027390       ?getCenter@?$RelativeConvex@VBoxV@Gu@physx@@@Gu@physx@@UEBA?AT__m128@@XZ 0000000180028390 f i GuOverlapTests.obj
 0001:00027390       ?getCenter@?$RelativeConvex@VCapsuleV@Gu@physx@@@Gu@physx@@UEBA?AT__m128@@XZ 0000000180028390 f i GuCCDSweepPrimitives.obj
 0001:00027390       ?getCenter@?$RelativeConvex@VConvexHullNoScaleV@Gu@physx@@@Gu@physx@@UEBA?AT__m128@@XZ 0000000180028390 f i GuPCMContactConvexConvex.obj
 0001:00027390       ?getCenter@?$RelativeConvex@VConvexHullV@Gu@physx@@@Gu@physx@@UEBA?AT__m128@@XZ 0000000180028390 f i GuOverlapTests.obj
 0001:00027390       ?getCenter@?$RelativeConvex@VTriangleV@Gu@physx@@@Gu@physx@@UEBA?AT__m128@@XZ 0000000180028390 f i GuCCDSweepPrimitives.obj
 0001:000273d0       ??_E?$RelativeConvex@UCustomConvexV@@@Gu@physx@@UEAAPEAXI@Z 00000001800283d0 f i GuGjkQuery.obj
 0001:000273d0       ??_E?$RelativeConvex@VBoxV@Gu@physx@@@Gu@physx@@UEAAPEAXI@Z 00000001800283d0 f i GuOverlapTests.obj
 0001:000273d0       ??_E?$RelativeConvex@VCapsuleV@Gu@physx@@@Gu@physx@@UEAAPEAXI@Z 00000001800283d0 f i GuCCDSweepPrimitives.obj
 0001:000273d0       ??_E?$RelativeConvex@VConvexHullNoScaleV@Gu@physx@@@Gu@physx@@UEAAPEAXI@Z 00000001800283d0 f i GuPCMContactConvexConvex.obj
 0001:000273d0       ??_E?$RelativeConvex@VConvexHullV@Gu@physx@@@Gu@physx@@UEAAPEAXI@Z 00000001800283d0 f i GuOverlapTests.obj
 0001:000273d0       ??_E?$RelativeConvex@VTriangleV@Gu@physx@@@Gu@physx@@UEAAPEAXI@Z 00000001800283d0 f i GuCCDSweepPrimitives.obj
 0001:000273d0       ??_G?$RelativeConvex@UCustomConvexV@@@Gu@physx@@UEAAPEAXI@Z 00000001800283d0 f i GuGjkQuery.obj
 0001:000273d0       ??_G?$RelativeConvex@VBoxV@Gu@physx@@@Gu@physx@@UEAAPEAXI@Z 00000001800283d0 f i GuOverlapTests.obj
 0001:000273d0       ??_G?$RelativeConvex@VCapsuleV@Gu@physx@@@Gu@physx@@UEAAPEAXI@Z 00000001800283d0 f i GuCCDSweepPrimitives.obj
 0001:000273d0       ??_G?$RelativeConvex@VConvexHullNoScaleV@Gu@physx@@@Gu@physx@@UEAAPEAXI@Z 00000001800283d0 f i GuPCMContactConvexConvex.obj
 0001:000273d0       ??_G?$RelativeConvex@VConvexHullV@Gu@physx@@@Gu@physx@@UEAAPEAXI@Z 00000001800283d0 f i GuOverlapTests.obj
 0001:000273d0       ??_G?$RelativeConvex@VTriangleV@Gu@physx@@@Gu@physx@@UEAAPEAXI@Z 00000001800283d0 f i GuCCDSweepPrimitives.obj
 0001:00029530       ?supportPoint@?$RelativeConvex@VConvexHullV@Gu@physx@@@Gu@physx@@UEBA?AT__m128@@H@Z 000000018002a530 f i GuOverlapTests.obj
 0001:000295b0       ?support@?$RelativeConvex@VConvexHullV@Gu@physx@@@Gu@physx@@UEBA?AT__m128@@AEBT4@@Z 000000018002a5b0 f i GuOverlapTests.obj
 0001:000296e0       ?support@?$RelativeConvex@VConvexHullV@Gu@physx@@@Gu@physx@@UEBA?AT__m128@@AEBT4@AEAH@Z 000000018002a6e0 f i GuOverlapTests.obj
 0001:000298b0       ??$gjk@U?$RelativeConvex@VBoxV@Gu@physx@@@Gu@physx@@U?$LocalConvex@VConvexHullV@Gu@physx@@@23@@Gu@physx@@YA?AW4GjkStatus@01@AEBU?$RelativeConvex@VBoxV@Gu@physx@@@01@AEBU?$LocalConvex@VConvexHullV@Gu@physx@@@01@AEBT__m128@@2AEAT5@333@Z 000000018002a8b0 f i GuOverlapTests.obj
 0001:0002a660       ??$gjk@U?$RelativeConvex@VConvexHullV@Gu@physx@@@Gu@physx@@U?$LocalConvex@VConvexHullV@Gu@physx@@@23@@Gu@physx@@YA?AW4GjkStatus@01@AEBU?$RelativeConvex@VConvexHullV@Gu@physx@@@01@AEBU?$LocalConvex@VConvexHullV@Gu@physx@@@01@AEBT__m128@@2AEAT5@333@Z 000000018002b660 f i GuOverlapTests.obj
 0001:0002b4e0       ?ComputeCubemapNearestOffset@physx@@YAIAEBV?$PxVec3T@M@1@I@Z 000000018002c4e0 f i GuOverlapTests.obj
 0001:0002b5e0       ?getOverlapFuncTable@Gu@physx@@YAPEAY0L@Q6A_NAEBVPxGeometry@2@AEBV?$PxTransformT@M@2@01PEAUTriggerCache@12@PEAUPxQueryThreadContext@2@@ZXZ 000000018002c5e0 f   GuOverlapTests.obj
 0001:0002d1a0       ?registerHeightFields@Gu@physx@@YAXXZ 000000018002e1a0 f   GuOverlapTests.obj
 0001:0002d1f0       ?raycast_box@@YAIAEBVPxGeometry@physx@@AEBV?$PxTransformT@M@2@AEBV?$PxVec3T@M@2@2MV?$PxFlags@W4Enum@PxHitFlag@physx@@G@2@IPEIAUPxGeomRaycastHit@2@IPEAUPxQueryThreadContext@2@@Z 000000018002e1f0 f   GuRaycastTests.obj
 0001:0002d820       ?raycast_sphere@@YAIAEBVPxGeometry@physx@@AEBV?$PxTransformT@M@2@AEBV?$PxVec3T@M@2@2MV?$PxFlags@W4Enum@PxHitFlag@physx@@G@2@IPEIAUPxGeomRaycastHit@2@IPEAUPxQueryThreadContext@2@@Z 000000018002e820 f   GuRaycastTests.obj
 0001:0002d9b0       ?raycast_capsule@@YAIAEBVPxGeometry@physx@@AEBV?$PxTransformT@M@2@AEBV?$PxVec3T@M@2@2MV?$PxFlags@W4Enum@PxHitFlag@physx@@G@2@IPEIAUPxGeomRaycastHit@2@IPEAUPxQueryThreadContext@2@@Z 000000018002e9b0 f   GuRaycastTests.obj
 0001:0002df10       ?raycast_plane@@YAIAEBVPxGeometry@physx@@AEBV?$PxTransformT@M@2@AEBV?$PxVec3T@M@2@2MV?$PxFlags@W4Enum@PxHitFlag@physx@@G@2@IPEIAUPxGeomRaycastHit@2@IPEAUPxQueryThreadContext@2@@Z 000000018002ef10 f   GuRaycastTests.obj
 0001:0002e080       ?raycast_convexMesh@@YAIAEBVPxGeometry@physx@@AEBV?$PxTransformT@M@2@AEBV?$PxVec3T@M@2@2MV?$PxFlags@W4Enum@PxHitFlag@physx@@G@2@IPEIAUPxGeomRaycastHit@2@IPEAUPxQueryThreadContext@2@@Z 000000018002f080 f   GuRaycastTests.obj
 0001:0002eb80       ?getMidphaseID@RTreeTriangleMesh@Gu@physx@@UEBA?AW4Enum@PxMeshMidPhase@3@XZ 000000018002fb80 f   GuTriangleMeshRTree.obj
 0001:0002eb80       ?getMidphaseID@RTreeTriangleMeshBuilder@physx@@UEBA?AW4Enum@PxMeshMidPhase@2@XZ 000000018002fb80 f   GuCookingTriangleMesh.obj
 0001:0002eb80       ?getTetrahedraRemap@TetrahedronMesh@Gu@physx@@UEBAPEBIXZ 000000018002fb80 f   GuTetrahedronMesh.obj
 0001:0002eb80       ?raycast_hairsystem@@YAIAEBVPxGeometry@physx@@AEBV?$PxTransformT@M@2@AEBV?$PxVec3T@M@2@2MV?$PxFlags@W4Enum@PxHitFlag@physx@@G@2@IPEIAUPxGeomRaycastHit@2@IPEAUPxQueryThreadContext@2@@Z 000000018002fb80 f   GuRaycastTests.obj
 0001:0002eb80       ?raycast_particlesystem@@YAIAEBVPxGeometry@physx@@AEBV?$PxTransformT@M@2@AEBV?$PxVec3T@M@2@2MV?$PxFlags@W4Enum@PxHitFlag@physx@@G@2@IPEIAUPxGeomRaycastHit@2@IPEAUPxQueryThreadContext@2@@Z 000000018002fb80 f   GuRaycastTests.obj
 0001:0002eb80       ?raycast_softbody@@YAIAEBVPxGeometry@physx@@AEBV?$PxTransformT@M@2@AEBV?$PxVec3T@M@2@2MV?$PxFlags@W4Enum@PxHitFlag@physx@@G@2@IPEIAUPxGeomRaycastHit@2@IPEAUPxQueryThreadContext@2@@Z 000000018002fb80 f   GuRaycastTests.obj
 0001:0002eb90       ?raycast_triangleMesh@@YAIAEBVPxGeometry@physx@@AEBV?$PxTransformT@M@2@AEBV?$PxVec3T@M@2@2MV?$PxFlags@W4Enum@PxHitFlag@physx@@G@2@IPEIAUPxGeomRaycastHit@2@IPEAUPxQueryThreadContext@2@@Z 000000018002fb90 f   GuRaycastTests.obj
 0001:0002ff70       ??Dphysx@@YA?AV?$PxMat34T@M@0@AEBVPxMeshScale@0@AEBV?$PxTransformT@M@0@@Z 0000000180030f70 f i GuRaycastTests.obj
 0001:00030a60       ?getRaycastFuncTable@Gu@physx@@YAAEAY0L@Q6AIAEBVPxGeometry@2@AEBV?$PxTransformT@M@2@AEBV?$PxVec3T@M@2@2MV?$PxFlags@W4Enum@PxHitFlag@physx@@G@2@IPEIAUPxGeomRaycastHit@2@IPEAUPxQueryThreadContext@2@@ZXZ 0000000180031a60 f   GuRaycastTests.obj
 0001:00030a70       ?raycast_heightField@@YAIAEBVPxGeometry@physx@@AEBV?$PxTransformT@M@2@AEBV?$PxVec3T@M@2@2MV?$PxFlags@W4Enum@PxHitFlag@physx@@G@2@IPEIAUPxGeomRaycastHit@2@IPEAUPxQueryThreadContext@2@@Z 0000000180031a70 f   GuRaycastTests.obj
 0001:000311b0       ?registerHeightFields_Raycasts@@YAXXZ 00000001800321b0 f   GuRaycastTests.obj
 0001:000311c0       ??Dphysx@@YA?AV?$PxMat34T@M@0@AEBV?$PxTransformT@M@0@AEBVPxMeshScale@0@@Z 00000001800321c0 f i GuSweepMTD.obj
 0001:00031710       ??_E?$MeshHitCallback@UPxGeomRaycastHit@physx@@@Gu@physx@@UEAAPEAXI@Z 0000000180032710 f i GuSweepMTD.obj
 0001:00031710       ??_G?$MeshHitCallback@UPxGeomRaycastHit@physx@@@Gu@physx@@UEAAPEAXI@Z 0000000180032710 f i GuSweepMTD.obj
 0001:00031740       ??_EMeshMTDGenerationCallback@@UEAAPEAXI@Z 0000000180032740 f i GuSweepMTD.obj
 0001:00031740       ??_GMeshMTDGenerationCallback@@UEAAPEAXI@Z 0000000180032740 f i GuSweepMTD.obj
 0001:00031770       ??_EMidPhaseQueryLocalReport@@UEAAPEAXI@Z 0000000180032770 f i GuSweepMTD.obj
 0001:00031770       ??_ERTreeCookerRemap@@UEAAPEAXI@Z 0000000180032770 f i GuCookingTriangleMesh.obj
 0001:00031770       ??_GMidPhaseQueryLocalReport@@UEAAPEAXI@Z 0000000180032770 f i GuSweepMTD.obj
 0001:00031770       ??_GRTreeCookerRemap@@UEAAPEAXI@Z 0000000180032770 f i GuCookingTriangleMesh.obj
 0001:000317a0       ?allocate@?$PxArray@IV?$PxReflectionAllocator@I@physx@@@physx@@IEAAPEAII@Z 00000001800327a0 f i GuSweepMTD.obj
 0001:00031850       ?computeBox_HeightFieldMTD@Gu@physx@@YA_NAEBVPxHeightFieldGeometry@2@AEBV?$PxTransformT@M@2@AEBVBox@12@1M_NAEAUPxGeomSweepHit@2@@Z 0000000180032850 f   GuSweepMTD.obj
 0001:00032620       ?computeBox_TriangleMeshMTD@Gu@physx@@YA_NAEBVPxTriangleMeshGeometry@2@AEBV?$PxTransformT@M@2@AEBVBox@12@1M_NAEAUPxGeomSweepHit@2@@Z 0000000180033620 f   GuSweepMTD.obj
 0001:00033690       ?computeCapsule_CapsuleMTD@Gu@physx@@YA_NAEBVCapsule@12@0AEAUPxGeomSweepHit@2@@Z 0000000180034690 f   GuSweepMTD.obj
 0001:000338d0       ?computeCapsule_HeightFieldMTD@Gu@physx@@YA_NAEBVPxHeightFieldGeometry@2@AEBV?$PxTransformT@M@2@AEAVCapsuleV@12@M_NAEAUPxGeomSweepHit@2@@Z 00000001800348d0 f   GuSweepMTD.obj
 0001:000340a0       ?computeCapsule_TriangleMeshMTD@Gu@physx@@YA_NAEBVPxTriangleMeshGeometry@2@AEBV?$PxTransformT@M@2@AEAVCapsuleV@12@M_NAEAUPxGeomSweepHit@2@@Z 00000001800350a0 f   GuSweepMTD.obj
 0001:00034950       ?computeConvex_HeightFieldMTD@Gu@physx@@YA_NAEBVPxHeightFieldGeometry@2@AEBV?$PxTransformT@M@2@AEBVPxConvexMeshGeometry@2@1M_NAEAUPxGeomSweepHit@2@@Z 0000000180035950 f   GuSweepMTD.obj
 0001:00035c20       ?computeConvex_TriangleMeshMTD@Gu@physx@@YA_NAEBVPxTriangleMeshGeometry@2@AEBV?$PxTransformT@M@2@AEBVPxConvexMeshGeometry@2@1M_NAEAUPxGeomSweepHit@2@@Z 0000000180036c20 f   GuSweepMTD.obj
 0001:00037240       ?computePlane_BoxMTD@Gu@physx@@YA_NAEBVPxPlane@2@AEBVBox@12@AEAUPxGeomSweepHit@2@@Z 0000000180038240 f   GuSweepMTD.obj
 0001:000374e0       ?computePlane_CapsuleMTD@Gu@physx@@YA_NAEBVPxPlane@2@AEBVCapsule@12@AEAUPxGeomSweepHit@2@@Z 00000001800384e0 f   GuSweepMTD.obj
 0001:000375f0       ?computePlane_ConvexMTD@Gu@physx@@YA_NAEBVPxPlane@2@AEBVPxConvexMeshGeometry@2@AEBV?$PxTransformT@M@2@AEAUPxGeomSweepHit@2@@Z 00000001800385f0 f   GuSweepMTD.obj
 0001:000381b0       ?computeSphere_CapsuleMTD@Gu@physx@@YA_NAEBVSphere@12@AEBVCapsule@12@AEAUPxGeomSweepHit@2@@Z 00000001800391b0 f   GuSweepMTD.obj
 0001:00038360       ?computeSphere_SphereMTD@Gu@physx@@YA_NAEBVSphere@12@0AEAUPxGeomSweepHit@2@@Z 0000000180039360 f   GuSweepMTD.obj
 0001:00038450       ?getInverse@?$PxMat33T@M@physx@@QEBA?BV12@XZ 0000000180039450 f i GuSweepMTD.obj
 0001:000386a0       ?growAndPushBack@?$PxArray@IV?$PxReflectionAllocator@I@physx@@@physx@@IEAAAEAIAEBI@Z 00000001800396a0 f i GuSweepMTD.obj
 0001:00038760       ?init@FastVertex2ShapeScaling@Cm@physx@@QEAAXAEBV?$PxVec3T@M@3@AEBV?$PxQuatT@M@3@@Z 0000000180039760 f i GuSweepMTD.obj
 0001:00039070       ?processHit@MeshMTDGenerationCallback@@UEAA_NAEBUPxGeomRaycastHit@physx@@AEBV?$PxVec3T@M@3@11AEAMPEBI@Z 000000018003a070 f i GuSweepMTD.obj
 0001:000390c0       ?recreate@?$PxArray@IV?$PxReflectionAllocator@I@physx@@@physx@@IEAAXI@Z 000000018003a0c0 f i GuSweepMTD.obj
 0001:00039160       ?reportTouchedTris@MidPhaseQueryLocalReport@@UEAA_NIPEBI@Z 000000018003a160 f i GuSweepMTD.obj
 0001:000391d0       ??$gjkPenetration@U?$LocalConvex@VCapsuleV@Gu@physx@@@Gu@physx@@U?$LocalConvex@VConvexHullV@Gu@physx@@@23@@Gu@physx@@YA?AW4GjkStatus@01@AEBU?$LocalConvex@VCapsuleV@Gu@physx@@@01@AEBU?$LocalConvex@VConvexHullV@Gu@physx@@@01@AEBT__m128@@2_NPEIAE4AEAEAEAUGjkOutput@01@@Z 000000018003a1d0 f i GuSweepSharedTests.obj
 0001:00039240       ??$gjkPenetration@U?$LocalConvex@VCapsuleV@Gu@physx@@@Gu@physx@@U?$LocalConvex@VConvexHullV@Gu@physx@@@23@@Gu@physx@@YA?AW4GjkStatus@01@AEBU?$LocalConvex@VCapsuleV@Gu@physx@@@01@AEBU?$LocalConvex@VConvexHullV@Gu@physx@@@01@AEBT__m128@@2_NPEIAE4PEIAT5@5AEAEAEAUGjkOutput@01@@Z 000000018003a240 f i GuSweepSharedTests.obj
 0001:0003a770       ??$gjkPenetration@U?$RelativeConvex@VBoxV@Gu@physx@@@Gu@physx@@U?$LocalConvex@VConvexHullV@Gu@physx@@@23@@Gu@physx@@YA?AW4GjkStatus@01@AEBU?$RelativeConvex@VBoxV@Gu@physx@@@01@AEBU?$LocalConvex@VConvexHullV@Gu@physx@@@01@AEBT__m128@@2_NPEIAE4AEAEAEAUGjkOutput@01@@Z 000000018003b770 f i GuSweepSharedTests.obj
 0001:0003a7e0       ??$gjkPenetration@U?$RelativeConvex@VBoxV@Gu@physx@@@Gu@physx@@U?$LocalConvex@VConvexHullV@Gu@physx@@@23@@Gu@physx@@YA?AW4GjkStatus@01@AEBU?$RelativeConvex@VBoxV@Gu@physx@@@01@AEBU?$LocalConvex@VConvexHullV@Gu@physx@@@01@AEBT__m128@@2_NPEIAE4PEIAT5@5AEAEAEAUGjkOutput@01@@Z 000000018003b7e0 f i GuSweepSharedTests.obj
 0001:0003bd60       ??$gjkPenetration@U?$RelativeConvex@VConvexHullV@Gu@physx@@@Gu@physx@@U?$LocalConvex@VConvexHullV@Gu@physx@@@23@@Gu@physx@@YA?AW4GjkStatus@01@AEBU?$RelativeConvex@VConvexHullV@Gu@physx@@@01@AEBU?$LocalConvex@VConvexHullV@Gu@physx@@@01@AEBT__m128@@2_NPEIAE4AEAEAEAUGjkOutput@01@@Z 000000018003cd60 f i GuSweepSharedTests.obj
 0001:0003bdd0       ??$gjkPenetration@U?$RelativeConvex@VConvexHullV@Gu@physx@@@Gu@physx@@U?$LocalConvex@VConvexHullV@Gu@physx@@@23@@Gu@physx@@YA?AW4GjkStatus@01@AEBU?$RelativeConvex@VConvexHullV@Gu@physx@@@01@AEBU?$LocalConvex@VConvexHullV@Gu@physx@@@01@AEBT__m128@@2_NPEIAE4PEIAT5@5AEAEAEAUGjkOutput@01@@Z 000000018003cdd0 f i GuSweepSharedTests.obj
 0001:0003d420       ??$gjkRaycast@U?$LocalConvex@VCapsuleV@Gu@physx@@@Gu@physx@@U?$LocalConvex@VConvexHullV@Gu@physx@@@23@@Gu@physx@@YA_NAEBU?$LocalConvex@VCapsuleV@Gu@physx@@@01@AEBU?$LocalConvex@VConvexHullV@Gu@physx@@@01@AEBT__m128@@222AEAT4@33M@Z 000000018003e420 f i GuSweepSharedTests.obj
 0001:0003e170       ??$gjkRaycast@U?$RelativeConvex@VBoxV@Gu@physx@@@Gu@physx@@U?$LocalConvex@VConvexHullV@Gu@physx@@@23@@Gu@physx@@YA_NAEBU?$RelativeConvex@VBoxV@Gu@physx@@@01@AEBU?$LocalConvex@VConvexHullV@Gu@physx@@@01@AEBT__m128@@222AEAT4@33M@Z 000000018003f170 f i GuSweepSharedTests.obj
 0001:0003ef60       ??$gjkRaycast@U?$RelativeConvex@VConvexHullV@Gu@physx@@@Gu@physx@@U?$LocalConvex@VConvexHullV@Gu@physx@@@23@@Gu@physx@@YA_NAEBU?$RelativeConvex@VConvexHullV@Gu@physx@@@01@AEBU?$LocalConvex@VConvexHullV@Gu@physx@@@01@AEBT__m128@@222AEAT4@33M@Z 000000018003ff60 f i GuSweepSharedTests.obj
 0001:0003fd40       ??$gjkRaycastPenetration@U?$RelativeConvex@VConvexHullV@Gu@physx@@@Gu@physx@@U?$LocalConvex@VConvexHullV@Gu@physx@@@23@@Gu@physx@@YA_NAEBU?$RelativeConvex@VConvexHullV@Gu@physx@@@01@AEBU?$LocalConvex@VConvexHullV@Gu@physx@@@01@AEBT__m128@@222AEAT4@33M_N@Z 0000000180040d40 f i GuSweepSharedTests.obj
 0001:00040910       ?sweepBox_ConvexGeom@@YA_NAEBVPxGeometry@physx@@AEBV?$PxTransformT@M@2@AEBVPxBoxGeometry@2@1AEBVBox@Gu@2@AEBV?$PxVec3T@M@2@MAEAUPxGeomSweepHit@2@V?$PxFlags@W4Enum@PxHitFlag@physx@@G@2@MPEAUPxQueryThreadContext@2@@Z 0000000180041910 f   GuSweepSharedTests.obj
 0001:00041720       ?sweepBox_PlaneGeom@@YA_NAEBVPxGeometry@physx@@AEBV?$PxTransformT@M@2@AEBVPxBoxGeometry@2@1AEBVBox@Gu@2@AEBV?$PxVec3T@M@2@MAEAUPxGeomSweepHit@2@V?$PxFlags@W4Enum@PxHitFlag@physx@@G@2@MPEAUPxQueryThreadContext@2@@Z 0000000180042720 f   GuSweepSharedTests.obj
 0001:00041b10       ?sweepCapsuleTriangles@Gu@physx@@YA_NIPEBVPxTriangle@2@_NAEBVPxCapsuleGeometry@2@AEBV?$PxTransformT@M@2@AEBV?$PxVec3T@M@2@MAEAUPxGeomSweepHit@2@PEBIMV?$PxFlags@W4Enum@PxHitFlag@physx@@G@2@@Z 0000000180042b10 f   GuSweepSharedTests.obj
 0001:00041d00       ?sweepCapsule_CapsuleGeom@@YA_NAEBVPxGeometry@physx@@AEBV?$PxTransformT@M@2@AEBVPxCapsuleGeometry@2@1AEBVCapsule@Gu@2@AEBV?$PxVec3T@M@2@MAEAUPxGeomSweepHit@2@V?$PxFlags@W4Enum@PxHitFlag@physx@@G@2@MPEAUPxQueryThreadContext@2@@Z 0000000180042d00 f   GuSweepSharedTests.obj
 0001:00041ee0       ?sweepCapsule_ConvexGeom@@YA_NAEBVPxGeometry@physx@@AEBV?$PxTransformT@M@2@AEBVPxCapsuleGeometry@2@1AEBVCapsule@Gu@2@AEBV?$PxVec3T@M@2@MAEAUPxGeomSweepHit@2@V?$PxFlags@W4Enum@PxHitFlag@physx@@G@2@MPEAUPxQueryThreadContext@2@@Z 0000000180042ee0 f   GuSweepSharedTests.obj
 0001:00042c00       ?sweepCapsule_PlaneGeom@@YA_NAEBVPxGeometry@physx@@AEBV?$PxTransformT@M@2@AEBVPxCapsuleGeometry@2@1AEBVCapsule@Gu@2@AEBV?$PxVec3T@M@2@MAEAUPxGeomSweepHit@2@V?$PxFlags@W4Enum@PxHitFlag@physx@@G@2@MPEAUPxQueryThreadContext@2@@Z 0000000180043c00 f   GuSweepSharedTests.obj
 0001:00042ee0       ?sweepCapsule_SphereGeom@@YA_NAEBVPxGeometry@physx@@AEBV?$PxTransformT@M@2@AEBVPxCapsuleGeometry@2@1AEBVCapsule@Gu@2@AEBV?$PxVec3T@M@2@MAEAUPxGeomSweepHit@2@V?$PxFlags@W4Enum@PxHitFlag@physx@@G@2@MPEAUPxQueryThreadContext@2@@Z 0000000180043ee0 f   GuSweepSharedTests.obj
 0001:00043080       ?sweepConvex_BoxGeom@@YA_NAEBVPxGeometry@physx@@AEBV?$PxTransformT@M@2@AEBVPxConvexMeshGeometry@2@1AEBV?$PxVec3T@M@2@MAEAUPxGeomSweepHit@2@V?$PxFlags@W4Enum@PxHitFlag@physx@@G@2@MPEAUPxQueryThreadContext@2@@Z 0000000180044080 f   GuSweepSharedTests.obj
 0001:000432a0       ?sweepConvex_CapsuleGeom@@YA_NAEBVPxGeometry@physx@@AEBV?$PxTransformT@M@2@AEBVPxConvexMeshGeometry@2@1AEBV?$PxVec3T@M@2@MAEAUPxGeomSweepHit@2@V?$PxFlags@W4Enum@PxHitFlag@physx@@G@2@MPEAUPxQueryThreadContext@2@@Z 00000001800442a0 f   GuSweepSharedTests.obj
 0001:000434d0       ?sweepConvex_ConvexGeom@@YA_NAEBVPxGeometry@physx@@AEBV?$PxTransformT@M@2@AEBVPxConvexMeshGeometry@2@1AEBV?$PxVec3T@M@2@MAEAUPxGeomSweepHit@2@V?$PxFlags@W4Enum@PxHitFlag@physx@@G@2@MPEAUPxQueryThreadContext@2@@Z 00000001800444d0 f   GuSweepSharedTests.obj
 0001:000444a0       ?sweepConvex_PlaneGeom@@YA_NAEBVPxGeometry@physx@@AEBV?$PxTransformT@M@2@AEBVPxConvexMeshGeometry@2@1AEBV?$PxVec3T@M@2@MAEAUPxGeomSweepHit@2@V?$PxFlags@W4Enum@PxHitFlag@physx@@G@2@MPEAUPxQueryThreadContext@2@@Z 00000001800454a0 f   GuSweepSharedTests.obj
 0001:000448e0       ?sweepConvex_SphereGeom@@YA_NAEBVPxGeometry@physx@@AEBV?$PxTransformT@M@2@AEBVPxConvexMeshGeometry@2@1AEBV?$PxVec3T@M@2@MAEAUPxGeomSweepHit@2@V?$PxFlags@W4Enum@PxHitFlag@physx@@G@2@MPEAUPxQueryThreadContext@2@@Z 00000001800458e0 f   GuSweepSharedTests.obj
 0001:000454f0       ?sweepCapsule_BoxGeom@@YA_NAEBVPxGeometry@physx@@AEBV?$PxTransformT@M@2@AEBVPxCapsuleGeometry@2@1AEBVCapsule@Gu@2@AEBV?$PxVec3T@M@2@MAEAUPxGeomSweepHit@2@V?$PxFlags@W4Enum@PxHitFlag@physx@@G@2@MPEAUPxQueryThreadContext@2@@Z 00000001800464f0 f   GuSweepTests.obj
 0001:00045da0       ?sweepBox_SphereGeom@@YA_NAEBVPxGeometry@physx@@AEBV?$PxTransformT@M@2@AEBVPxBoxGeometry@2@1AEBVBox@Gu@2@AEBV?$PxVec3T@M@2@MAEAUPxGeomSweepHit@2@V?$PxFlags@W4Enum@PxHitFlag@physx@@G@2@MPEAUPxQueryThreadContext@2@@Z 0000000180046da0 f   GuSweepTests.obj
 0001:00046480       ?sweepBox_CapsuleGeom@@YA_NAEBVPxGeometry@physx@@AEBV?$PxTransformT@M@2@AEBVPxBoxGeometry@2@1AEBVBox@Gu@2@AEBV?$PxVec3T@M@2@MAEAUPxGeomSweepHit@2@V?$PxFlags@W4Enum@PxHitFlag@physx@@G@2@MPEAUPxQueryThreadContext@2@@Z 0000000180047480 f   GuSweepTests.obj
 0001:00046d30       ?sweepBox_BoxGeom@@YA_NAEBVPxGeometry@physx@@AEBV?$PxTransformT@M@2@AEBVPxBoxGeometry@2@1AEBVBox@Gu@2@AEBV?$PxVec3T@M@2@MAEAUPxGeomSweepHit@2@V?$PxFlags@W4Enum@PxHitFlag@physx@@G@2@MPEAUPxQueryThreadContext@2@@Z 0000000180047d30 f   GuSweepTests.obj
 0001:000477f0       ??$gjkPenetration@U?$LocalConvex@VCapsuleV@Gu@physx@@@Gu@physx@@U?$LocalConvex@VBoxV@Gu@physx@@@23@@Gu@physx@@YA?AW4GjkStatus@01@AEBU?$LocalConvex@VCapsuleV@Gu@physx@@@01@AEBU?$LocalConvex@VBoxV@Gu@physx@@@01@AEBT__m128@@2_NPEIAE4AEAEAEAUGjkOutput@01@@Z 00000001800487f0 f i GuSweepTests.obj
 0001:00047860       ??$gjkPenetration@U?$LocalConvex@VCapsuleV@Gu@physx@@@Gu@physx@@U?$LocalConvex@VBoxV@Gu@physx@@@23@@Gu@physx@@YA?AW4GjkStatus@01@AEBU?$LocalConvex@VCapsuleV@Gu@physx@@@01@AEBU?$LocalConvex@VBoxV@Gu@physx@@@01@AEBT__m128@@2_NPEIAE4PEIAT5@5AEAEAEAUGjkOutput@01@@Z 0000000180048860 f i GuSweepTests.obj
 0001:00048ce0       ??$gjkPenetration@U?$RelativeConvex@VBoxV@Gu@physx@@@Gu@physx@@U?$LocalConvex@VBoxV@Gu@physx@@@23@@Gu@physx@@YA?AW4GjkStatus@01@AEBU?$RelativeConvex@VBoxV@Gu@physx@@@01@AEBU?$LocalConvex@VBoxV@Gu@physx@@@01@AEBT__m128@@2_NPEIAE4AEAEAEAUGjkOutput@01@@Z 0000000180049ce0 f i GuSweepTests.obj
 0001:00048d50       ??$gjkPenetration@U?$RelativeConvex@VBoxV@Gu@physx@@@Gu@physx@@U?$LocalConvex@VBoxV@Gu@physx@@@23@@Gu@physx@@YA?AW4GjkStatus@01@AEBU?$RelativeConvex@VBoxV@Gu@physx@@@01@AEBU?$LocalConvex@VBoxV@Gu@physx@@@01@AEBT__m128@@2_NPEIAE4PEIAT5@5AEAEAEAUGjkOutput@01@@Z 0000000180049d50 f i GuSweepTests.obj
 0001:0004a200       ??$gjkRaycast@U?$LocalConvex@VCapsuleV@Gu@physx@@@Gu@physx@@U?$LocalConvex@VBoxV@Gu@physx@@@23@@Gu@physx@@YA_NAEBU?$LocalConvex@VCapsuleV@Gu@physx@@@01@AEBU?$LocalConvex@VBoxV@Gu@physx@@@01@AEBT__m128@@222AEAT4@33M@Z 000000018004b200 f i GuSweepTests.obj
 0001:0004add0       ??$gjkRaycast@U?$LocalConvex@VTriangleV@Gu@physx@@@Gu@physx@@U?$LocalConvex@VBoxV@Gu@physx@@@23@@Gu@physx@@YA_NAEBU?$LocalConvex@VTriangleV@Gu@physx@@@01@AEBU?$LocalConvex@VBoxV@Gu@physx@@@01@AEBT__m128@@222AEAT4@33M@Z 000000018004bdd0 f i GuSweepTests.obj
 0001:0004ba20       ??$gjkRaycast@U?$RelativeConvex@VBoxV@Gu@physx@@@Gu@physx@@U?$LocalConvex@VBoxV@Gu@physx@@@23@@Gu@physx@@YA_NAEBU?$RelativeConvex@VBoxV@Gu@physx@@@01@AEBU?$LocalConvex@VBoxV@Gu@physx@@@01@AEBT__m128@@222AEAT4@33M@Z 000000018004ca20 f i GuSweepTests.obj
 0001:0004c650       ?getSweepFuncTable@Gu@physx@@YAAEBUGeomSweepFuncs@12@XZ 000000018004d650 f   GuSweepTests.obj
 0001:0004c660       ?getSweepMargin@?$LocalConvex@VTetrahedronV@Gu@physx@@@Gu@physx@@UEBA?AT__m128@@XZ 000000018004d660 f i GuCookingTetrahedronMesh.obj
 0001:0004c660       ?getSweepMargin@?$LocalConvex@VTriangleV@Gu@physx@@@Gu@physx@@UEBA?AT__m128@@XZ 000000018004d660 f i GuSweepTests.obj
 0001:0004c660       ?getSweepMargin@?$RelativeConvex@VTriangleV@Gu@physx@@@Gu@physx@@UEBA?AT__m128@@XZ 000000018004d660 f i GuCCDSweepPrimitives.obj
 0001:0004c670       ?registerHeightFields_Sweeps@@YAXXZ 000000018004d670 f   GuSweepTests.obj
 0001:0004c6b0       ?support@?$LocalConvex@VBoxV@Gu@physx@@@Gu@physx@@UEBA?AT__m128@@AEBT4@@Z 000000018004d6b0 f i GuSweepTests.obj
 0001:0004c6e0       ?support@?$LocalConvex@VBoxV@Gu@physx@@@Gu@physx@@UEBA?AT__m128@@AEBT4@AEAH@Z 000000018004d6e0 f i GuSweepTests.obj
 0001:0004c720       ?support@?$LocalConvex@VTriangleV@Gu@physx@@@Gu@physx@@UEBA?AT__m128@@AEBT4@@Z 000000018004d720 f i GuSweepTests.obj
 0001:0004c7b0       ?support@?$LocalConvex@VTriangleV@Gu@physx@@@Gu@physx@@UEBA?AT__m128@@AEBT4@AEAH@Z 000000018004d7b0 f i GuSweepTests.obj
 0001:0004c890       ?supportPoint@?$LocalConvex@VBoxV@Gu@physx@@@Gu@physx@@UEBA?AT__m128@@H@Z 000000018004d890 f i GuSweepTests.obj
 0001:0004c8d0       ?supportPoint@?$LocalConvex@VTetrahedronV@Gu@physx@@@Gu@physx@@UEBA?AT__m128@@H@Z 000000018004d8d0 f i GuCookingTetrahedronMesh.obj
 0001:0004c8d0       ?supportPoint@?$LocalConvex@VTriangleV@Gu@physx@@@Gu@physx@@UEBA?AT__m128@@H@Z 000000018004d8d0 f i GuSweepTests.obj
 0001:0004c8f0       ?sweepBoxTriangles@Gu@physx@@YA_NIPEBVPxTriangle@2@_NAEBVPxBoxGeometry@2@AEBV?$PxTransformT@M@2@AEBV?$PxVec3T@M@2@MAEAUPxGeomSweepHit@2@PEBIMV?$PxFlags@W4Enum@PxHitFlag@physx@@G@2@@Z 000000018004d8f0 f   GuSweepTests.obj
 0001:0004d370       ??$traverseBVH@VClosestDistanceToTrimeshTraversalController@Gu@physx@@@Gu@physx@@YAXPEBUBVHNode@01@AEAVClosestDistanceToTrimeshTraversalController@01@H@Z 000000018004e370 f i GuSDF.obj
 0001:0004d780       ??$traverseBVH@VLineSegmentTrimeshIntersectionTraversalController@Gu@physx@@@Gu@physx@@YAXPEBUBVHNode@01@AEAVLineSegmentTrimeshIntersectionTraversalController@01@H@Z 000000018004e780 f i GuSDF.obj
 0001:0004dc90       ??1SDF@Gu@physx@@QEAA@XZ   000000018004ec90 f   GuSDF.obj
 0001:0004dd20       ??_E?$PxThreadT@V?$PxReflectionAllocator@VPxThreadImpl@physx@@@physx@@@physx@@UEAAPEAXI@Z 000000018004ed20 f i GuSDF.obj
 0001:0004dd20       ??_G?$PxThreadT@V?$PxReflectionAllocator@VPxThreadImpl@physx@@@physx@@@physx@@UEAAPEAXI@Z 000000018004ed20 f i GuSDF.obj
 0001:0004ddc0       ??_EPxRunnable@physx@@UEAAPEAXI@Z 000000018004edc0 f i GuSDF.obj
 0001:0004ddc0       ??_GPxRunnable@physx@@UEAAPEAXI@Z 000000018004edc0 f i GuSDF.obj
 0001:0004ddf0       ?SDFUsingWindingNumbers@Gu@physx@@YAXAEAV?$PxArray@UBVHNode@Gu@physx@@V?$PxReflectionAllocator@UBVHNode@Gu@physx@@@3@@2@AEAV?$PxHashMap@IU?$ClusterApproximationT@MV?$PxVec3T@M@physx@@@Gu@physx@@U?$PxHash@I@3@VPxAllocator@3@@2@PEBV?$PxVec3T@M@2@PEBIIIIIPEAMAEAVGridQueryPointSampler@12@PEAV52@I_N7@Z 000000018004edf0 f   GuSDF.obj
 0001:0004e300       ?SDFUsingWindingNumbers@Gu@physx@@YAXPEBV?$PxVec3T@M@2@PEBIIIIIPEAMV32@3PEAV32@_NI@Z 000000018004f300 f   GuSDF.obj
 0001:0004e610       ?SDFUsingWindingNumbersSparse@Gu@physx@@YAXPEBV?$PxVec3T@M@2@PEBIIIIIAEBV32@2MIAEAV?$PxArray@MV?$PxReflectionAllocator@M@physx@@@2@AEAV?$PxArray@IV?$PxReflectionAllocator@I@physx@@@2@33AEAM5I@Z 000000018004f610 f   GuSDF.obj
 0001:0004f420       ?allocate@?$PxArray@HV?$PxInlineAllocator@$0EAA@V?$PxReflectionAllocator@H@physx@@@physx@@@physx@@IEAAPEAHI@Z 0000000180050420 f i GuSDF.obj
 0001:0004f4f0       ?allocate@?$PxArray@MV?$PxReflectionAllocator@M@physx@@@physx@@IEAAPEAMI@Z 00000001800504f0 f i GuSDF.obj
 0001:0004f5a0       ?allocateSdfs@SDF@Gu@physx@@QEAAPEAMAEBV?$PxVec3T@M@3@AEBMIIIIIIIMMI@Z 00000001800505a0 f   GuSDF.obj
 0001:0004f7a0       ?buildTree@Gu@physx@@YAXPEBIIPEBV?$PxVec3T@M@2@AEAV?$PxArray@UBVHNode@Gu@physx@@V?$PxReflectionAllocator@UBVHNode@Gu@physx@@@3@@2@M@Z 00000001800507a0 f   GuSDF.obj
 0001:0004f9d0       ?computeSDFThreadJob@Gu@physx@@YAPEAXPEAX@Z 00000001800509d0 f   GuSDF.obj
 0001:00050450       ?convertSparseSDFTo3DTextureLayout@Gu@physx@@YAXIIIIPEAIPEBMIAEAV?$PxArray@MV?$PxReflectionAllocator@M@physx@@@2@AEAI33@Z 0000000180051450 f   GuSDF.obj
 0001:00050800       ?create@?$PxHashBase@V?$PxPair@$$CB_KH@physx@@_KU?$PxHash@_K@2@UGetKey@?$PxHashMapBase@_KHU?$PxHash@_K@physx@@VPxAllocator@2@@2@VPxAllocator@2@$00@physx@@QEAAPEAV?$PxPair@$$CB_KH@2@AEB_KAEA_N@Z 0000000180051800 f i GuMeshAnalysis.obj
 0001:00050800       ?create@?$PxHashBase@V?$PxPair@$$CB_KI@physx@@_KU?$PxHash@_K@2@UGetKey@?$PxHashMapBase@_KIU?$PxHash@_K@physx@@VPxAllocator@2@@2@VPxAllocator@2@$00@physx@@QEAAPEAV?$PxPair@$$CB_KI@2@AEB_KAEA_N@Z 0000000180051800 f i GuSDF.obj
 0001:00050990       ?createTriangles@Gu@physx@@YAXHHHMQEAMAEBV?$PxHashMap@_KIU?$PxHash@_K@physx@@VPxAllocator@2@@2@AEBV?$PxArray@V?$PxVec3T@M@physx@@V?$PxReflectionAllocator@V?$PxVec3T@M@physx@@@2@@2@AEAV?$PxArray@IV?$PxReflectionAllocator@I@physx@@@2@@Z 0000000180051990 f   GuSDF.obj
 0001:000511f0       ?extractIsosurfaceFromSDF@Gu@physx@@YAXAEBVSDF@12@AEAV?$PxArray@V?$PxVec3T@M@physx@@V?$PxReflectionAllocator@V?$PxVec3T@M@physx@@@2@@2@AEAV?$PxArray@IV?$PxReflectionAllocator@I@physx@@@2@@Z 00000001800521f0 f   GuSDF.obj
 0001:00052fc0       ?fixSdfForNonClosedGeometry@Gu@physx@@YAXIIIPEAMAEBV?$PxVec3T@M@2@@Z 0000000180053fc0 f   GuSDF.obj
 0001:000540a0       ?generatePointInCell@Gu@physx@@YA_NAEBVSDF@12@HHHAEAV?$PxVec3T@M@2@QEAY111M@Z 00000001800550a0 f   GuSDF.obj
 0001:000544f0       ?growAndPushBack@?$PxArray@HV?$PxInlineAllocator@$0EAA@V?$PxReflectionAllocator@H@physx@@@physx@@@physx@@IEAAAEAHAEBH@Z 00000001800554f0 f i GuSDF.obj
 0001:000545e0       ?growAndPushBack@?$PxArray@MV?$PxReflectionAllocator@M@physx@@@physx@@IEAAAEAMAEBM@Z 00000001800555e0 f i GuSDF.obj
 0001:000546c0       ?growAndPushBack@?$PxArray@PEAV?$PxThreadT@V?$PxReflectionAllocator@VPxThreadImpl@physx@@@physx@@@physx@@V?$PxReflectionAllocator@PEAV?$PxThreadT@V?$PxReflectionAllocator@VPxThreadImpl@physx@@@physx@@@physx@@@2@@physx@@IEAAAEAPEAV?$PxThreadT@V?$PxReflectionAllocator@VPxThreadImpl@physx@@@physx@@@2@AEBQEAV32@@Z 00000001800556c0 f i GuSDF.obj
 0001:00054800       ?growAndPushBack@?$PxArray@UMutation@Gu@physx@@V?$PxReflectionAllocator@UMutation@Gu@physx@@@3@@physx@@IEAAAEAUMutation@Gu@2@AEBU342@@Z 0000000180055800 f i GuSDF.obj
 0001:00054940       ?growAndPushBack@?$PxArray@URange@Gu@physx@@V?$PxReflectionAllocator@URange@Gu@physx@@@3@@physx@@IEAAAEAURange@Gu@2@AEBU342@@Z 0000000180055940 f i GuSDF.obj
 0001:00054aa0       ?growAndPushBack@?$PxArray@USDFCalculationData@Gu@physx@@V?$PxReflectionAllocator@USDFCalculationData@Gu@physx@@@3@@physx@@IEAAAEAUSDFCalculationData@Gu@2@AEBU342@@Z 0000000180055aa0 f i GuSDF.obj
 0001:00054c50       ?growAndPushBack@?$PxArray@V?$PxVec3T@M@physx@@V?$PxReflectionAllocator@V?$PxVec3T@M@physx@@@2@@physx@@IEAAAEAV?$PxVec3T@M@2@AEBV32@@Z 0000000180055c50 f i GuSDF.obj
 0001:00054e50       ?recreate@?$PxArray@MV?$PxReflectionAllocator@M@physx@@@physx@@IEAAXI@Z 0000000180055e50 f i GuSDF.obj
 0001:00054f30       ?reserveInternal@?$PxHashBase@V?$PxPair@$$CBIU?$ClusterApproximationT@MV?$PxVec3T@M@physx@@@Gu@physx@@@physx@@IU?$PxHash@I@2@UGetKey@?$PxHashMapBase@IU?$ClusterApproximationT@MV?$PxVec3T@M@physx@@@Gu@physx@@U?$PxHash@I@3@VPxAllocator@3@@2@VPxAllocator@2@$00@physx@@AEAAXI@Z 0000000180055f30 f i GuSDF.obj
 0001:00055130       ?reserveInternal@?$PxHashBase@V?$PxPair@$$CB_KH@physx@@_KU?$PxHash@_K@2@UGetKey@?$PxHashMapBase@_KHU?$PxHash@_K@physx@@VPxAllocator@2@@2@VPxAllocator@2@$00@physx@@AEAAXI@Z 0000000180056130 f i GuMeshAnalysis.obj
 0001:00055130       ?reserveInternal@?$PxHashBase@V?$PxPair@$$CB_KI@physx@@_KU?$PxHash@_K@2@UGetKey@?$PxHashMapBase@_KIU?$PxHash@_K@physx@@VPxAllocator@2@@2@VPxAllocator@2@$00@physx@@AEAAXI@Z 0000000180056130 f i GuSDF.obj
 0001:00055310       ?resize@?$PxArray@MV?$PxReflectionAllocator@M@physx@@@physx@@QEAAXIAEBM@Z 0000000180056310 f i GuSDF.obj
 0001:00055420       ?sampleSDFDirect@?$DenseSDF@M@Gu@physx@@QEAAMAEBV?$PxVec3T@M@3@@Z 0000000180056420 f i GuSDF.obj
 0001:000555b0       ?windingNumbers@Gu@physx@@YAXPEBV?$PxVec3T@M@2@PEBIIIIIPEAMV32@3PEAV32@@Z 00000001800565b0 f   GuSDF.obj
 0001:00055a00       ?windingNumbersInsideCheck@Gu@physx@@YAXPEBV?$PxVec3T@M@2@PEBIIIIIPEA_NV32@3PEAV32@@Z 0000000180056a00 f   GuSDF.obj
 0001:000563c0       ??0MeshData@physx@@QEAA@AEBVPxTriangleMeshDesc@1@@Z 00000001800573c0 f i GuCookingSDF.obj
 0001:000564a0       ?GetBounds@MeshData@physx@@QEBAXAEAV?$PxVec3T@M@2@0@Z 00000001800574a0 f i GuCookingSDF.obj
 0001:00056740       ?buildSDF@physx@@YA_NAEAVPxTriangleMeshDesc@1@AEAV?$PxArray@MV?$PxReflectionAllocator@M@physx@@@1@AEAV?$PxArray@EV?$PxReflectionAllocator@E@physx@@@1@AEAV?$PxArray@IV?$PxReflectionAllocator@I@physx@@@1@@Z 0000000180057740 f   GuCookingSDF.obj
 0001:00057070       ?quantizeSparseSDF@physx@@YAXW4Enum@PxSdfBitsPerSubgridPixel@1@AEBV?$PxArray@MV?$PxReflectionAllocator@M@physx@@@1@AEAV?$PxArray@EV?$PxReflectionAllocator@E@physx@@@1@MM@Z 0000000180058070 f   GuCookingSDF.obj
 0001:00057150       ?recreate@?$PxArray@EV?$PxReflectionAllocator@E@physx@@@physx@@IEAAXI@Z 0000000180058150 f i GuCookingSDF.obj
 0001:00057240       ?recreate@?$PxArray@V?$PxVec3T@M@physx@@V?$PxReflectionAllocator@V?$PxVec3T@M@physx@@@2@@physx@@IEAAXI@Z 0000000180058240 f i GuCookingSDF.obj
 0001:00057420       ?resize@?$PxArray@EV?$PxReflectionAllocator@E@physx@@@physx@@QEAAXIAEBE@Z 0000000180058420 f i GuCookingSDF.obj
 0001:000574e0       ?resize@?$PxArray@IV?$PxReflectionAllocator@I@physx@@@physx@@QEAAXIAEBI@Z 00000001800584e0 f i GuCookingSDF.obj
 0001:000575a0       ?resize@?$PxArray@V?$PxVec3T@M@physx@@V?$PxReflectionAllocator@V?$PxVec3T@M@physx@@@2@@physx@@QEAAXIAEBV?$PxVec3T@M@2@@Z 00000001800585a0 f i GuCookingSDF.obj
 0001:00057690       ??$gjk@U?$RelativeConvex@UCustomConvexV@@@Gu@physx@@U?$LocalConvex@UCustomConvexV@@@23@@Gu@physx@@YA?AW4GjkStatus@01@AEBU?$RelativeConvex@UCustomConvexV@@@01@AEBU?$LocalConvex@UCustomConvexV@@@01@AEBT__m128@@2AEAT5@333@Z 0000000180058690 f i GuGjkQuery.obj
 0001:00058420       ??$gjkPenetration@U?$RelativeConvex@UCustomConvexV@@@Gu@physx@@U?$LocalConvex@UCustomConvexV@@@23@@Gu@physx@@YA?AW4GjkStatus@01@AEBU?$RelativeConvex@UCustomConvexV@@@01@AEBU?$LocalConvex@UCustomConvexV@@@01@AEBT__m128@@2_NPEIAE4PEIAT5@5AEAEAEAUGjkOutput@01@@Z 0000000180059420 f i GuGjkQuery.obj
 0001:00059990       ??$gjkPenetration@U?$RelativeConvex@UCustomConvexV@@@Gu@physx@@U?$LocalConvex@UCustomConvexV@@@23@@Gu@physx@@YA?AW4GjkStatus@01@AEBU?$RelativeConvex@UCustomConvexV@@@01@AEBU?$LocalConvex@UCustomConvexV@@@01@AEBT__m128@@2_NPEIAT5@4AEAEAEAUGjkOutput@01@@Z 000000018005a990 f i GuGjkQuery.obj
 0001:000599f0       ??$gjkRaycast@U?$RelativeConvex@UCustomConvexV@@@Gu@physx@@U?$LocalConvex@UCustomConvexV@@@23@@Gu@physx@@YA_NAEBU?$RelativeConvex@UCustomConvexV@@@01@AEBU?$LocalConvex@UCustomConvexV@@@01@AEBT__m128@@222AEAT4@33M@Z 000000018005a9f0 f i GuGjkQuery.obj
 0001:0005a750       ??$gjkRaycast@U?$RelativeConvex@UCustomConvexV@@@Gu@physx@@U?$LocalConvex@UPointConvexV@@@23@@Gu@physx@@YA_NAEBU?$RelativeConvex@UCustomConvexV@@@01@AEBU?$LocalConvex@UPointConvexV@@@01@AEBT__m128@@222AEAT4@33M@Z 000000018005b750 f i GuGjkQuery.obj
 0001:0005b390       ?overlap@PxGjkQuery@physx@@SA_NAEBUSupport@12@0AEBV?$PxTransformT@M@2@1@Z 000000018005c390 f   GuGjkQuery.obj
 0001:0005b710       ?proximityInfo@PxGjkQuery@physx@@SA_NAEBUSupport@12@0AEBV?$PxTransformT@M@2@1MMAEAV?$PxVec3T@M@2@22AEAM@Z 000000018005c710 f   GuGjkQuery.obj
 0001:0005c490       ?raycast@PxGjkQuery@physx@@SA_NAEBUSupport@12@AEBV?$PxTransformT@M@2@AEBV?$PxVec3T@M@2@2MAEAMAEAV52@4@Z 000000018005d490 f   GuGjkQuery.obj
 0001:0005c930       ?support@?$LocalConvex@UCustomConvexV@@@Gu@physx@@UEBA?AT__m128@@AEBT4@@Z 000000018005d930 f i GuGjkQuery.obj
 0001:0005c9b0       ?support@?$LocalConvex@UCustomConvexV@@@Gu@physx@@UEBA?AT__m128@@AEBT4@AEAH@Z 000000018005d9b0 f i GuGjkQuery.obj
 0001:0005ca30       ?support@?$LocalConvex@UPointConvexV@@@Gu@physx@@UEBA?AT__m128@@AEBT4@@Z 000000018005da30 f i GuGjkQuery.obj
 0001:0005ca30       ?supportPoint@?$LocalConvex@UPointConvexV@@@Gu@physx@@UEBA?AT__m128@@H@Z 000000018005da30 f i GuGjkQuery.obj
 0001:0005ca40       ?support@?$LocalConvex@UPointConvexV@@@Gu@physx@@UEBA?AT__m128@@AEBT4@AEAH@Z 000000018005da40 f i GuGjkQuery.obj
 0001:0005ca60       ?support@?$RelativeConvex@UCustomConvexV@@@Gu@physx@@UEBA?AT__m128@@AEBT4@@Z 000000018005da60 f i GuGjkQuery.obj
 0001:0005cb30       ?support@?$RelativeConvex@UCustomConvexV@@@Gu@physx@@UEBA?AT__m128@@AEBT4@AEAH@Z 000000018005db30 f i GuGjkQuery.obj
 0001:0005cc10       ?supportPoint@?$LocalConvex@UCustomConvexV@@@Gu@physx@@UEBA?AT__m128@@H@Z 000000018005dc10 f i GuGjkQuery.obj
 0001:0005cc80       ?supportPoint@?$RelativeConvex@UCustomConvexV@@@Gu@physx@@UEBA?AT__m128@@H@Z 000000018005dc80 f i GuGjkQuery.obj
 0001:0005cd20       ?sweep@PxGjkQuery@physx@@SA_NAEBUSupport@12@0AEBV?$PxTransformT@M@2@1AEBV?$PxVec3T@M@2@MAEAMAEAV52@4@Z 000000018005dd20 f   GuGjkQuery.obj
 0001:0005d4c0       ??$approximateCluster@MV?$PxVec3T@M@physx@@@Gu@physx@@YAXAEBV?$PxArray@HV?$PxReflectionAllocator@H@physx@@@1@IIPEBIPEBV?$PxVec3T@M@1@AEBV?$PxArray@MV?$PxReflectionAllocator@M@physx@@@1@AEBV?$PxArray@V?$PxVec3T@M@physx@@V?$PxReflectionAllocator@V?$PxVec3T@M@physx@@@2@@1@4AEAU?$ClusterApproximationT@MV?$PxVec3T@M@physx@@@01@@Z 000000018005e4c0 f i GuWindingNumber.obj
 0001:0005db00       ??$copy@V?$PxReflectionAllocator@M@physx@@@?$PxArray@MV?$PxReflectionAllocator@M@physx@@@physx@@IEAAXAEBV01@@Z 000000018005eb00 f i GuWindingNumber.obj
 0001:0005db60       ??$precomputeClusterInformation@MV?$PxVec3T@M@physx@@@Gu@physx@@YAXHPEBUBVHNode@01@PEBIIPEBV?$PxVec3T@M@1@AEAV?$PxHashMap@IU?$ClusterApproximationT@MV?$PxVec3T@M@physx@@@Gu@physx@@U?$PxHash@I@3@VPxAllocator@3@@1@V?$PxArray@MV?$PxReflectionAllocator@M@physx@@@1@AEBV?$PxArray@V?$PxVec3T@M@physx@@V?$PxReflectionAllocator@V?$PxVec3T@M@physx@@@2@@1@5@Z 000000018005eb60 f i GuWindingNumber.obj
 0001:0005df30       ??$precomputeClusterInformation@MV?$PxVec3T@M@physx@@@Gu@physx@@YAXPEBUBVHNode@01@PEBIIPEBV?$PxVec3T@M@1@AEAV?$PxHashMap@IU?$ClusterApproximationT@MV?$PxVec3T@M@physx@@@Gu@physx@@U?$PxHash@I@3@VPxAllocator@3@@1@H@Z 000000018005ef30 f i GuWindingNumber.obj
 0001:0005e330       ??$traverseBVH@V?$WindingNumberTraversalController@MV?$PxVec3T@M@physx@@@Gu@physx@@@Gu@physx@@YAXPEBUBVHNode@01@AEAV?$WindingNumberTraversalController@MV?$PxVec3T@M@physx@@@01@H@Z 000000018005f330 f i GuWindingNumber.obj
 0001:0005e8d0       ?allocate@?$PxArray@HV?$PxReflectionAllocator@H@physx@@@physx@@IEAAPEAHI@Z 000000018005f8d0 f i GuWindingNumber.obj
 0001:0005e980       ?computeWindingNumber@Gu@physx@@YAMPEBUBVHNode@12@AEBV?$PxVec3T@M@2@AEBV?$PxHashMap@IU?$ClusterApproximationT@MV?$PxVec3T@M@physx@@@Gu@physx@@U?$PxHash@I@3@VPxAllocator@3@@2@PEBIPEBV42@@Z 000000018005f980 f   GuWindingNumber.obj
 0001:0005e9f0       ?computeWindingNumber@Gu@physx@@YAMPEBUBVHNode@12@AEBV?$PxVec3T@M@2@MAEBV?$PxHashMap@IU?$ClusterApproximationT@MV?$PxVec3T@M@physx@@@Gu@physx@@U?$PxHash@I@3@VPxAllocator@3@@2@PEBIPEBV42@@Z 000000018005f9f0 f   GuWindingNumber.obj
 0001:0005ea60       ?copy@?$PxArray@MV?$PxReflectionAllocator@M@physx@@@physx@@KAXPEAM0PEBM@Z 000000018005fa60 f i GuWindingNumber.obj
 0001:0005eac0       ?create@?$PxHashBase@V?$PxPair@$$CBIU?$ClusterApproximationT@MV?$PxVec3T@M@physx@@@Gu@physx@@@physx@@IU?$PxHash@I@2@UGetKey@?$PxHashMapBase@IU?$ClusterApproximationT@MV?$PxVec3T@M@physx@@@Gu@physx@@U?$PxHash@I@3@VPxAllocator@3@@2@VPxAllocator@2@$00@physx@@QEAAPEAV?$PxPair@$$CBIU?$ClusterApproximationT@MV?$PxVec3T@M@physx@@@Gu@physx@@@2@AEBIAEA_N@Z 000000018005fac0 f i GuWindingNumber.obj
 0001:0005ec10       ?growAndPushBack@?$PxArray@HV?$PxReflectionAllocator@H@physx@@@physx@@IEAAAEAHAEBH@Z 000000018005fc10 f i GuWindingNumber.obj
 0001:0005ecd0       ?growAndPushBack@?$PxArray@USection@Gu@physx@@V?$PxReflectionAllocator@USection@Gu@physx@@@3@@physx@@IEAAAEAUSection@Gu@2@AEBU342@@Z 000000018005fcd0 f i GuWindingNumber.obj
 0001:0005ee10       ?precomputeClusterInformation@Gu@physx@@YAXPEBUBVHNode@12@PEBIIPEBV?$PxVec3T@M@2@AEAV?$PxHashMap@IU?$ClusterApproximationT@MV?$PxVec3T@M@physx@@@Gu@physx@@U?$PxHash@I@3@VPxAllocator@3@@2@H@Z 000000018005fe10 f   GuWindingNumber.obj
 0001:0005ee20       ?recreate@?$PxArray@HV?$PxReflectionAllocator@H@physx@@@physx@@IEAAXI@Z 000000018005fe20 f i GuWindingNumber.obj
 0001:0005ef50       ?SweepAnyShapeHeightfield@Gu@physx@@YAMAEBUCCDShape@12@0AEBV?$PxTransformT@M@2@111MAEAV?$PxVec3T@M@2@2MAEAIM@Z 000000018005ff50 f   GuCCDSweepConvexMesh.obj
 0001:000604f0       ?SweepAnyShapeMesh@Gu@physx@@YAMAEBUCCDShape@12@0AEBV?$PxTransformT@M@2@111MAEAV?$PxVec3T@M@2@2MAEAIM@Z 00000001800614f0 f   GuCCDSweepConvexMesh.obj
 0001:00061b30       ?SweepEstimateAnyShapeHeightfield@Gu@physx@@YAMAEBUCCDShape@12@0MM@Z 0000000180062b30 f   GuCCDSweepConvexMesh.obj
 0001:000627b0       ?SweepEstimateAnyShapeMesh@Gu@physx@@YAMAEBUCCDShape@12@0MM@Z 00000001800637b0 f   GuCCDSweepConvexMesh.obj
 0001:00062a50       ?allocate@?$PxArray@IV?$PxInlineAllocator@$0BAA@V?$PxReflectionAllocator@I@physx@@@physx@@@physx@@IEAAPEAII@Z 0000000180063a50 f i GuCCDSweepConvexMesh.obj
 0001:00063540       ?growAndPushBack@?$PxArray@IV?$PxInlineAllocator@$0BAA@V?$PxReflectionAllocator@I@physx@@@physx@@@physx@@IEAAAEAIAEBI@Z 0000000180064540 f i GuCCDSweepConvexMesh.obj
 0001:00063b80       ?recreate@?$PxArray@IV?$PxInlineAllocator@$0BAA@V?$PxReflectionAllocator@I@physx@@@physx@@@physx@@IEAAXI@Z 0000000180064b80 f i GuCCDSweepConvexMesh.obj
 0001:00063cb0       ?resize@?$PxArray@IV?$PxInlineAllocator@$0BAA@V?$PxReflectionAllocator@I@physx@@@physx@@@physx@@QEAAXIAEBI@Z 0000000180064cb0 f i GuCCDSweepConvexMesh.obj
 0001:00063d80       ?transformBoxOrthonormal@physx@@YA?AVBox@Gu@1@AEBV231@AEBV?$PxTransformT@M@1@@Z 0000000180064d80 f i GuCCDSweepConvexMesh.obj
 0001:00064210       ?UnimplementedSweep@Gu@physx@@YAMAEBUCCDShape@12@0AEBV?$PxTransformT@M@2@111MAEAV?$PxVec3T@M@2@2MAEAIM@Z 0000000180065210 f   GuCCDSweepPrimitives.obj
 0001:00067db0       ?UnimplementedTriangleSweep@Gu@physx@@YAMAEBVPxGeometry@2@0AEBV?$PxTransformT@M@2@111MAEAV?$PxVec3T@M@2@2AEBVFastVertex2ShapeScaling@Cm@2@AEAVTriangleV@12@M@Z 0000000180068db0 f   GuCCDSweepPrimitives.obj
 0001:00067dc0       ??$SweepGeomTriangles@VCapsuleV@Gu@physx@@@Gu@physx@@YAMAEBVPxGeometry@1@0AEBV?$PxTransformT@M@1@111MAEAV?$PxVec3T@M@1@2AEBVFastVertex2ShapeScaling@Cm@1@AEAVTriangleV@01@M@Z 0000000180068dc0 f i GuCCDSweepPrimitives.obj
 0001:000684f0       ??$SweepGeomTriangles@VBoxV@Gu@physx@@@Gu@physx@@YAMAEBVPxGeometry@1@0AEBV?$PxTransformT@M@1@111MAEAV?$PxVec3T@M@1@2AEBVFastVertex2ShapeScaling@Cm@1@AEAVTriangleV@01@M@Z 00000001800694f0 f i GuCCDSweepPrimitives.obj
 0001:00068c40       ??$SweepGeomTriangles@VConvexHullV@Gu@physx@@@Gu@physx@@YAMAEBVPxGeometry@1@0AEBV?$PxTransformT@M@1@111MAEAV?$PxVec3T@M@1@2AEBVFastVertex2ShapeScaling@Cm@1@AEAVTriangleV@01@M@Z 0000000180069c40 f i GuCCDSweepPrimitives.obj
 0001:00069730       ?supportPoint@?$RelativeConvex@VCapsuleV@Gu@physx@@@Gu@physx@@UEBA?AT__m128@@H@Z 000000018006a730 f i GuCCDSweepPrimitives.obj
 0001:00069790       ?support@?$RelativeConvex@VCapsuleV@Gu@physx@@@Gu@physx@@UEBA?AT__m128@@AEBT4@@Z 000000018006a790 f i GuCCDSweepPrimitives.obj
 0001:00069840       ?support@?$RelativeConvex@VCapsuleV@Gu@physx@@@Gu@physx@@UEBA?AT__m128@@AEBT4@AEAH@Z 000000018006a840 f i GuCCDSweepPrimitives.obj
 0001:00069900       ?supportPoint@?$RelativeConvex@VTriangleV@Gu@physx@@@Gu@physx@@UEBA?AT__m128@@H@Z 000000018006a900 f i GuCCDSweepPrimitives.obj
 0001:00069950       ?support@?$RelativeConvex@VTriangleV@Gu@physx@@@Gu@physx@@UEBA?AT__m128@@AEBT4@@Z 000000018006a950 f i GuCCDSweepPrimitives.obj
 0001:00069a50       ?support@?$RelativeConvex@VTriangleV@Gu@physx@@@Gu@physx@@UEBA?AT__m128@@AEBT4@AEAH@Z 000000018006aa50 f i GuCCDSweepPrimitives.obj
 0001:00069b90       ??$gjkPenetration@U?$RelativeConvex@VCapsuleV@Gu@physx@@@Gu@physx@@U?$LocalConvex@VBoxV@Gu@physx@@@23@@Gu@physx@@YA?AW4GjkStatus@01@AEBU?$RelativeConvex@VCapsuleV@Gu@physx@@@01@AEBU?$LocalConvex@VBoxV@Gu@physx@@@01@AEBT__m128@@2_NPEIAE4AEAEAEAUGjkOutput@01@@Z 000000018006ab90 f i GuCCDSweepPrimitives.obj
 0001:00069c00       ??$gjkPenetration@U?$RelativeConvex@VCapsuleV@Gu@physx@@@Gu@physx@@U?$LocalConvex@VBoxV@Gu@physx@@@23@@Gu@physx@@YA?AW4GjkStatus@01@AEBU?$RelativeConvex@VCapsuleV@Gu@physx@@@01@AEBU?$LocalConvex@VBoxV@Gu@physx@@@01@AEBT__m128@@2_NPEIAE4PEIAT5@5AEAEAEAUGjkOutput@01@@Z 000000018006ac00 f i GuCCDSweepPrimitives.obj
 0001:0006b100       ??$gjkPenetration@U?$RelativeConvex@VCapsuleV@Gu@physx@@@Gu@physx@@U?$LocalConvex@VCapsuleV@Gu@physx@@@23@@Gu@physx@@YA?AW4GjkStatus@01@AEBU?$RelativeConvex@VCapsuleV@Gu@physx@@@01@AEBU?$LocalConvex@VCapsuleV@Gu@physx@@@01@AEBT__m128@@2_NPEIAE4AEAEAEAUGjkOutput@01@@Z 000000018006c100 f i GuCCDSweepPrimitives.obj
 0001:0006b170       ??$gjkPenetration@U?$RelativeConvex@VCapsuleV@Gu@physx@@@Gu@physx@@U?$LocalConvex@VCapsuleV@Gu@physx@@@23@@Gu@physx@@YA?AW4GjkStatus@01@AEBU?$RelativeConvex@VCapsuleV@Gu@physx@@@01@AEBU?$LocalConvex@VCapsuleV@Gu@physx@@@01@AEBT__m128@@2_NPEIAE4PEIAT5@5AEAEAEAUGjkOutput@01@@Z 000000018006c170 f i GuCCDSweepPrimitives.obj
 0001:0006c660       ??$gjkPenetration@U?$RelativeConvex@VCapsuleV@Gu@physx@@@Gu@physx@@U?$LocalConvex@VConvexHullV@Gu@physx@@@23@@Gu@physx@@YA?AW4GjkStatus@01@AEBU?$RelativeConvex@VCapsuleV@Gu@physx@@@01@AEBU?$LocalConvex@VConvexHullV@Gu@physx@@@01@AEBT__m128@@2_NPEIAE4AEAEAEAUGjkOutput@01@@Z 000000018006d660 f i GuCCDSweepPrimitives.obj
 0001:0006c6d0       ??$gjkPenetration@U?$RelativeConvex@VCapsuleV@Gu@physx@@@Gu@physx@@U?$LocalConvex@VConvexHullV@Gu@physx@@@23@@Gu@physx@@YA?AW4GjkStatus@01@AEBU?$RelativeConvex@VCapsuleV@Gu@physx@@@01@AEBU?$LocalConvex@VConvexHullV@Gu@physx@@@01@AEBT__m128@@2_NPEIAE4PEIAT5@5AEAEAEAUGjkOutput@01@@Z 000000018006d6d0 f i GuCCDSweepPrimitives.obj
 0001:0006dc80       ??$gjkPenetration@U?$RelativeConvex@VTriangleV@Gu@physx@@@Gu@physx@@U?$LocalConvex@VBoxV@Gu@physx@@@23@@Gu@physx@@YA?AW4GjkStatus@01@AEBU?$RelativeConvex@VTriangleV@Gu@physx@@@01@AEBU?$LocalConvex@VBoxV@Gu@physx@@@01@AEBT__m128@@2_NPEIAE4AEAEAEAUGjkOutput@01@@Z 000000018006ec80 f i GuCCDSweepPrimitives.obj
 0001:0006dcf0       ??$gjkPenetration@U?$RelativeConvex@VTriangleV@Gu@physx@@@Gu@physx@@U?$LocalConvex@VBoxV@Gu@physx@@@23@@Gu@physx@@YA?AW4GjkStatus@01@AEBU?$RelativeConvex@VTriangleV@Gu@physx@@@01@AEBU?$LocalConvex@VBoxV@Gu@physx@@@01@AEBT__m128@@2_NPEIAE4PEIAT5@5AEAEAEAUGjkOutput@01@@Z 000000018006ecf0 f i GuCCDSweepPrimitives.obj
 0001:0006f210       ??$gjkPenetration@U?$RelativeConvex@VTriangleV@Gu@physx@@@Gu@physx@@U?$LocalConvex@VCapsuleV@Gu@physx@@@23@@Gu@physx@@YA?AW4GjkStatus@01@AEBU?$RelativeConvex@VTriangleV@Gu@physx@@@01@AEBU?$LocalConvex@VCapsuleV@Gu@physx@@@01@AEBT__m128@@2_NPEIAE4AEAEAEAUGjkOutput@01@@Z 0000000180070210 f i GuCCDSweepPrimitives.obj
 0001:0006f280       ??$gjkPenetration@U?$RelativeConvex@VTriangleV@Gu@physx@@@Gu@physx@@U?$LocalConvex@VCapsuleV@Gu@physx@@@23@@Gu@physx@@YA?AW4GjkStatus@01@AEBU?$RelativeConvex@VTriangleV@Gu@physx@@@01@AEBU?$LocalConvex@VCapsuleV@Gu@physx@@@01@AEBT__m128@@2_NPEIAE4PEIAT5@5AEAEAEAUGjkOutput@01@@Z 0000000180070280 f i GuCCDSweepPrimitives.obj
 0001:000707a0       ??$gjkPenetration@U?$RelativeConvex@VTriangleV@Gu@physx@@@Gu@physx@@U?$LocalConvex@VConvexHullV@Gu@physx@@@23@@Gu@physx@@YA?AW4GjkStatus@01@AEBU?$RelativeConvex@VTriangleV@Gu@physx@@@01@AEBU?$LocalConvex@VConvexHullV@Gu@physx@@@01@AEBT__m128@@2_NPEIAE4AEAEAEAUGjkOutput@01@@Z 00000001800717a0 f i GuCCDSweepPrimitives.obj
 0001:00070810       ??$gjkPenetration@U?$RelativeConvex@VTriangleV@Gu@physx@@@Gu@physx@@U?$LocalConvex@VConvexHullV@Gu@physx@@@23@@Gu@physx@@YA?AW4GjkStatus@01@AEBU?$RelativeConvex@VTriangleV@Gu@physx@@@01@AEBU?$LocalConvex@VConvexHullV@Gu@physx@@@01@AEBT__m128@@2_NPEIAE4PEIAT5@5AEAEAEAUGjkOutput@01@@Z 0000000180071810 f i GuCCDSweepPrimitives.obj
 0001:00071dd0       ??$gjkRaycast@U?$RelativeConvex@VCapsuleV@Gu@physx@@@Gu@physx@@U?$LocalConvex@VBoxV@Gu@physx@@@23@@Gu@physx@@YA_NAEBU?$RelativeConvex@VCapsuleV@Gu@physx@@@01@AEBU?$LocalConvex@VBoxV@Gu@physx@@@01@AEBT__m128@@222AEAT4@33M@Z 0000000180072dd0 f i GuCCDSweepPrimitives.obj
 0001:00072a40       ??$gjkRaycast@U?$RelativeConvex@VCapsuleV@Gu@physx@@@Gu@physx@@U?$LocalConvex@VCapsuleV@Gu@physx@@@23@@Gu@physx@@YA_NAEBU?$RelativeConvex@VCapsuleV@Gu@physx@@@01@AEBU?$LocalConvex@VCapsuleV@Gu@physx@@@01@AEBT__m128@@222AEAT4@33M@Z 0000000180073a40 f i GuCCDSweepPrimitives.obj
 0001:00073730       ??$gjkRaycast@U?$RelativeConvex@VCapsuleV@Gu@physx@@@Gu@physx@@U?$LocalConvex@VConvexHullV@Gu@physx@@@23@@Gu@physx@@YA_NAEBU?$RelativeConvex@VCapsuleV@Gu@physx@@@01@AEBU?$LocalConvex@VConvexHullV@Gu@physx@@@01@AEBT__m128@@222AEAT4@33M@Z 0000000180074730 f i GuCCDSweepPrimitives.obj
 0001:00074530       ??$gjkRaycast@U?$RelativeConvex@VTriangleV@Gu@physx@@@Gu@physx@@U?$LocalConvex@VBoxV@Gu@physx@@@23@@Gu@physx@@YA_NAEBU?$RelativeConvex@VTriangleV@Gu@physx@@@01@AEBU?$LocalConvex@VBoxV@Gu@physx@@@01@AEBT__m128@@222AEAT4@33M@Z 0000000180075530 f i GuCCDSweepPrimitives.obj
 0001:00075240       ??$gjkRaycast@U?$RelativeConvex@VTriangleV@Gu@physx@@@Gu@physx@@U?$LocalConvex@VCapsuleV@Gu@physx@@@23@@Gu@physx@@YA_NAEBU?$RelativeConvex@VTriangleV@Gu@physx@@@01@AEBU?$LocalConvex@VCapsuleV@Gu@physx@@@01@AEBT__m128@@222AEAT4@33M@Z 0000000180076240 f i GuCCDSweepPrimitives.obj
 0001:00075fc0       ??$gjkRaycast@U?$RelativeConvex@VTriangleV@Gu@physx@@@Gu@physx@@U?$LocalConvex@VConvexHullV@Gu@physx@@@23@@Gu@physx@@YA_NAEBU?$RelativeConvex@VTriangleV@Gu@physx@@@01@AEBU?$LocalConvex@VConvexHullV@Gu@physx@@@01@AEBT__m128@@222AEAT4@33M@Z 0000000180076fc0 f i GuCCDSweepPrimitives.obj
 0001:00076e80       ?SweepShapeShape@Gu@physx@@YAMAEBUCCDShape@12@0AEBV?$PxTransformT@M@2@111MAEAV?$PxVec3T@M@2@2MAEAIM@Z 0000000180077e80 f   GuCCDSweepPrimitives.obj
 0001:00076ea0       ?SweepShapeTriangle@Gu@physx@@YAMAEBVPxGeometry@2@0AEBV?$PxTransformT@M@2@111MAEAV?$PxVec3T@M@2@2AEBVFastVertex2ShapeScaling@Cm@2@AEAVTriangleV@12@M@Z 0000000180077ea0 f   GuCCDSweepPrimitives.obj
 0001:00076ec0       ?barycentricCoordinates@Gu@physx@@YAXAEBT__m128@@000AEAT3@1@Z 0000000180077ec0 f   GuBarycentricCoordinates.obj
 0001:00077000       ?barycentricCoordinates@Gu@physx@@YAXAEBT__m128@@00AEAT3@@Z 0000000180078000 f   GuBarycentricCoordinates.obj
 0001:00077070       ??$?_UV?$PxReflectionAllocator@VAdjTriangle@Gu@physx@@@physx@@@PxUserAllocated@physx@@SAPEAX_KV?$PxReflectionAllocator@VAdjTriangle@Gu@physx@@@1@PEBDH@Z 0000000180078070 f i GuAdjacencies.obj
 0001:00077150       ??0AdjacenciesBuilder@Gu@physx@@QEAA@XZ 0000000180078150 f   GuAdjacencies.obj
 0001:00077160       ??1AdjacenciesBuilder@Gu@physx@@QEAA@XZ 0000000180078160 f   GuAdjacencies.obj
 0001:000772b0       ?ComputeNbBoundaryEdges@Adjacencies@Gu@physx@@QEBAIXZ 00000001800782b0 f   GuAdjacencies.obj
 0001:00077540       ?Init@AdjacenciesBuilder@Gu@physx@@QEAA_NAEBUADJACENCIESCREATE@23@@Z 0000000180078540 f   GuAdjacencies.obj
 0001:00077aa0       ??0EdgeList@Gu@physx@@QEAA@XZ 0000000180078aa0 f   GuEdgeList.obj
 0001:00077ac0       ??1EdgeList@Gu@physx@@QEAA@XZ 0000000180078ac0 f   GuEdgeList.obj
 0001:00077b70       ?computeActiveEdges@EdgeList@Gu@physx@@AEAA_NIPEBIPEBGPEBV?$PxVec3T@M@3@M@Z 0000000180078b70 f   GuEdgeList.obj
 0001:00078f00       ?createEdgesToFaces@EdgeList@Gu@physx@@AEAA_NIPEBIPEBG@Z 0000000180079f00 f   GuEdgeList.obj
 0001:00079160       ?createFacesToEdges@EdgeList@Gu@physx@@AEAA_NIPEBIPEBG@Z 000000018007a160 f   GuEdgeList.obj
 0001:00079520       ?init@EdgeList@Gu@physx@@QEAA_NAEBUEDGELISTCREATE@23@@Z 000000018007a520 f   GuEdgeList.obj
 0001:00079640       ?addAxis@SeparatingAxes@Gu@physx@@QEAA_NAEBV?$PxVec3T@M@3@@Z 000000018007a640 f   GuSeparatingAxes.obj
 0001:00079700       ??$kmeans_cluster@V?$PxVec3T@M@physx@@M@@YAIPEBV?$PxVec3T@M@physx@@IIPEAV01@PEAIMM@Z 000000018007a700 f i GuQuantizer.obj
 0001:0007a0c0       ??_EQuantizer@Gu@physx@@MEAAPEAXI@Z 000000018007b0c0 f i GuQuantizer.obj
 0001:0007a0c0       ??_GQuantizer@Gu@physx@@MEAAPEAXI@Z 000000018007b0c0 f i GuQuantizer.obj
 0001:0007a0f0       ??_EQuantizerImpl@@EEAAPEAXI@Z 000000018007b0f0 f i GuQuantizer.obj
 0001:0007a0f0       ??_GQuantizerImpl@@EEAAPEAXI@Z 000000018007b0f0 f i GuQuantizer.obj
 0001:0007a1c0       ?createQuantizer@Gu@physx@@YAPEAVQuantizer@12@XZ 000000018007b1c0 f   GuQuantizer.obj
 0001:0007a270       ?getDenormalizeCenter@QuantizerImpl@@UEBAAEBV?$PxVec3T@M@physx@@XZ 000000018007b270 f i GuQuantizer.obj
 0001:0007a280       ?getCurrentAABBTreeBounds@PruningPool@Gu@physx@@QEBAAEBVAABBTreeBounds@23@XZ 000000018007b280 f i GuIncrementalAABBPrunerCore.obj
 0001:0007a280       ?getDenormalizeScale@QuantizerImpl@@UEBAAEBV?$PxVec3T@M@physx@@XZ 000000018007b280 f i GuQuantizer.obj
 0001:0007a290       ?kmeansQuantize3D@QuantizerImpl@@UEAAPEBV?$PxVec3T@M@physx@@IPEBV23@I_NIAEAI@Z 000000018007b290 f i GuQuantizer.obj
 0001:0007a4f0       ?normalizeInput@QuantizerImpl@@AEAAXIPEBV?$PxVec3T@M@physx@@I@Z 000000018007b4f0 f i GuQuantizer.obj
 0001:0007a940       ?release@QuantizerImpl@@UEAAXXZ 000000018007b940 f i GuQuantizer.obj
 0001:0007a960       ??0MeshCleaner@Gu@physx@@QEAA@IPEBV?$PxVec3T@M@2@IPEBIM@Z 000000018007b960 f   GuMeshCleaner.obj
 0001:0007b320       ??1MeshCleaner@Gu@physx@@QEAA@XZ 000000018007c320 f   GuMeshCleaner.obj
 0001:0007b3b0       ??0ReducedVertexCloud@Gu@physx@@QEAA@PEBV?$PxVec3T@M@2@I@Z 000000018007c3b0 f   GuVertexReducer.obj
 0001:0007b3d0       ??1ReducedVertexCloud@Gu@physx@@QEAA@XZ 000000018007c3d0 f   GuVertexReducer.obj
 0001:0007b3e0       ?clean@ReducedVertexCloud@Gu@physx@@QEAAAEAV123@XZ 000000018007c3e0 f   GuVertexReducer.obj
 0001:0007b450       ?reduce@ReducedVertexCloud@Gu@physx@@QEAA_NPEAUREDUCEDCLOUD@23@@Z 000000018007c450 f   GuVertexReducer.obj
 0001:0007b6e0       ??$copy@V?$PxReflectionAllocator@H@physx@@@?$PxArray@HV?$PxReflectionAllocator@H@physx@@@physx@@IEAAXAEBV01@@Z 000000018007c6e0 f i GuMeshAnalysis.obj
 0001:0007b750       ?buildTriangleAdjacency@MeshAnalyzer@Gu@physx@@SA_NPEBU?$IndexedTriangleT@H@23@IAEAV?$PxArray@HV?$PxReflectionAllocator@H@physx@@@3@AEAV?$PxHashMap@_KHU?$PxHash@_K@physx@@VPxAllocator@2@@3@@Z 000000018007c750 f   GuMeshAnalysis.obj
 0001:0007ba50       ?checkConsistentTriangleOrientation@MeshAnalyzer@Gu@physx@@SA_NPEBU?$IndexedTriangleT@H@23@IAEAV?$PxArray@_NV?$PxReflectionAllocator@_N@physx@@@3@AEAV?$PxHashMap@_KHU?$PxHash@_K@physx@@VPxAllocator@2@@3@@Z 000000018007ca50 f   GuMeshAnalysis.obj
 0001:0007be90       ?checkMeshWatertightness@MeshAnalyzer@Gu@physx@@SA_NPEBU?$IndexedTriangleT@H@23@I@Z 000000018007ce90 f   GuMeshAnalysis.obj
 0001:0007bfe0       ?erase@?$PxHashBase@V?$PxPair@$$CB_KH@physx@@_KU?$PxHash@_K@2@UGetKey@?$PxHashMapBase@_KHU?$PxHash@_K@physx@@VPxAllocator@2@@2@VPxAllocator@2@$00@physx@@QEAA_NAEB_K@Z 000000018007cfe0 f i GuMeshAnalysis.obj
 0001:0007c190       ?growAndPushBack@?$PxArray@V?$PxArray@HV?$PxReflectionAllocator@H@physx@@@physx@@V?$PxReflectionAllocator@V?$PxArray@HV?$PxReflectionAllocator@H@physx@@@physx@@@2@@physx@@IEAAAEAV?$PxArray@HV?$PxReflectionAllocator@H@physx@@@2@AEBV32@@Z 000000018007d190 f i GuMeshAnalysis.obj
 0001:0007c340       ?makeTriOrientationConsistent@MeshAnalyzer@Gu@physx@@SA_NPEAU?$IndexedTriangleT@H@23@I_N@Z 000000018007d340 f   GuMeshAnalysis.obj
 0001:0007c450       ?recreate@?$PxArray@_NV?$PxReflectionAllocator@_N@physx@@@physx@@IEAAXI@Z 000000018007d450 f i GuMeshAnalysis.obj
 0001:0007c540       ?resize@?$PxArray@HV?$PxReflectionAllocator@H@physx@@@physx@@QEAAXIAEBH@Z 000000018007d540 f i GuMeshAnalysis.obj
 0001:0007c600       ?resize@?$PxArray@_NV?$PxReflectionAllocator@_N@physx@@@physx@@QEAAXIAEB_N@Z 000000018007d600 f i GuMeshAnalysis.obj
 0001:0007c6c0       ?contactBoxBox@Gu@physx@@YA_NAEBVPxGeometry@2@0AEBV?$PxTransformT@M@2@1AEBUNarrowPhaseParams@12@AEAUCache@12@AEAVPxContactBuffer@2@PEAVPxRenderOutput@2@@Z 000000018007d6c0 f   GuContactBoxBox.obj
 0001:00080500       ?contactCapsuleBox@Gu@physx@@YA_NAEBVPxGeometry@2@0AEBV?$PxTransformT@M@2@1AEBUNarrowPhaseParams@12@AEAUCache@12@AEAVPxContactBuffer@2@PEAVPxRenderOutput@2@@Z 0000000180081500 f   GuContactCapsuleBox.obj
 0001:00080d10       ?contactCapsuleCapsule@Gu@physx@@YA_NAEBVPxGeometry@2@0AEBV?$PxTransformT@M@2@1AEBUNarrowPhaseParams@12@AEAUCache@12@AEAVPxContactBuffer@2@PEAVPxRenderOutput@2@@Z 0000000180081d10 f   GuContactCapsuleCapsule.obj
 0001:00083700       ?contactCapsuleConvex@Gu@physx@@YA_NAEBVPxGeometry@2@0AEBV?$PxTransformT@M@2@1AEBUNarrowPhaseParams@12@AEAUCache@12@AEAVPxContactBuffer@2@PEAVPxRenderOutput@2@@Z 0000000180084700 f   GuContactCapsuleConvex.obj
 0001:00085c30       ?contactCapsuleHeightfield@Gu@physx@@YA_NAEBVPxGeometry@2@0AEBV?$PxTransformT@M@2@1AEBUNarrowPhaseParams@12@AEAUCache@12@AEAVPxContactBuffer@2@PEAVPxRenderOutput@2@@Z 0000000180086c30 f   GuContactCapsuleMesh.obj
 0001:00086470       ?contactCapsuleMesh@Gu@physx@@YA_NAEBVPxGeometry@2@0AEBV?$PxTransformT@M@2@1AEBUNarrowPhaseParams@12@AEAUCache@12@AEAVPxContactBuffer@2@PEAVPxRenderOutput@2@@Z 0000000180087470 f   GuContactCapsuleMesh.obj
 0001:000875f0       ?transformQueryBounds@FastVertex2ShapeScaling@Cm@physx@@QEBAXAEAV?$PxVec3T@M@3@0AEAV?$PxMat33T@M@3@@Z 00000001800885f0 f i GuContactCapsuleMesh.obj
 0001:0008bb50       ?contactBoxConvex@Gu@physx@@YA_NAEBVPxGeometry@2@0AEBV?$PxTransformT@M@2@1AEBUNarrowPhaseParams@12@AEAUCache@12@AEAVPxContactBuffer@2@PEAVPxRenderOutput@2@@Z 000000018008cb50 f   GuContactConvexConvex.obj
 0001:0008bd20       ?contactConvexConvex@Gu@physx@@YA_NAEBVPxGeometry@2@0AEBV?$PxTransformT@M@2@1AEBUNarrowPhaseParams@12@AEAUCache@12@AEAVPxContactBuffer@2@PEAVPxRenderOutput@2@@Z 000000018008cd20 f   GuContactConvexConvex.obj
 0001:0008c1a0       ?transformPlaneToShapeSpace@FastVertex2ShapeScaling@Cm@physx@@QEBAXAEBV?$PxVec3T@M@3@MAEAV43@AEAM@Z 000000018008d1a0 f i GuContactConvexConvex.obj
 0001:0008c650       ??_EConvexMeshContactGenerationCallback@@UEAAPEAXI@Z 000000018008d650 f i GuContactConvexMesh.obj
 0001:0008c650       ??_GConvexMeshContactGenerationCallback@@UEAAPEAXI@Z 000000018008d650 f i GuContactConvexMesh.obj
 0001:0008c6b0       ?addData@?$CacheMap@UCachedEdge@Gu@physx@@$0IA@@Gu@physx@@QEAA_NAEBUCachedEdge@23@@Z 000000018008d6b0 f i GuContactConvexMesh.obj
 0001:0008c790       ?addData@?$CacheMap@UCachedVertex@Gu@physx@@$0IA@@Gu@physx@@QEAA_NAEBUCachedVertex@23@@Z 000000018008d790 f i GuContactConvexMesh.obj
 0001:0008c820       ?allocate@?$PxArray@IV?$PxInlineAllocator@$0BBAA@V?$PxReflectionAllocator@I@physx@@@physx@@@physx@@IEAAPEAII@Z 000000018008d820 f i GuContactConvexMesh.obj
 0001:0008cc30       ?contactBoxHeightfield@Gu@physx@@YA_NAEBVPxGeometry@2@0AEBV?$PxTransformT@M@2@1AEBUNarrowPhaseParams@12@AEAUCache@12@AEAVPxContactBuffer@2@PEAVPxRenderOutput@2@@Z 000000018008dc30 f   GuContactConvexMesh.obj
 0001:0008cdb0       ?contactBoxMesh@Gu@physx@@YA_NAEBVPxGeometry@2@0AEBV?$PxTransformT@M@2@1AEBUNarrowPhaseParams@12@AEAUCache@12@AEAVPxContactBuffer@2@PEAVPxRenderOutput@2@@Z 000000018008ddb0 f   GuContactConvexMesh.obj
 0001:0008cf80       ?contactConvexHeightfield@Gu@physx@@YA_NAEBVPxGeometry@2@0AEBV?$PxTransformT@M@2@1AEBUNarrowPhaseParams@12@AEAUCache@12@AEAVPxContactBuffer@2@PEAVPxRenderOutput@2@@Z 000000018008df80 f   GuContactConvexMesh.obj
 0001:0008d0d0       ?contactConvexMesh@Gu@physx@@YA_NAEBVPxGeometry@2@0AEBV?$PxTransformT@M@2@1AEBUNarrowPhaseParams@12@AEAUCache@12@AEAVPxContactBuffer@2@PEAVPxRenderOutput@2@@Z 000000018008e0d0 f   GuContactConvexMesh.obj
 0001:000907e0       ?processHit@ConvexMeshContactGenerationCallback@@UEAA_NAEBUPxGeomRaycastHit@physx@@AEBV?$PxVec3T@M@3@11AEAMPEBI@Z 00000001800917e0 f i GuContactConvexMesh.obj
 0001:000911a0       ?recreate@?$PxArray@IV?$PxInlineAllocator@$0BBAA@V?$PxReflectionAllocator@I@physx@@@physx@@@physx@@IEAAXI@Z 00000001800921a0 f i GuContactConvexMesh.obj
 0001:00092630       ?contactPlaneBox@Gu@physx@@YA_NAEBVPxGeometry@2@0AEBV?$PxTransformT@M@2@1AEBUNarrowPhaseParams@12@AEAUCache@12@AEAVPxContactBuffer@2@PEAVPxRenderOutput@2@@Z 0000000180093630 f   GuContactPlaneBox.obj
 0001:000932c0       ?contactPlaneCapsule@Gu@physx@@YA_NAEBVPxGeometry@2@0AEBV?$PxTransformT@M@2@1AEBUNarrowPhaseParams@12@AEAUCache@12@AEAVPxContactBuffer@2@PEAVPxRenderOutput@2@@Z 00000001800942c0 f   GuContactPlaneCapsule.obj
 0001:00093990       ?contactPlaneConvex@Gu@physx@@YA_NAEBVPxGeometry@2@0AEBV?$PxTransformT@M@2@1AEBUNarrowPhaseParams@12@AEAUCache@12@AEAVPxContactBuffer@2@PEAVPxRenderOutput@2@@Z 0000000180094990 f   GuContactPlaneConvex.obj
 0001:000956c0       ?contactPolygonPolygonExt@Gu@physx@@YA_NIPEBV?$PxVec3T@M@2@PEBEAEBV?$PxMat34T@M@2@AEBVPxPlane@2@AEBV?$PxMat33T@M@2@I01234AEBV32@22IIAEAVPxContactBuffer@2@_N5M@Z 00000001800966c0 f   GuContactPolygonPolygon.obj
 0001:00096e30       ?findRotationMatrixFromZ@Gu@physx@@YA?AV?$PxMat33T@M@2@AEBV?$PxVec3T@M@2@@Z 0000000180097e30 f   GuContactPolygonPolygon.obj
 0001:00097850       ?contactSphereBox@Gu@physx@@YA_NAEBVPxGeometry@2@0AEBV?$PxTransformT@M@2@1AEBUNarrowPhaseParams@12@AEAUCache@12@AEAVPxContactBuffer@2@PEAVPxRenderOutput@2@@Z 0000000180098850 f   GuContactSphereBox.obj
 0001:00097e10       ?contactSphereCapsule@Gu@physx@@YA_NAEBVPxGeometry@2@0AEBV?$PxTransformT@M@2@1AEBUNarrowPhaseParams@12@AEAUCache@12@AEAVPxContactBuffer@2@PEAVPxRenderOutput@2@@Z 0000000180098e10 f   GuContactSphereCapsule.obj
 0001:00098bf0       ?contactSphereHeightfield@Gu@physx@@YA_NAEBVPxGeometry@2@0AEBV?$PxTransformT@M@2@1AEBUNarrowPhaseParams@12@AEAUCache@12@AEAVPxContactBuffer@2@PEAVPxRenderOutput@2@@Z 0000000180099bf0 f   GuContactSphereMesh.obj
 0001:00099610       ?contactSphereMesh@Gu@physx@@YA_NAEBVPxGeometry@2@0AEBV?$PxTransformT@M@2@1AEBUNarrowPhaseParams@12@AEAUCache@12@AEAVPxContactBuffer@2@PEAVPxRenderOutput@2@@Z 000000018009a610 f   GuContactSphereMesh.obj
 0001:0009ba70       ?contactSpherePlane@Gu@physx@@YA_NAEBVPxGeometry@2@0AEBV?$PxTransformT@M@2@1AEBUNarrowPhaseParams@12@AEAUCache@12@AEAVPxContactBuffer@2@PEAVPxRenderOutput@2@@Z 000000018009ca70 f   GuContactSpherePlane.obj
 0001:0009bc80       ?contactSphereSphere@Gu@physx@@YA_NAEBVPxGeometry@2@0AEBV?$PxTransformT@M@2@1AEBUNarrowPhaseParams@12@AEAUCache@12@AEAVPxContactBuffer@2@PEAVPxRenderOutput@2@@Z 000000018009cc80 f   GuContactSphereSphere.obj
 0001:0009be00       ?contactCustomGeometryGeometry@Gu@physx@@YA_NAEBVPxGeometry@2@0AEBV?$PxTransformT@M@2@1AEBUNarrowPhaseParams@12@AEAUCache@12@AEAVPxContactBuffer@2@PEAVPxRenderOutput@2@@Z 000000018009ce00 f   GuContactCustomGeometry.obj
 0001:0009be60       ?contactGeometryCustomGeometry@Gu@physx@@YA_NAEBVPxGeometry@2@0AEBV?$PxTransformT@M@2@1AEBUNarrowPhaseParams@12@AEAUCache@12@AEAVPxContactBuffer@2@PEAVPxRenderOutput@2@@Z 000000018009ce60 f   GuContactCustomGeometry.obj
 0001:0009bf20       ?selectNormal@Gu@physx@@YA_NEMM@Z 000000018009cf20 f   GuFeatureCode.obj
 0001:0009bfa0       ??0BigConvexData@physx@@QEAA@XZ 000000018009cfa0 f   GuBigConvexData.obj
 0001:0009bfc0       ??1BigConvexData@physx@@QEAA@XZ 000000018009cfc0 f   GuBigConvexData.obj
 0001:0009c080       ?ComputeNearestOffset@BigConvexData@physx@@QEBAIAEBV?$PxVec3T@M@2@@Z 000000018009d080 f   GuBigConvexData.obj
 0001:0009c180       ?ComputeOffset@BigConvexData@physx@@QEBAIAEBV?$PxVec3T@M@2@@Z 000000018009d180 f   GuBigConvexData.obj
 0001:0009c280       ?CreateOffsets@BigConvexData@physx@@IEAAXXZ 000000018009d280 f   GuBigConvexData.obj
 0001:0009c2d0       ?Load@BigConvexData@physx@@QEAA_NAEAVPxInputStream@2@@Z 000000018009d2d0 f   GuBigConvexData.obj
 0001:0009c3e0       ?VLoad@BigConvexData@physx@@IEAA_NAEAVPxInputStream@2@@Z 000000018009d3e0 f   GuBigConvexData.obj
 0001:0009c580       ?exportExtraData@BigConvexData@physx@@QEAAXAEAVPxSerializationContext@2@@Z 000000018009d580 f   GuBigConvexData.obj
 0001:0009c600       ?importExtraData@BigConvexData@physx@@QEAAXAEAVPxDeserializationContext@2@@Z 000000018009d600 f   GuBigConvexData.obj
 0001:0009c670       ?findUniqueConvexEdges@Gu@physx@@YAIIPEIAUConvexEdge@12@IPEIBUHullPolygonData@12@PEIBE@Z 000000018009d670 f   GuConvexHelper.obj
 0001:0009c7b0       ?getConvexData@Gu@physx@@YA_NAEBVPxConvexMeshGeometry@2@AEAVFastVertex2ShapeScaling@Cm@2@AEAVPxBounds3@2@AEAUPolygonalData@12@@Z 000000018009d7b0 f   GuConvexHelper.obj
 0001:0009ca40       ?getScaledConvex@Gu@physx@@YAXAEAPEAV?$PxVec3T@M@2@AEAPEAEPEAV32@PEAE_NPEBV32@PEBEIAEBVFastVertex2ShapeScaling@Cm@2@@Z 000000018009da40 f   GuConvexHelper.obj
 0001:0009cb70       ??0ConvexMesh@Gu@physx@@QEAA@PEAVMeshFactory@12@@Z 000000018009db70 f   GuConvexMesh.obj
 0001:0009cc00       ??0ConvexMesh@Gu@physx@@QEAA@PEAVMeshFactory@12@AEAUConvexHullInitData@12@@Z 000000018009dc00 f   GuConvexMesh.obj
 0001:0009cd20       ??_EConvexMesh@Gu@physx@@UEAAPEAXI@Z 000000018009dd20 f i GuConvexMesh.obj
 0001:0009cd20       ??_GConvexMesh@Gu@physx@@UEAAPEAXI@Z 000000018009dd20 f i GuConvexMesh.obj
 0001:0009ce20       ??_EPxBVH@physx@@MEAAPEAXI@Z 000000018009de20 f i GuBVH.obj
 0001:0009ce20       ??_EPxBase@physx@@MEAAPEAXI@Z 000000018009de20 f i GuConvexMesh.obj
 0001:0009ce20       ??_GPxBVH@physx@@MEAAPEAXI@Z 000000018009de20 f i GuBVH.obj
 0001:0009ce20       ??_GPxBase@physx@@MEAAPEAXI@Z 000000018009de20 f i GuConvexMesh.obj
 0001:0009ce50       ?acquireReference@ConvexMesh@Gu@physx@@UEAAXXZ 000000018009de50 f   GuConvexMesh.obj
 0001:0009ce50       ?acquireReference@HeightField@Gu@physx@@UEAAXXZ 000000018009de50 f   GuHeightField.obj
 0001:0009ce50       ?acquireReference@SoftBodyAuxData@Gu@physx@@UEAAXXZ 000000018009de50 f   GuTetrahedronMesh.obj
 0001:0009ce50       ?acquireReference@SoftBodyMesh@Gu@physx@@UEAAXXZ 000000018009de50 f   GuTetrahedronMesh.obj
 0001:0009ce50       ?acquireReference@TetrahedronMesh@Gu@physx@@UEAAXXZ 000000018009de50 f   GuTetrahedronMesh.obj
 0001:0009ce50       ?acquireReference@TriangleMesh@Gu@physx@@UEAAXXZ 000000018009de50 f   GuTriangleMesh.obj
 0001:0009d320       ?createObject@ConvexMesh@Gu@physx@@SAPEAV123@AEAPEAEAEAVPxDeserializationContext@3@@Z 000000018009e320 f   GuConvexMesh.obj
 0001:0009d410       ?exportExtraData@ConvexMesh@Gu@physx@@UEAAXAEAVPxSerializationContext@3@@Z 000000018009e410 f   GuConvexMesh.obj
 0001:0009d4e0       ?getConcreteTypeName@PxConvexMesh@physx@@UEBAPEBDXZ 000000018009e4e0 f i GuConvexMesh.obj
 0001:0009d4f0       ?getIndexBuffer@ConvexMesh@Gu@physx@@UEBAPEBEXZ 000000018009e4f0 f i GuConvexMesh.obj
 0001:0009d530       ?getLocalBounds@ConvexMesh@Gu@physx@@UEBA?AVPxBounds3@3@XZ 000000018009e530 f   GuConvexMesh.obj
 0001:0009d5c0       ?getMassInformation@ConvexMesh@Gu@physx@@UEBAXAEAMAEAV?$PxMat33T@M@3@AEAV?$PxVec3T@M@3@@Z 000000018009e5c0 f   GuConvexMesh.obj
 0001:0009d630       ?getNbPolygons@ConvexMesh@Gu@physx@@UEBAIXZ 000000018009e630 f i GuConvexMesh.obj
 0001:0009d640       ?getNbVertices@ConvexMesh@Gu@physx@@UEBAIXZ 000000018009e640 f i GuConvexMesh.obj
 0001:0009d650       ?getPolygonData@ConvexMesh@Gu@physx@@UEBA_NIAEAUPxHullPolygon@3@@Z 000000018009e650 f   GuConvexMesh.obj
 0001:0009d6a0       ?getReferenceCount@ConvexMesh@Gu@physx@@UEBAIXZ 000000018009e6a0 f   GuConvexMesh.obj
 0001:0009d6a0       ?getReferenceCount@HeightField@Gu@physx@@UEBAIXZ 000000018009e6a0 f   GuHeightField.obj
 0001:0009d6a0       ?getReferenceCount@SoftBodyAuxData@Gu@physx@@UEBAIXZ 000000018009e6a0 f   GuTetrahedronMesh.obj
 0001:0009d6a0       ?getReferenceCount@SoftBodyMesh@Gu@physx@@UEBAIXZ 000000018009e6a0 f   GuTetrahedronMesh.obj
 0001:0009d6a0       ?getReferenceCount@TetrahedronMesh@Gu@physx@@UEBAIXZ 000000018009e6a0 f   GuTetrahedronMesh.obj
 0001:0009d6a0       ?getReferenceCount@TriangleMesh@Gu@physx@@UEBAIXZ 000000018009e6a0 f   GuTriangleMesh.obj
 0001:0009d6a0       ?length@DNameStatusNode@@UEBAHXZ 000000018009e6a0 f   libvcruntime:undname.obj
 0001:0009d6a0       ?raw_length@DNameStatusNode@@UEBAHXZ 000000018009e6a0 f   libvcruntime:undname.obj
 0001:0009d6b0       ?getSDF@ConvexMesh@Gu@physx@@UEBAPEBMXZ 000000018009e6b0 f   GuConvexMesh.obj
 0001:0009d6c0       ?getVertices@ConvexMesh@Gu@physx@@UEBAPEBV?$PxVec3T@M@3@XZ 000000018009e6c0 f i GuConvexMesh.obj
 0001:0009d6e0       ?isGpuCompatible@ConvexMesh@Gu@physx@@UEBA_NXZ 000000018009e6e0 f   GuConvexMesh.obj
 0001:0009d720       ?isKindOf@PxBase@physx@@MEBA_NPEBD@Z 000000018009e720 f i GuConvexMesh.obj
 0001:0009d750       ?isKindOf@PxConvexMesh@physx@@MEBA_NPEBD@Z 000000018009e750 f i GuConvexMesh.obj
 0001:0009d7c0       ?isReleasable@PxBase@physx@@UEBA_NXZ 000000018009e7c0 f i GuConvexMesh.obj
 0001:0009d7d0       ?load@ConvexMesh@Gu@physx@@QEAA_NAEAVPxInputStream@3@@Z 000000018009e7d0 f   GuConvexMesh.obj
 0001:0009dd60       ?onRefCountZero@ConvexMesh@Gu@physx@@UEAAXXZ 000000018009ed60 f   GuConvexMesh.obj
 0001:0009de90       ?release@ConvexMesh@Gu@physx@@UEAAXXZ 000000018009ee90 f   GuConvexMesh.obj
 0001:0009de90       ?release@HeightField@Gu@physx@@UEAAXXZ 000000018009ee90 f   GuHeightField.obj
 0001:0009de90       ?release@SoftBodyAuxData@Gu@physx@@UEAAXXZ 000000018009ee90 f   GuTetrahedronMesh.obj
 0001:0009de90       ?release@SoftBodyMesh@Gu@physx@@UEAAXXZ 000000018009ee90 f   GuTetrahedronMesh.obj
 0001:0009de90       ?release@TetrahedronMesh@Gu@physx@@UEAAXXZ 000000018009ee90 f   GuTetrahedronMesh.obj
 0001:0009de90       ?release@TriangleMesh@Gu@physx@@UEAAXXZ 000000018009ee90 f   GuTriangleMesh.obj
 0001:0009dec0       ??Dphysx@@YA?AV?$PxMat34T@M@0@AEBVPxMeshScale@0@AEBV10@@Z 000000018009eec0 f i GuConvexUtilsInternal.obj
 0001:0009e460       ?computeHullOBB@Gu@physx@@YAXAEAVBox@12@AEBVPxBounds3@2@MAEBV?$PxMat34T@M@2@2AEBVFastVertex2ShapeScaling@Cm@2@_N@Z 000000018009f460 f   GuConvexUtilsInternal.obj
 0001:0009e910       ?computeOBBAroundConvex@Gu@physx@@YAXAEAVBox@12@AEBVPxConvexMeshGeometry@2@PEBVPxConvexMesh@2@AEBV?$PxTransformT@M@2@@Z 000000018009f910 f   GuConvexUtilsInternal.obj
 0001:0009f180       ?computeVertexSpaceOBB@Gu@physx@@YAXAEAVBox@12@AEBV312@AEBV?$PxTransformT@M@2@AEBVPxMeshScale@2@@Z 00000001800a0180 f   GuConvexUtilsInternal.obj
 0001:0009f4b0       ?transform@physx@@YA?AVBox@Gu@1@AEBV?$PxMat34T@M@1@AEBV231@@Z 00000001800a04b0 f i GuConvexUtilsInternal.obj
 0001:0009f700       ?localSearch@physx@@YAXAEAIAEBV?$PxVec3T@M@1@PEBV21@PEBUBigConvexRawData@Gu@1@@Z 00000001800a0700 f   GuHillClimbing.obj
 0001:0009f830       ??0PCMPolygonalBox@Gu@physx@@QEAA@AEBV?$PxVec3T@M@2@@Z 00000001800a0830 f   GuPCMShapeConvex.obj
 0001:0009f830       ??0PolygonalBox@Gu@physx@@QEAA@AEBV?$PxVec3T@M@2@@Z 00000001800a0830 f   GuShapeConvex.obj
 0001:000a0cf0       ?getPolygonalData@PolygonalBox@Gu@physx@@QEBAXPEIAUPolygonalData@23@@Z 00000001800a1cf0 f   GuShapeConvex.obj
 0001:000a0d60       ?getPolygonalData_Convex@Gu@physx@@YAXPEIAUPolygonalData@12@PEIBUConvexHullData@12@AEBVFastVertex2ShapeScaling@Cm@2@@Z 00000001800a1d60 f   GuShapeConvex.obj
 0001:000a0ec0       ?distancePointBoxSquared@Gu@physx@@YAMAEBV?$PxVec3T@M@2@00AEBV?$PxMat33T@M@2@PEAV32@@Z 00000001800a1ec0 f   GuDistancePointBox.obj
 0001:000a1010       ?closestPtPointTriangle@Gu@physx@@YA?AV?$PxVec3T@M@2@AEBV32@000AEAM1@Z 00000001800a2010 f   GuDistancePointTriangle.obj
 0001:000a1530       ?distancePointTriangleSquared@Gu@physx@@YA?AT__m128@@AEBT3@000AEAT3@11@Z 00000001800a2530 f   GuDistancePointTriangle.obj
 0001:000a2280       ?distanceSegmentBoxSquared@Gu@physx@@YAMAEBV?$PxVec3T@M@2@000AEBV?$PxMat33T@M@2@PEAMPEAV32@@Z 00000001800a3280 f   GuDistanceSegmentBox.obj
 0001:000a2b00       ?distanceSegmentSegmentSquared4@Gu@physx@@YA?AT__m128@@AEBT3@000000000AEAT3@1@Z 00000001800a3b00 f   GuDistanceSegmentSegment.obj
 0001:000a2e10       ?distanceSegmentSegmentSquared@Gu@physx@@YA?AT__m128@@AEBT3@000AEAT3@1@Z 00000001800a3e10 f   GuDistanceSegmentSegment.obj
 0001:000a2fd0       ?distanceSegmentSegmentSquared@Gu@physx@@YAMAEBV?$PxVec3T@M@2@000PEAM1@Z 00000001800a3fd0 f   GuDistanceSegmentSegment.obj
 0001:000a3260       ?distanceSegmentSegmentSquared@Gu@physx@@YAMAEBV?$PxVec3T@M@2@0M00MPEAM1@Z 00000001800a4260 f   GuDistanceSegmentSegment.obj
 0001:000a39a0       ?distanceSegmentTriangleSquared@Gu@physx@@YA?AT__m128@@AEBT3@0000AEAT3@1@Z 00000001800a49a0 f   GuDistanceSegmentTriangle.obj
 0001:000a40e0       ?distanceSegmentTriangleSquared@Gu@physx@@YAMAEBV?$PxVec3T@M@2@0000PEAM11@Z 00000001800a50e0 f   GuDistanceSegmentTriangle.obj
 0001:000a5750       ?PointOutsideOfPlane4@Gu@physx@@YA?AV?$PxVec4T@M@2@AEBV?$PxVec3T@M@2@0000@Z 00000001800a6750 f   GuDistancePointTetrahedron.obj
 0001:000a5bc0       ?closestPtPointTetrahedron@Gu@physx@@YA?AV?$PxVec3T@M@2@AEBV32@0000AEBV?$PxVec4T@M@2@@Z 00000001800a6bc0 f   GuDistancePointTetrahedron.obj
 0001:000a6cb0       ?PenetrationDepth@EPA@Gu@physx@@QEAA?AW4GjkStatus@23@AEBUGjkConvex@23@0PEIBT__m128@@1E_NT6@AEAUGjkOutput@23@@Z 00000001800a7cb0 f   GuEPA.obj
 0001:000a77d0       ?addFacet@EPA@Gu@physx@@QEAAPEAVFacet@23@IIIAEBT__m128@@@Z 00000001800a87d0 f   GuEPA.obj
 0001:000a7c00       ?epaPenetration@Gu@physx@@YA?AW4GjkStatus@12@AEBUGjkConvex@12@0PEIBE1E_NT__m128@@AEAUGjkOutput@12@@Z 00000001800a8c00 f   GuEPA.obj
 0001:000a7d70       ?epaPenetration@Gu@physx@@YA?AW4GjkStatus@12@AEBUGjkConvex@12@0PEIBT__m128@@1E_NT5@AEAUGjkOutput@12@@Z 00000001800a8d70 f   GuEPA.obj
 0001:000a7e20       ?silhouette@Facet@Gu@physx@@QEAAXAEBT__m128@@PEIBT4@1AEAVEdgeBuffer@23@AEAV?$InlineDeferredIDPool@$0EA@@Cm@3@@Z 00000001800a8e20 f   GuEPA.obj
 0001:000a7ff0       ?closestPtPointTetrahedron@Gu@physx@@YA?AT__m128@@PEIAT3@00AEAI@Z 00000001800a8ff0 f   GuGJKSimplex.obj
 0001:000a8760       ?closestPtPointTetrahedron@Gu@physx@@YA?AT__m128@@PEIAT3@00PEIAH1AEAI@Z 00000001800a9760 f   GuGJKSimplex.obj
 0001:000aa1e0       ??$gjk@UGjkConvex@Gu@physx@@U123@@Gu@physx@@YA?AW4GjkStatus@01@AEBUGjkConvex@01@0AEBT__m128@@1AEAT4@222@Z 00000001800ab1e0 f i GuGJKTest.obj
 0001:000aae00       ??$gjkPenetration@UGjkConvex@Gu@physx@@U123@@Gu@physx@@YA?AW4GjkStatus@01@AEBUGjkConvex@01@0AEBT__m128@@1_NPEIAE3AEAEAEAUGjkOutput@01@@Z 00000001800abe00 f i GuGJKTest.obj
 0001:000aae70       ??$gjkPenetration@UGjkConvex@Gu@physx@@U123@@Gu@physx@@YA?AW4GjkStatus@01@AEBUGjkConvex@01@0AEBT__m128@@1_NPEIAE3PEIAT4@4AEAEAEAUGjkOutput@01@@Z 00000001800abe70 f i GuGJKTest.obj
 0001:000ac2d0       ?testEpaPenetration@Gu@physx@@YA?AW4GjkStatus@12@AEBUGjkConvex@12@0PEBE1EAEAUGjkOutput@12@@Z 00000001800ad2d0 f   GuGJKTest.obj
 0001:000ac320       ?testGjk@Gu@physx@@YA?AW4GjkStatus@12@AEBUGjkConvex@12@0AEBT__m128@@1AEAT5@222@Z 00000001800ad320 f   GuGJKTest.obj
 0001:000ac330       ?testGjkPenetration@Gu@physx@@YA?AW4GjkStatus@12@AEBUGjkConvex@12@0AEBT__m128@@1PEAE2AEAEAEAUGjkOutput@12@@Z 00000001800ad330 f   GuGJKTest.obj
 0001:000ac380       ??0HeightField@Gu@physx@@QEAA@PEAVMeshFactory@12@@Z 00000001800ad380 f   GuHeightField.obj
 0001:000ac3d0       ??0HeightField@Gu@physx@@QEAA@PEAVMeshFactory@12@AEAUHeightFieldData@12@@Z 00000001800ad3d0 f   GuHeightField.obj
 0001:000ac480       ??1HeightField@Gu@physx@@UEAA@XZ 00000001800ad480 f   GuHeightField.obj
 0001:000ac500       ??_EHeightField@Gu@physx@@UEAAPEAXI@Z 00000001800ad500 f i GuHeightField.obj
 0001:000ac500       ??_GHeightField@Gu@physx@@UEAAPEAXI@Z 00000001800ad500 f i GuHeightField.obj
 0001:000ac5a0       ?computeCellCoordinates@HeightField@Gu@physx@@QEBAIMMAEAM0@Z 00000001800ad5a0 f   GuHeightField.obj
 0001:000ac6c0       ?createObject@HeightField@Gu@physx@@SAPEAV123@AEAPEAEAEAVPxDeserializationContext@3@@Z 00000001800ad6c0 f   GuHeightField.obj
 0001:000ac710       ?exportExtraData@HeightField@Gu@physx@@UEAAXAEAVPxSerializationContext@3@@Z 00000001800ad710 f   GuHeightField.obj
 0001:000ac760       ?getConcreteTypeName@PxHeightField@physx@@UEBAPEBDXZ 00000001800ad760 f i GuHeightField.obj
 0001:000ac770       ?getConvexEdgeThreshold@HeightField@Gu@physx@@UEBAMXZ 00000001800ad770 f i GuHeightField.obj
 0001:000ac780       ?getFlags@HeightField@Gu@physx@@UEBA?AV?$PxFlags@W4Enum@PxHeightFieldFlag@physx@@G@3@XZ 00000001800ad780 f i GuHeightField.obj
 0001:000ac790       ?getFormat@HeightField@Gu@physx@@UEBA?AW4Enum@PxHeightFieldFormat@3@XZ 00000001800ad790 f i GuHeightField.obj
 0001:000ac7a0       ?getHeight@HeightField@Gu@physx@@UEBAMMM@Z 00000001800ad7a0 f i GuHeightField.obj
 0001:000ac8c0       ?getNbColumns@HeightField@Gu@physx@@UEBAIXZ 00000001800ad8c0 f i GuHeightField.obj
 0001:000ac8d0       ?getNbBounds@BVH@Gu@physx@@UEBAIXZ 00000001800ad8d0 f i GuBVH.obj
 0001:000ac8d0       ?getNbPrimitives@SourceMesh@Gu@physx@@UEBAIXZ 00000001800ad8d0 f i GuBV4.obj
 0001:000ac8d0       ?getNbPrimitives@TetrahedronSourceMesh@Gu@physx@@UEBAIXZ 00000001800ad8d0 f i GuBV4.obj
 0001:000ac8d0       ?getNbRows@HeightField@Gu@physx@@UEBAIXZ 00000001800ad8d0 f i GuHeightField.obj
 0001:000ac8e0       ?getSample@HeightField@Gu@physx@@UEBAAEBUPxHeightFieldSample@3@II@Z 00000001800ad8e0 f i GuHeightField.obj
 0001:000ac8f0       ?getSampleStride@HeightField@Gu@physx@@UEBAIXZ 00000001800ad8f0 f i GuHeightField.obj
 0001:000ac900       ?getTimestamp@HeightField@Gu@physx@@UEBAIXZ 00000001800ad900 f i GuHeightField.obj
 0001:000ac910       ?getTriangleMaterialIndex@HeightField@Gu@physx@@UEBAGI@Z 00000001800ad910 f i GuHeightField.obj
 0001:000ac940       ?getTriangleNormal@HeightField@Gu@physx@@UEBA?AV?$PxVec3T@M@3@I@Z 00000001800ad940 f i GuHeightField.obj
 0001:000ac960       ?getTriangleNormalInternal@HeightField@Gu@physx@@QEBA?AV?$PxVec3T@M@3@I@Z 00000001800ad960 f i GuHeightField.obj
 0001:000acc90       ?isCollisionVertexPreca@HeightField@Gu@physx@@QEBA_NIIIG@Z 00000001800adc90 f   GuHeightField.obj
 0001:000acd30       ?isConvexVertex@HeightField@Gu@physx@@QEBA_NIII@Z 00000001800add30 f i GuHeightField.obj
 0001:000ace00       ?isKindOf@PxHeightField@physx@@MEBA_NPEBD@Z 00000001800ade00 f i GuHeightField.obj
 0001:000ace70       ?isSolidVertex@HeightField@Gu@physx@@QEBA_NIIIGAEA_N@Z 00000001800ade70 f   GuHeightField.obj
 0001:000ad100       ?load@HeightField@Gu@physx@@QEAA_NAEAVPxInputStream@3@@Z 00000001800ae100 f   GuHeightField.obj
 0001:000ad460       ?loadFromDesc@HeightField@Gu@physx@@QEAA_NAEBVPxHeightFieldDesc@3@@Z 00000001800ae460 f   GuHeightField.obj
 0001:000ad6e0       ?modifySamples@HeightField@Gu@physx@@UEAA_NHHAEBVPxHeightFieldDesc@3@_N@Z 00000001800ae6e0 f   GuHeightField.obj
 0001:000ada90       ?onRefCountZero@HeightField@Gu@physx@@UEAAXXZ 00000001800aea90 f   GuHeightField.obj
 0001:000adb60       ?parseTrianglesForCollisionVertices@HeightField@Gu@physx@@QEAAXG@Z 00000001800aeb60 f   GuHeightField.obj
 0001:000ae060       ?releaseMemory@HeightField@Gu@physx@@QEAAXXZ 00000001800af060 f   GuHeightField.obj
 0001:000ae0b0       ?resizeAndClear@?$PxBitMapBase@VPxAllocator@physx@@@physx@@QEAAXI@Z 00000001800af0b0 f i GuHeightField.obj
 0001:000ae160       ?save@HeightField@Gu@physx@@QEAA_NAEAVPxOutputStream@3@_N@Z 00000001800af160 f   GuHeightField.obj
 0001:000ae3a0       ?saveCells@HeightField@Gu@physx@@UEBAIPEAXI@Z 00000001800af3a0 f   GuHeightField.obj
 0001:000ae3e0       ?computeLocalBounds@HeightFieldUtil@Gu@physx@@QEBAXAEAVPxBounds3@3@@Z 00000001800af3e0 f   GuHeightFieldUtil.obj
 0001:000ae8b0       ?getTriangle@HeightFieldUtil@Gu@physx@@QEBAIAEBV?$PxTransformT@M@3@AEAVPxTriangle@3@PEAI2I_N3@Z 00000001800af8b0 f   GuHeightFieldUtil.obj
 0001:000af0d0       ?getTriangleAdjacencyIndices@HeightField@Gu@physx@@QEBAXIIIIAEAI00@Z 00000001800b00d0 f i GuHeightFieldUtil.obj
 0001:000af280       ?getTriangleVertexIndices@HeightField@Gu@physx@@QEBAXIAEAI00@Z 00000001800b0280 f i GuHeightFieldUtil.obj
 0001:000af340       ?overlapAABBTriangles@HeightFieldUtil@Gu@physx@@QEBAXAEBVPxBounds3@3@AEAVOverlapReport@23@I@Z 00000001800b0340 f   GuHeightFieldUtil.obj
 0001:000af7a0       ??$gjk@U?$RelativeConvex@VTriangleV@Gu@physx@@@Gu@physx@@U?$LocalConvex@VConvexHullV@Gu@physx@@@23@@Gu@physx@@YA?AW4GjkStatus@01@AEBU?$RelativeConvex@VTriangleV@Gu@physx@@@01@AEBU?$LocalConvex@VConvexHullV@Gu@physx@@@01@AEBT__m128@@2AEAT5@333@Z 00000001800b07a0 f i GuOverlapTestsHF.obj
 0001:000b06e0       ?GeomOverlapCallback_BoxHeightfield@@YA_NAEBVPxGeometry@physx@@AEBV?$PxTransformT@M@2@01PEAUTriggerCache@Gu@2@PEAUPxQueryThreadContext@2@@Z 00000001800b16e0 f   GuOverlapTestsHF.obj
 0001:000b0c40       ?GeomOverlapCallback_CapsuleHeightfield@@YA_NAEBVPxGeometry@physx@@AEBV?$PxTransformT@M@2@01PEAUTriggerCache@Gu@2@PEAUPxQueryThreadContext@2@@Z 00000001800b1c40 f   GuOverlapTestsHF.obj
 0001:000b1240       ?GeomOverlapCallback_ConvexHeightfield@@YA_NAEBVPxGeometry@physx@@AEBV?$PxTransformT@M@2@01PEAUTriggerCache@Gu@2@PEAUPxQueryThreadContext@2@@Z 00000001800b2240 f   GuOverlapTestsHF.obj
 0001:000b1c80       ?GeomOverlapCallback_SphereHeightfield@@YA_NAEBVPxGeometry@physx@@AEBV?$PxTransformT@M@2@01PEAUTriggerCache@Gu@2@PEAUPxQueryThreadContext@2@@Z 00000001800b2c80 f   GuOverlapTestsHF.obj
 0001:000b2840       ??$gjkRaycast@U?$LocalConvex@VTriangleV@Gu@physx@@@Gu@physx@@U?$LocalConvex@VConvexHullV@Gu@physx@@@23@@Gu@physx@@YA_NAEBU?$LocalConvex@VTriangleV@Gu@physx@@@01@AEBU?$LocalConvex@VConvexHullV@Gu@physx@@@01@AEBT__m128@@222AEAT4@33M@Z 00000001800b3840 f i GuSweepsHF.obj
 0001:000b3640       ??$traceSegment@VBoxTraceSegmentReport@@$0A@$00@HeightFieldTraceUtil@Gu@physx@@QEBAXAEBV?$PxVec3T@M@2@0MPEAVBoxTraceSegmentReport@@AEBVPxBounds3@2@_NPEBV32@@Z 00000001800b4640 f i GuSweepsHF.obj
 0001:000b3640       ??$traceSegment@VCapsuleTraceSegmentReport@@$0A@$00@HeightFieldTraceUtil@Gu@physx@@QEBAXAEBV?$PxVec3T@M@2@0MPEAVCapsuleTraceSegmentReport@@AEBVPxBounds3@2@_NPEBV32@@Z 00000001800b4640 f i GuSweepsHF.obj
 0001:000b3640       ??$traceSegment@VConvexTraceSegmentReport@@$0A@$00@HeightFieldTraceUtil@Gu@physx@@QEBAXAEBV?$PxVec3T@M@2@0MPEAVConvexTraceSegmentReport@@AEBVPxBounds3@2@_NPEBV32@@Z 00000001800b4640 f i GuSweepsHF.obj
 0001:000b3e60       ??0ConvexTraceSegmentReport@@QEAA@AEBVHeightFieldUtil@Gu@physx@@AEBUConvexHullData@23@AEBVPxMeshScale@3@AEBV?$PxTransformT@M@3@3AEBV?$PxVec3T@M@3@MV?$PxFlags@W4Enum@PxHitFlag@physx@@G@3@M@Z 00000001800b4e60 f i GuSweepsHF.obj
 0001:000b47d0       ??_EBoxTraceSegmentReport@@UEAAPEAXI@Z 00000001800b57d0 f i GuSweepsHF.obj
 0001:000b47d0       ??_GBoxTraceSegmentReport@@UEAAPEAXI@Z 00000001800b57d0 f i GuSweepsHF.obj
 0001:000b4800       ??_ECapsuleTraceSegmentReport@@UEAAPEAXI@Z 00000001800b5800 f i GuSweepsHF.obj
 0001:000b4800       ??_GCapsuleTraceSegmentReport@@UEAAPEAXI@Z 00000001800b5800 f i GuSweepsHF.obj
 0001:000b4830       ??_EConvexTraceSegmentReport@@UEAAPEAXI@Z 00000001800b5830 f i GuSweepsHF.obj
 0001:000b4830       ??_GConvexTraceSegmentReport@@UEAAPEAXI@Z 00000001800b5830 f i GuSweepsHF.obj
 0001:000b4860       ??_EHeightFieldTraceSegmentReport@@UEAAPEAXI@Z 00000001800b5860 f i GuSweepsHF.obj
 0001:000b4860       ??_GHeightFieldTraceSegmentReport@@UEAAPEAXI@Z 00000001800b5860 f i GuSweepsHF.obj
 0001:000b4890       ?finalizeHit@ConvexTraceSegmentReport@@QEAA_NAEAUPxGeomSweepHit@physx@@AEBVPxHeightFieldGeometry@3@AEBV?$PxTransformT@M@3@AEBVPxConvexMeshGeometry@3@2AEBV?$PxVec3T@M@3@M@Z 00000001800b5890 f i GuSweepsHF.obj
 0001:000b4ac0       ?onEvent@BoxTraceSegmentReport@@UEAA_NIPEBI@Z 00000001800b5ac0 f i GuSweepsHF.obj
 0001:000b4f10       ?onEvent@CapsuleTraceSegmentReport@@UEAA_NIPEBI@Z 00000001800b5f10 f i GuSweepsHF.obj
 0001:000b5140       ?onEvent@ConvexTraceSegmentReport@@UEAA_NIPEBI@Z 00000001800b6140 f i GuSweepsHF.obj
 0001:000b5700       ?prepare@?$OverlapTraceSegment@VBoxTraceSegmentReport@@@HeightFieldTraceUtil@Gu@physx@@QEAAXAEBV?$PxVec3T@M@4@00AEAM1@Z 00000001800b6700 f i GuSweepsHF.obj
 0001:000b5700       ?prepare@?$OverlapTraceSegment@VCapsuleTraceSegmentReport@@@HeightFieldTraceUtil@Gu@physx@@QEAAXAEBV?$PxVec3T@M@4@00AEAM1@Z 00000001800b6700 f i GuSweepsHF.obj
 0001:000b5700       ?prepare@?$OverlapTraceSegment@VConvexTraceSegmentReport@@@HeightFieldTraceUtil@Gu@physx@@QEAAXAEBV?$PxVec3T@M@4@00AEAM1@Z 00000001800b6700 f i GuSweepsHF.obj
 0001:000b59c0       ?sweepBox_HeightFieldGeom@@YA_NAEBVPxGeometry@physx@@AEBV?$PxTransformT@M@2@AEBVPxBoxGeometry@2@1AEBVBox@Gu@2@AEBV?$PxVec3T@M@2@MAEAUPxGeomSweepHit@2@V?$PxFlags@W4Enum@PxHitFlag@physx@@G@2@MPEAUPxQueryThreadContext@2@@Z 00000001800b69c0 f   GuSweepsHF.obj
 0001:000b6810       ?sweepCapsule_HeightFieldGeom@@YA_NAEBVPxGeometry@physx@@AEBV?$PxTransformT@M@2@AEBVPxCapsuleGeometry@2@1AEBVCapsule@Gu@2@AEBV?$PxVec3T@M@2@MAEAUPxGeomSweepHit@2@V?$PxFlags@W4Enum@PxHitFlag@physx@@G@2@MPEAUPxQueryThreadContext@2@@Z 00000001800b7810 f   GuSweepsHF.obj
 0001:000b7160       ?sweepConvex_HeightFieldGeom@@YA_NAEBVPxGeometry@physx@@AEBV?$PxTransformT@M@2@AEBVPxConvexMeshGeometry@2@1AEBV?$PxVec3T@M@2@MAEAUPxGeomSweepHit@2@V?$PxFlags@W4Enum@PxHitFlag@physx@@G@2@MPEAUPxQueryThreadContext@2@@Z 00000001800b8160 f   GuSweepsHF.obj
 0001:000b7b30       ?testVertexIndex@?$OverlapTraceSegment@VBoxTraceSegmentReport@@@HeightFieldTraceUtil@Gu@physx@@QEAA_NI@Z 00000001800b8b30 f i GuSweepsHF.obj
 0001:000b7b30       ?testVertexIndex@?$OverlapTraceSegment@VCapsuleTraceSegmentReport@@@HeightFieldTraceUtil@Gu@physx@@QEAA_NI@Z 00000001800b8b30 f i GuSweepsHF.obj
 0001:000b7b30       ?testVertexIndex@?$OverlapTraceSegment@VConvexTraceSegmentReport@@@HeightFieldTraceUtil@Gu@physx@@QEAA_NI@Z 00000001800b8b30 f i GuSweepsHF.obj
 0001:000b7c90       ?transformFast@PxBounds3@physx@@SA?AV12@AEBV?$PxTransformT@M@2@AEBV12@@Z 00000001800b8c90 f i GuSweepsHF.obj
 0001:000b8070       ?visitCells@?$OverlapTraceSegment@VBoxTraceSegmentReport@@@HeightFieldTraceUtil@Gu@physx@@QEAA_NAEBUOverlapRectangle@1234@@Z 00000001800b9070 f i GuSweepsHF.obj
 0001:000b8070       ?visitCells@?$OverlapTraceSegment@VCapsuleTraceSegmentReport@@@HeightFieldTraceUtil@Gu@physx@@QEAA_NAEBUOverlapRectangle@1234@@Z 00000001800b9070 f i GuSweepsHF.obj
 0001:000b8070       ?visitCells@?$OverlapTraceSegment@VConvexTraceSegmentReport@@@HeightFieldTraceUtil@Gu@physx@@QEAA_NAEBUOverlapRectangle@1234@@Z 00000001800b9070 f i GuSweepsHF.obj
 0001:000b8260       ?intersectOBBOBB@Gu@physx@@YA_NAEBV?$PxVec3T@M@2@0AEBV?$PxMat33T@M@2@001_N@Z 00000001800b9260 f   GuIntersectionBoxBox.obj
 0001:000b88b0       ?intersectCapsuleTriangle@Gu@physx@@YA_NAEBV?$PxVec3T@M@2@000AEBVCapsule@12@AEBUCapsuleTriangleOverlapData@12@@Z 00000001800b98b0 f   GuIntersectionCapsuleTriangle.obj
 0001:000b94a0       ?intersectEdgeEdge@Gu@physx@@YA_NAEBV?$PxVec3T@M@2@0000AEAMAEAV32@@Z 00000001800ba4a0 f   GuIntersectionEdgeEdge.obj
 0001:000b97c0       ?intersectRayAABB2@Gu@physx@@YA_NAEBT__m128@@0000AEAT3@1@Z 00000001800ba7c0 f   GuIntersectionRayBox.obj
 0001:000b9880       ?intersectRayAABB2@Gu@physx@@YA_NAEBV?$PxVec3T@M@2@000MAEAM1@Z 00000001800ba880 f   GuIntersectionRayBox.obj
 0001:000b9a30       ?intersectRayAABB@Gu@physx@@YAHAEBV?$PxVec3T@M@2@000AEAM1@Z 00000001800baa30 f   GuIntersectionRayBox.obj
 0001:000b9b40       ?rayAABBIntersect2@Gu@physx@@YAIAEBV?$PxVec3T@M@2@000AEAV32@AEAM@Z 00000001800bab40 f   GuIntersectionRayBox.obj
 0001:000b9d40       ?intersectRayCapsuleInternal@Gu@physx@@YAIAEBV?$PxVec3T@M@2@000MQEAM@Z 00000001800bad40 f   GuIntersectionRayCapsule.obj
 0001:000ba200       ?intersectRaySphere@Gu@physx@@YA_NAEBV?$PxVec3T@M@2@0M0MAEAMPEAV32@@Z 00000001800bb200 f   GuIntersectionRaySphere.obj
 0001:000ba2f0       ?intersectRaySphereBasic@Gu@physx@@YA_NAEBV?$PxVec3T@M@2@0M0MAEAMPEAV32@@Z 00000001800bb2f0 f   GuIntersectionRaySphere.obj
 0001:000ba450       ?intersectSphereBox@Gu@physx@@YA_NAEBVSphere@12@AEBVBox@12@@Z 00000001800bb450 f   GuIntersectionSphereBox.obj
 0001:000ba680       ?intersectTetrahedronBox@Gu@physx@@YA_NAEBV?$PxVec3T@M@2@000AEBVPxBounds3@2@@Z 00000001800bb680 f   GuIntersectionTetrahedronBox.obj
 0001:000baa50       ?intersectTriangleBox@Gu@physx@@YAHAEBVBoxPadded@12@AEBV?$PxVec3T@M@2@11@Z 00000001800bba50 f   GuIntersectionTriangleBox.obj
 0001:000bb020       ?intersectTriangleBoxBV4@@YAHAEBV?$PxVec3T@M@physx@@00AEBV?$PxMat33T@M@2@00@Z 00000001800bc020 f   GuIntersectionTriangleBox.obj
 0001:000bb460       ?intersectTriangleBox_ReferenceCode@Gu@physx@@YAHAEBV?$PxVec3T@M@2@0000@Z 00000001800bc460 f   GuIntersectionTriangleBox.obj
 0001:000bbc30       ?intersectTriangleBox_Unsafe@Gu@physx@@YAHAEBV?$PxVec3T@M@2@0000@Z 00000001800bcc30 f   GuIntersectionTriangleBox.obj
 0001:000bc2e0       ?trianglesIntersect@Gu@physx@@YA_NAEBV?$PxVec3T@M@2@00000PEAVSegment@12@@Z 00000001800bd2e0 f   GuIntersectionTriangleTriangle.obj
 0001:000bc8d0       ??0BV4Tree@Gu@physx@@QEAA@W4PxEMPTY@2@@Z 00000001800bd8d0 f   GuBV4.obj
 0001:000bc8e0       ??0BV4Tree@Gu@physx@@QEAA@XZ 00000001800bd8e0 f   GuBV4.obj
 0001:000bc910       ??0SourceMesh@Gu@physx@@QEAA@XZ 00000001800bd910 f   GuBV4.obj
 0001:000bc940       ??0TetrahedronSourceMesh@Gu@physx@@QEAA@XZ 00000001800bd940 f   GuBV4.obj
 0001:000bc970       ??1BV4Tree@Gu@physx@@QEAA@XZ 00000001800bd970 f   GuBV4.obj
 0001:000bc9d0       ??1SourceMesh@Gu@physx@@UEAA@XZ 00000001800bd9d0 f   GuBV4.obj
 0001:000bc9d0       ??1TetrahedronSourceMesh@Gu@physx@@UEAA@XZ 00000001800bd9d0 f   GuBV4.obj
 0001:000bca20       ??4BV4Tree@Gu@physx@@QEAAXAEAV012@@Z 00000001800bda20 f   GuBV4.obj
 0001:000bcab0       ??4SourceMesh@Gu@physx@@QEAAXAEAV012@@Z 00000001800bdab0 f   GuBV4.obj
 0001:000bcb00       ??_ESourceMesh@Gu@physx@@UEAAPEAXI@Z 00000001800bdb00 f i GuBV4.obj
 0001:000bcb00       ??_ETetrahedronSourceMesh@Gu@physx@@UEAAPEAXI@Z 00000001800bdb00 f i GuBV4.obj
 0001:000bcb00       ??_GSourceMesh@Gu@physx@@UEAAPEAXI@Z 00000001800bdb00 f i GuBV4.obj
 0001:000bcb00       ??_GTetrahedronSourceMesh@Gu@physx@@UEAAPEAXI@Z 00000001800bdb00 f i GuBV4.obj
 0001:000bcba0       ??_ESourceMeshBase@Gu@physx@@UEAAPEAXI@Z 00000001800bdba0 f i GuBV4.obj
 0001:000bcba0       ??_GSourceMeshBase@Gu@physx@@UEAAPEAXI@Z 00000001800bdba0 f i GuBV4.obj
 0001:000bcc40       ?exportExtraData@BV4Tree@Gu@physx@@QEAAXAEAVPxSerializationContext@3@@Z 00000001800bdc40 f   GuBV4.obj
 0001:000bcca0       ?getPrimitiveBox@SourceMesh@Gu@physx@@UEAAXIAEAT__m128@@0@Z 00000001800bdca0 f   GuBV4.obj
 0001:000bcd40       ?getPrimitiveBox@TetrahedronSourceMesh@Gu@physx@@UEAAXIAEAT__m128@@0@Z 00000001800bdd40 f   GuBV4.obj
 0001:000bce00       ?importExtraData@BV4Tree@Gu@physx@@QEAAXAEAVPxDeserializationContext@3@@Z 00000001800bde00 f   GuBV4.obj
 0001:000bce50       ?init@BV32Tree@Gu@physx@@QEAA_NPEAVSourceMeshBase@23@AEBVPxBounds3@3@@Z 00000001800bde50 f   GuBV32.obj
 0001:000bce50       ?init@BV4Tree@Gu@physx@@QEAA_NPEAVSourceMeshBase@23@AEBVPxBounds3@3@@Z 00000001800bde50 f   GuBV4.obj
 0001:000bcef0       ?load@BV4Tree@Gu@physx@@QEAA_NAEAVPxInputStream@3@_N@Z 00000001800bdef0 f   GuBV4.obj
 0001:000bd130       ?refit@BV4Tree@Gu@physx@@QEAA_NAEAVPxBounds3@3@M@Z 00000001800be130 f   GuBV4.obj
 0001:000bd7a0       ?refit@SourceMesh@Gu@physx@@UEAAXIAEAVPxBounds3@3@@Z 00000001800be7a0 f   GuBV4.obj
 0001:000bd940       ?refit@TetrahedronSourceMesh@Gu@physx@@UEAAXIAEAVPxBounds3@3@@Z 00000001800be940 f   GuBV4.obj
 0001:000bdb60       ?remapTopology@SourceMesh@Gu@physx@@UEAAXPEBI@Z 00000001800beb60 f   GuBV4.obj
 0001:000bddf0       ?remapTopology@TetrahedronSourceMesh@Gu@physx@@UEAAXPEBI@Z 00000001800bedf0 f   GuBV4.obj
 0001:000be090       ??0BV4_AABBTree@Gu@physx@@QEAA@XZ 00000001800bf090 f   GuBV4Build.obj
 0001:000be0a0       ??0BVData@@QEAA@XZ         00000001800bf0a0 f   GuBV4Build.obj
 0001:000be0d0       ??0BuildStats@Gu@physx@@QEAA@XZ 00000001800bf0d0 f i GuBV4Build.obj
 0001:000be0e0       ??1BV4_AABBTree@Gu@physx@@QEAA@XZ 00000001800bf0e0 f   GuBV4Build.obj
 0001:000be0f0       ??4BuildStats@Gu@physx@@QEAAAEAU012@$$QEAU012@@Z 00000001800bf0f0 f i GuBV4Build.obj
 0001:000be100       ??4BuildStats@Gu@physx@@QEAAAEAU012@AEBU012@@Z 00000001800bf100 f i GuBV4Build.obj
 0001:000be110       ?BuildBV4Ex@Gu@physx@@YA_NAEAVBV4Tree@12@AEAVSourceMeshBase@12@MI_NW4BV4_BuildStrategy@12@@Z 00000001800bf110 f   GuBV4Build.obj
 0001:000bf070       ?allocateNode@BV4BuildParams@@QEAAPEAUBV4Node@@XZ 00000001800c0070 f   GuBV4Build.obj
 0001:000bf4f0       ?buildFromMesh@BV4_AABBTree@Gu@physx@@QEAA_NAEAVSourceMeshBase@23@IW4BV4_BuildStrategy@23@@Z 00000001800c04f0 f   GuBV4Build.obj
 0001:000c06a0       ?increaseCount@BuildStats@Gu@physx@@QEAAXI@Z 00000001800c16a0 f i GuBV4Build.obj
 0001:000c1100       ?release@BV4_AABBTree@Gu@physx@@QEAAXXZ 00000001800c2100 f   GuBV4Build.obj
 0001:000c11a0       ?releaseNodes@BV4BuildParams@@QEAAXXZ 00000001800c21a0 f   GuBV4Build.obj
 0001:000c1210       ?reset@BuildStats@Gu@physx@@QEAAXXZ 00000001800c2210 f i GuBV4Build.obj
 0001:000c1220       ?setCount@BuildStats@Gu@physx@@QEAAXI@Z 00000001800c2220 f i GuBV4Build.obj
 0001:000c1890       ?walk@BV4_AABBTree@Gu@physx@@QEBAIP6A_NPEBVAABBTreeNode@23@IPEAX@Z1@Z 00000001800c2890 f   GuBV4Build.obj
 0001:000c1950       ?walkDistance@BV4_AABBTree@Gu@physx@@QEBAIP6A_NPEBVAABBTreeNode@23@IPEAX@ZP6A_N01@Z1@Z 00000001800c2950 f   GuBV4Build.obj
 0001:000c5970       ?GenericSweep_AABB_CB@@YAXAEBVBox@Gu@physx@@AEBV?$PxVec3T@M@3@MAEBVBV4Tree@23@P6A_NPEAX111IAEAM@Z3I@Z 00000001800c6970 f   GuBV4_AABBSweep.obj
 0001:000c5ad0       ?Sweep_AABB_BV4@@YAHAEBVBox@Gu@physx@@AEBV?$PxVec3T@M@3@MAEBVBV4Tree@23@PEIAVSweepHit@23@I@Z 00000001800c6ad0 f   GuBV4_AABBSweep.obj
 0001:000ce810       ?BV4_OverlapBoxAll@@YAIAEBVBox@Gu@physx@@AEBVBV4Tree@23@PEIBV?$PxMat44T@M@3@PEAIIAEA_N@Z 00000001800cf810 f   GuBV4_BoxOverlap.obj
 0001:000cf020       ?BV4_OverlapBoxAny@@YAHAEBVBox@Gu@physx@@AEBVBV4Tree@23@PEIBV?$PxMat44T@M@3@@Z 00000001800d0020 f   GuBV4_BoxOverlap.obj
 0001:000cf820       ?BV4_OverlapBoxCB@@YAXAEBVBox@Gu@physx@@AEBVBV4Tree@23@P6A_NPEAXAEBV?$PxVec3T@M@3@333IPEBI@Z2@Z 00000001800d0820 f   GuBV4_BoxOverlap.obj
 0001:000cfee0       ?BV4_OverlapBoxCB@@YAXAEBVBox@Gu@physx@@AEBVBV4Tree@23@P6A_NPEAXAEBV?$PxVec3T@M@3@33IPEBI@Z2@Z 00000001800d0ee0 f   GuBV4_BoxOverlap.obj
 0001:000d0390       ?BV4_OverlapCapsuleAll@@YAIAEBVCapsule@Gu@physx@@AEBVBV4Tree@23@PEIBV?$PxMat44T@M@3@PEAIIAEA_N@Z 00000001800d1390 f   GuBV4_BoxOverlap.obj
 0001:000d0ab0       ?BV4_OverlapCapsuleAny@@YAHAEBVCapsule@Gu@physx@@AEBVBV4Tree@23@PEIBV?$PxMat44T@M@3@@Z 00000001800d1ab0 f   GuBV4_BoxOverlap.obj
 0001:000d3960       ?BV4_CapsuleSweepSingle@@YAHAEBVCapsule@Gu@physx@@AEBV?$PxVec3T@M@3@MAEBVBV4Tree@23@PEIAVSweepHit@23@I@Z 00000001800d4960 f   GuBV4_CapsuleSweep.obj
 0001:000d7a30       ?BV4_CapsuleSweepSingleAA@@YAHAEBVCapsule@Gu@physx@@AEBV?$PxVec3T@M@3@MAEBVBV4Tree@23@PEIAVSweepHit@23@I@Z 00000001800d8a30 f   GuBV4_CapsuleSweepAA.obj
 0001:000e78b0       ?BV4_OverlapMeshVsMesh@@YA_NAEAV?$PxReportCallback@UPxGeomIndexPair@physx@@@physx@@AEBVBV4Tree@Gu@2@1PEBV?$PxMat44T@M@2@2AEBV?$PxTransformT@M@2@3AEBVPxMeshScale@2@4V?$PxFlags@W4Enum@PxMeshMeshQueryFlag@physx@@I@2@@Z 00000001800e88b0 f   GuBV4_MeshMeshOverlap.obj
 0001:000e7ad0       ?BV4_OverlapMeshVsMesh@@YA_NAEAV?$PxReportCallback@UPxGeomIndexPair@physx@@@physx@@AEBVBV4Tree@Gu@2@1PEBV?$PxMat44T@M@2@2V?$PxFlags@W4Enum@PxMeshMeshQueryFlag@physx@@I@2@@Z 00000001800e8ad0 f   GuBV4_MeshMeshOverlap.obj
 0001:000ef030       ??D?$PxMat33T@M@physx@@QEBA?BV?$PxVec3T@M@1@AEBV21@@Z 00000001800f0030 f i GuBV4_OBBSweep.obj
 0001:000ef0c0       ?BV4_BoxSweepSingle@@YAHAEBVBox@Gu@physx@@AEBV?$PxVec3T@M@3@MAEBVBV4Tree@23@PEIBV?$PxMat44T@M@3@PEIAVSweepHit@23@I@Z 00000001800f00c0 f   GuBV4_OBBSweep.obj
 0001:000ef7f0       ?BV4_GenericSweepCB@@YAXAEBVBox@Gu@physx@@AEBV?$PxVec3T@M@3@MAEBVBV4Tree@23@P6A_NPEAX111IAEAM@Z3_N@Z 00000001800f07f0 f   GuBV4_OBBSweep.obj
 0001:000efa20       ?Sweep_OBB_BV4@@YAHAEBVBox@Gu@physx@@AEBV?$PxVec3T@M@3@MAEBVBV4Tree@23@PEIAVSweepHit@23@I@Z 00000001800f0a20 f   GuBV4_OBBSweep.obj
 0001:000f2560       ?BV4_RaycastCB@@YAXAEBV?$PxVec3T@M@physx@@0AEBVBV4Tree@Gu@2@PEIBV?$PxMat44T@M@2@MMIP6A?AW4HitCode@42@PEAX000IMMM@Z3@Z 00000001800f3560 f   GuBV4_Raycast.obj
 0001:000f29a0       ?BV4_RaycastSingle@@YAHAEBV?$PxVec3T@M@physx@@0AEBVBV4Tree@Gu@2@PEIBV?$PxMat44T@M@2@PEIAUPxGeomRaycastHit@2@MMIV?$PxFlags@W4Enum@PxHitFlag@physx@@G@2@@Z 00000001800f39a0 f   GuBV4_Raycast.obj
 0001:000f4ed0       ?BV4_OverlapSphereAll@@YAIAEBVSphere@Gu@physx@@AEBVBV4Tree@23@PEIBV?$PxMat44T@M@3@PEAIIAEA_N@Z 00000001800f5ed0 f   GuBV4_SphereOverlap.obj
 0001:000f51f0       ?BV4_OverlapSphereAny@@YAHAEBVSphere@Gu@physx@@AEBVBV4Tree@23@PEIBV?$PxMat44T@M@3@@Z 00000001800f61f0 f   GuBV4_SphereOverlap.obj
 0001:000f54d0       ?BV4_PointDistance@@YAXAEBV?$PxVec3T@M@physx@@AEBVBV4Tree@Gu@2@MAEAIAEAMAEAV12@@Z 00000001800f64d0 f   GuBV4_SphereOverlap.obj
 0001:000fbea0       ?BV4_GenericSweepCB_Old@@YAXAEBV?$PxVec3T@M@physx@@00MAEBVBV4Tree@Gu@2@PEIBV?$PxMat44T@M@2@P6A_NPEAX000IAEAM@Z3@Z 00000001800fcea0 f   GuBV4_SphereSweep.obj
 0001:000fc2b0       ?BV4_SphereSweepSingle@@YAHAEBVSphere@Gu@physx@@AEBV?$PxVec3T@M@3@MAEBVBV4Tree@23@PEIBV?$PxMat44T@M@3@PEIAVSweepHit@23@I@Z 00000001800fd2b0 f   GuBV4_SphereSweep.obj
 0001:000fd5c0       ?computeSweepData@physx@@YAMAEBVPxTriangleMeshGeometry@1@AEAV?$PxVec3T@M@1@11M@Z 00000001800fe5c0 f i GuMidphaseBV4.obj
 0001:000fea00       ?intersectBoxVsMesh_BV4@Gu@physx@@YA_NAEBVBox@12@AEBVTriangleMesh@12@AEBV?$PxTransformT@M@2@AEBVPxMeshScale@2@PEAULimitedResults@12@@Z 00000001800ffa00 f   GuMidphaseBV4.obj
 0001:000ff4e0       ?intersectCapsuleVsMesh_BV4@Gu@physx@@YA_NAEBVCapsule@12@AEBVTriangleMesh@12@AEBV?$PxTransformT@M@2@AEBVPxMeshScale@2@PEAULimitedResults@12@@Z 00000001801004e0 f   GuMidphaseBV4.obj
 0001:000ffcf0       ?intersectMeshVsMesh_BV4@Gu@physx@@YA_NAEAV?$PxReportCallback@UPxGeomIndexPair@physx@@@2@AEBVTriangleMesh@12@1AEBV?$PxTransformT@M@2@2AEBVPxMeshScale@2@3V?$PxFlags@W4Enum@PxMeshMeshQueryFlag@physx@@I@2@@Z 0000000180100cf0 f   GuMidphaseBV4.obj
 0001:001005f0       ?intersectOBB_BV4@Gu@physx@@YAXPEBVTetrahedronMesh@12@AEBVBox@12@AEAU?$TetMeshHitCallback@UPxGeomRaycastHit@physx@@@12@@Z 00000001801015f0 f   GuMidphaseBV4.obj
 0001:00100610       ?intersectOBB_BV4@Gu@physx@@YAXPEBVTriangleMesh@12@AEBVBox@12@AEAU?$MeshHitCallback@UPxGeomRaycastHit@physx@@@12@_N3@Z 0000000180101610 f   GuMidphaseBV4.obj
 0001:00100630       ?intersectSphereVsMesh_BV4@Gu@physx@@YA_NAEBVSphere@12@AEBVTriangleMesh@12@AEBV?$PxTransformT@M@2@AEBVPxMeshScale@2@PEAULimitedResults@12@@Z 0000000180101630 f   GuMidphaseBV4.obj
 0001:00100d30       ?pointMeshDistance_BV4@Gu@physx@@YAXPEBVTriangleMesh@12@AEBVPxTriangleMeshGeometry@2@AEBV?$PxTransformT@M@2@AEBV?$PxVec3T@M@2@MAEAIAEAMAEAV62@@Z 0000000180101d30 f   GuMidphaseBV4.obj
 0001:001013e0       ?raycast_triangleMesh_BV4@Gu@physx@@YAIPEBVTriangleMesh@12@AEBVPxTriangleMeshGeometry@2@AEBV?$PxTransformT@M@2@AEBV?$PxVec3T@M@2@3MV?$PxFlags@W4Enum@PxHitFlag@physx@@G@2@IPEIAUPxGeomRaycastHit@2@I@Z 00000001801023e0 f   GuMidphaseBV4.obj
 0001:001021f0       ?sweepBox_MeshGeom_BV4@Gu@physx@@YA_NPEBVTriangleMesh@12@AEBVPxTriangleMeshGeometry@2@AEBV?$PxTransformT@M@2@AEBVBox@12@AEBV?$PxVec3T@M@2@MAEAUPxGeomSweepHit@2@V?$PxFlags@W4Enum@PxHitFlag@physx@@G@2@M@Z 00000001801031f0 f   GuMidphaseBV4.obj
 0001:001038f0       ?sweepCapsule_MeshGeom_BV4@Gu@physx@@YA_NPEBVTriangleMesh@12@AEBVPxTriangleMeshGeometry@2@AEBV?$PxTransformT@M@2@AEBVCapsule@12@AEBV?$PxVec3T@M@2@MAEAUPxGeomSweepHit@2@V?$PxFlags@W4Enum@PxHitFlag@physx@@G@2@M@Z 00000001801048f0 f   GuMidphaseBV4.obj
 0001:00104410       ?sweepConvex_MeshGeom_BV4@Gu@physx@@YAXPEBVTriangleMesh@12@AEBVBox@12@AEBV?$PxVec3T@M@2@MAEAUSweepConvexMeshHitCallback@12@_N@Z 0000000180105410 f   GuMidphaseBV4.obj
 0001:00104450       ?transform@PxMeshScale@physx@@QEBA?AV?$PxVec3T@M@2@AEBV32@@Z 0000000180105450 f i GuMidphaseBV4.obj
 0001:00104690       ?findOverlapHeightField@PxMeshQuery@physx@@SAIAEBVPxGeometry@2@AEBV?$PxTransformT@M@2@AEBVPxHeightFieldGeometry@2@1PEAIIIAEA_NV?$PxFlags@W4Enum@PxGeometryQueryFlag@physx@@I@2@@Z 0000000180105690 f   GuMeshQuery.obj
 0001:00104e00       ?findOverlapTriangleMesh@PxMeshQuery@physx@@SAIAEBVPxGeometry@2@AEBV?$PxTransformT@M@2@AEBVPxTriangleMeshGeometry@2@1PEAIIIAEA_NV?$PxFlags@W4Enum@PxGeometryQueryFlag@physx@@I@2@@Z 0000000180105e00 f   GuMeshQuery.obj
 0001:00105150       ?findOverlapTriangleMesh@PxMeshQuery@physx@@SA_NAEAV?$PxReportCallback@UPxGeomIndexPair@physx@@@2@AEBVPxTriangleMeshGeometry@2@AEBV?$PxTransformT@M@2@12V?$PxFlags@W4Enum@PxGeometryQueryFlag@physx@@I@2@V?$PxFlags@W4Enum@PxMeshMeshQueryFlag@physx@@I@2@@Z 0000000180106150 f   GuMeshQuery.obj
 0001:00105260       ?getTriangle@PxMeshQuery@physx@@SAXAEBVPxHeightFieldGeometry@2@AEBV?$PxTransformT@M@2@IAEAVPxTriangle@2@PEAI3@Z 0000000180106260 f   GuMeshQuery.obj
 0001:001052e0       ?getTriangle@PxMeshQuery@physx@@SAXAEBVPxTriangleMeshGeometry@2@AEBV?$PxTransformT@M@2@IAEAVPxTriangle@2@PEAI3@Z 00000001801062e0 f   GuMeshQuery.obj
 0001:00105850       ?sweep@PxMeshQuery@physx@@SA_NAEBV?$PxVec3T@M@2@MAEBVPxGeometry@2@AEBV?$PxTransformT@M@2@IPEBVPxTriangle@2@AEAUPxGeomSweepHit@2@V?$PxFlags@W4Enum@PxHitFlag@physx@@G@2@PEBIM_NV?$PxFlags@W4Enum@PxGeometryQueryFlag@physx@@I@2@@Z 0000000180106850 f   GuMeshQuery.obj
 0001:00105cb0       ??$collide@$00$00@MeshRayCollider@@SAXAEBV?$PxVec3T@M@physx@@0M_NPEBVRTreeTriangleMesh@Gu@2@AEAU?$MeshHitCallback@UPxGeomRaycastHit@physx@@@42@PEBV12@@Z 0000000180106cb0 f i GuMidphaseRTree.obj
 0001:00106020       ??$collide@$00$0A@@MeshRayCollider@@SAXAEBV?$PxVec3T@M@physx@@0M_NPEBVRTreeTriangleMesh@Gu@2@AEAU?$MeshHitCallback@UPxGeomRaycastHit@physx@@@42@PEBV12@@Z 0000000180107020 f i GuMidphaseRTree.obj
 0001:00106260       ??$collide@$0A@$00@MeshRayCollider@@SAXAEBV?$PxVec3T@M@physx@@0M_NPEBVRTreeTriangleMesh@Gu@2@AEAU?$MeshHitCallback@UPxGeomRaycastHit@physx@@@42@PEBV12@@Z 0000000180107260 f i GuMidphaseRTree.obj
 0001:001085a0       ??0?$RayRTreeCallback@$00$0A@@@QEAA@MAEAU?$MeshHitCallback@UPxGeomRaycastHit@physx@@@Gu@physx@@HPEBXPEBV?$PxVec3T@M@3@AEBV43@3M_N2@Z 00000001801095a0 f i GuMidphaseRTree.obj
 0001:001086c0       ??1?$RayRTreeCallback@$00$00@@UEAA@XZ 00000001801096c0 f i GuMidphaseRTree.obj
 0001:00108750       ??1?$RayRTreeCallback@$00$0A@@@UEAA@XZ 0000000180109750 f i GuMidphaseRTree.obj
 0001:00108750       ??1?$RayRTreeCallback@$0A@$0A@@@UEAA@XZ 0000000180109750 f i GuMidphaseRTree.obj
 0001:001087e0       ??1?$RayRTreeCallback@$0A@$00@@UEAA@XZ 00000001801097e0 f i GuMidphaseRTree.obj
 0001:00108868       ??_E?$RayRTreeCallback@$00$00@@W7EAAPEAXI@Z 0000000180109868 f i GuMidphaseRTree.obj
 0001:00108874       ??_E?$RayRTreeCallback@$00$0A@@@W7EAAPEAXI@Z 0000000180109874 f i GuMidphaseRTree.obj
 0001:00108874       ??_E?$RayRTreeCallback@$0A@$0A@@@W7EAAPEAXI@Z 0000000180109874 f i GuMidphaseRTree.obj
 0001:00108880       ??_E?$RayRTreeCallback@$0A@$00@@W7EAAPEAXI@Z 0000000180109880 f i GuMidphaseRTree.obj
 0001:001088f0       ??_E?$RayRTreeCallback@$00$00@@UEAAPEAXI@Z 00000001801098f0 f i GuMidphaseRTree.obj
 0001:001088f0       ??_G?$RayRTreeCallback@$00$00@@UEAAPEAXI@Z 00000001801098f0 f i GuMidphaseRTree.obj
 0001:00108930       ??_E?$RayRTreeCallback@$00$0A@@@UEAAPEAXI@Z 0000000180109930 f i GuMidphaseRTree.obj
 0001:00108930       ??_E?$RayRTreeCallback@$0A@$0A@@@UEAAPEAXI@Z 0000000180109930 f i GuMidphaseRTree.obj
 0001:00108930       ??_G?$RayRTreeCallback@$00$0A@@@UEAAPEAXI@Z 0000000180109930 f i GuMidphaseRTree.obj
 0001:00108930       ??_G?$RayRTreeCallback@$0A@$0A@@@UEAAPEAXI@Z 0000000180109930 f i GuMidphaseRTree.obj
 0001:00108970       ??_E?$RayRTreeCallback@$0A@$00@@UEAAPEAXI@Z 0000000180109970 f i GuMidphaseRTree.obj
 0001:00108970       ??_G?$RayRTreeCallback@$0A@$00@@UEAAPEAXI@Z 0000000180109970 f i GuMidphaseRTree.obj
 0001:001089b0       ??_ECallback@RTree@Gu@physx@@UEAAPEAXI@Z 00000001801099b0 f i GuMidphaseRTree.obj
 0001:001089b0       ??_GCallback@RTree@Gu@physx@@UEAAPEAXI@Z 00000001801099b0 f i GuMidphaseRTree.obj
 0001:001089e0       ??_ERayMeshColliderCallback@@UEAAPEAXI@Z 00000001801099e0 f i GuMidphaseRTree.obj
 0001:001089e0       ??_ESweepCapsuleMeshHitCallback@Gu@physx@@UEAAPEAXI@Z 00000001801099e0 f i GuSweepsMesh.obj
 0001:001089e0       ??_GRayMeshColliderCallback@@UEAAPEAXI@Z 00000001801099e0 f i GuMidphaseRTree.obj
 0001:001089e0       ??_GSweepCapsuleMeshHitCallback@Gu@physx@@UEAAPEAXI@Z 00000001801099e0 f i GuSweepsMesh.obj
 0001:00108a10       ?collideOBB@MeshRayCollider@@SAXAEBVBox@Gu@physx@@_NPEBVRTreeTriangleMesh@34@AEAU?$MeshHitCallback@UPxGeomRaycastHit@physx@@@34@1@Z 0000000180109a10 f   GuMidphaseRTree.obj
 0001:00108ee0       ?intersectBoxVsMesh_RTREE@Gu@physx@@YA_NAEBVBox@12@AEBVTriangleMesh@12@AEBV?$PxTransformT@M@2@AEBVPxMeshScale@2@PEAULimitedResults@12@@Z 0000000180109ee0 f   GuMidphaseRTree.obj
 0001:00108f50       ?intersectCapsuleVsMesh_RTREE@Gu@physx@@YA_NAEBVCapsule@12@AEBVTriangleMesh@12@AEBV?$PxTransformT@M@2@AEBVPxMeshScale@2@PEAULimitedResults@12@@Z 0000000180109f50 f   GuMidphaseRTree.obj
 0001:00108fd0       ?intersectOBB_RTREE@Gu@physx@@YAXPEBVTriangleMesh@12@AEBVBox@12@AEAU?$MeshHitCallback@UPxGeomRaycastHit@physx@@@12@_N3@Z 0000000180109fd0 f   GuMidphaseRTree.obj
 0001:00109000       ?intersectSphereVsMesh_RTREE@Gu@physx@@YA_NAEBVSphere@12@AEBVTriangleMesh@12@AEBV?$PxTransformT@M@2@AEBVPxMeshScale@2@PEAULimitedResults@12@@Z 000000018010a000 f   GuMidphaseRTree.obj
 0001:00109030       ?pointMeshDistance_RTREE@Gu@physx@@YAXPEBVTriangleMesh@12@AEBVPxTriangleMeshGeometry@2@AEBV?$PxTransformT@M@2@AEBV?$PxVec3T@M@2@MAEAIAEAMAEAV62@@Z 000000018010a030 f   GuMidphaseRTree.obj
 0001:00109e20       ?processHit@RayMeshColliderCallback@@UEAA_NAEBUPxGeomRaycastHit@physx@@AEBV?$PxVec3T@M@3@11AEAMPEBI@Z 000000018010ae20 f i GuMidphaseRTree.obj
 0001:0010a5c0       ?processResults@?$RayRTreeCallback@$00$00@@UEAA_NIPEAI@Z 000000018010b5c0 f i GuMidphaseRTree.obj
 0001:0010a930       ?processResults@?$RayRTreeCallback@$00$00@@UEAA_NIPEAIAEAM@Z 000000018010b930 f i GuMidphaseRTree.obj
 0001:0010acb0       ?processResults@?$RayRTreeCallback@$00$0A@@@UEAA_NIPEAI@Z 000000018010bcb0 f i GuMidphaseRTree.obj
 0001:0010acb0       ?processResults@?$RayRTreeCallback@$0A@$0A@@@UEAA_NIPEAI@Z 000000018010bcb0 f i GuMidphaseRTree.obj
 0001:0010af10       ?processResults@?$RayRTreeCallback@$00$0A@@@UEAA_NIPEAIAEAM@Z 000000018010bf10 f i GuMidphaseRTree.obj
 0001:0010af10       ?processResults@?$RayRTreeCallback@$0A@$0A@@@UEAA_NIPEAIAEAM@Z 000000018010bf10 f i GuMidphaseRTree.obj
 0001:0010b1a0       ?processResults@?$RayRTreeCallback@$0A@$00@@UEAA_NIPEAI@Z 000000018010c1a0 f i GuMidphaseRTree.obj
 0001:0010b7e0       ?processResults@?$RayRTreeCallback@$0A@$00@@UEAA_NIPEAIAEAM@Z 000000018010c7e0 f i GuMidphaseRTree.obj
 0001:0010be30       ?raycast_triangleMesh_RTREE@Gu@physx@@YAIPEBVTriangleMesh@12@AEBVPxTriangleMeshGeometry@2@AEBV?$PxTransformT@M@2@AEBV?$PxVec3T@M@2@3MV?$PxFlags@W4Enum@PxHitFlag@physx@@G@2@IPEIAUPxGeomRaycastHit@2@I@Z 000000018010ce30 f   GuMidphaseRTree.obj
 0001:0010c5b0       ?sweepBox_MeshGeom_RTREE@Gu@physx@@YA_NPEBVTriangleMesh@12@AEBVPxTriangleMeshGeometry@2@AEBV?$PxTransformT@M@2@AEBVBox@12@AEBV?$PxVec3T@M@2@MAEAUPxGeomSweepHit@2@V?$PxFlags@W4Enum@PxHitFlag@physx@@G@2@M@Z 000000018010d5b0 f   GuMidphaseRTree.obj
 0001:0010dad0       ?sweepCapsule_MeshGeom_RTREE@Gu@physx@@YA_NPEBVTriangleMesh@12@AEBVPxTriangleMeshGeometry@2@AEBV?$PxTransformT@M@2@AEBVCapsule@12@AEBV?$PxVec3T@M@2@MAEAUPxGeomSweepHit@2@V?$PxFlags@W4Enum@PxHitFlag@physx@@G@2@M@Z 000000018010ead0 f   GuMidphaseRTree.obj
 0001:0010e280       ?sweepConvex_MeshGeom_RTREE@Gu@physx@@YAXPEBVTriangleMesh@12@AEBVBox@12@AEBV?$PxVec3T@M@2@MAEAUSweepConvexMeshHitCallback@12@_N@Z 000000018010f280 f   GuMidphaseRTree.obj
 0001:0010ec30       ??_E?$PxReportCallback@UPxGeomIndexPair@physx@@@physx@@UEAAPEAXI@Z 000000018010fc30 f i GuOverlapTestsMesh.obj
 0001:0010ec30       ??_G?$PxReportCallback@UPxGeomIndexPair@physx@@@physx@@UEAAPEAXI@Z 000000018010fc30 f i GuOverlapTestsMesh.obj
 0001:0010ecc0       ?GeomOverlapCallback_BoxMesh@@YA_NAEBVPxGeometry@physx@@AEBV?$PxTransformT@M@2@01PEAUTriggerCache@Gu@2@PEAUPxQueryThreadContext@2@@Z 000000018010fcc0 f   GuOverlapTestsMesh.obj
 0001:0010edd0       ?GeomOverlapCallback_CapsuleMesh@@YA_NAEBVPxGeometry@physx@@AEBV?$PxTransformT@M@2@01PEAUTriggerCache@Gu@2@PEAUPxQueryThreadContext@2@@Z 000000018010fdd0 f   GuOverlapTestsMesh.obj
 0001:0010eee0       ?GeomOverlapCallback_ConvexMesh@@YA_NAEBVPxGeometry@physx@@AEBV?$PxTransformT@M@2@01PEAUTriggerCache@Gu@2@PEAUPxQueryThreadContext@2@@Z 000000018010fee0 f   GuOverlapTestsMesh.obj
 0001:0010f3e0       ?GeomOverlapCallback_MeshMesh@@YA_NAEBVPxGeometry@physx@@AEBV?$PxTransformT@M@2@01PEAUTriggerCache@Gu@2@PEAUPxQueryThreadContext@2@@Z 00000001801103e0 f   GuOverlapTestsMesh.obj
 0001:0010f4a0       ?GeomOverlapCallback_SphereMesh@@YA_NAEBVPxGeometry@physx@@AEBV?$PxTransformT@M@2@01PEAUTriggerCache@Gu@2@PEAUPxQueryThreadContext@2@@Z 00000001801104a0 f   GuOverlapTestsMesh.obj
 0001:0010f890       ??0RTree@Gu@physx@@QEAA@W4PxEMPTY@2@@Z 0000000180110890 f   GuRTree.obj
 0001:0010f8a0       ?exportExtraData@RTree@Gu@physx@@QEAAXAEAVPxSerializationContext@3@@Z 00000001801108a0 f   GuRTree.obj
 0001:0010f8e0       ?importExtraData@RTree@Gu@physx@@QEAAXAEAVPxDeserializationContext@3@@Z 00000001801108e0 f   GuRTree.obj
 0001:0010f910       ?load@RTree@Gu@physx@@QEAA_NAEAVPxInputStream@3@I_N@Z 0000000180110910 f   GuRTree.obj
 0001:0010fc20       ?refitAllStaticTree@RTree@Gu@physx@@QEAAXAEAUCallbackRefit@123@PEAVPxBounds3@3@@Z 0000000180110c20 f   GuRTree.obj
 0001:00110180       ?validate@RTree@Gu@physx@@QEAAXPEAUCallbackRefit@123@@Z 0000000180111180 f   GuRTree.obj
 0001:001103c0       ?validateRecursive@RTree@Gu@physx@@IEAAXIURTreeNodeQ@23@PEAURTreePage@23@PEAUCallbackRefit@123@@Z 00000001801113c0 f   GuRTree.obj
 0001:00110580       ??$traverseRay@$00@RTree@Gu@physx@@QEBAXAEBV?$PxVec3T@M@2@0IPEAIPEAUCallbackRaycast@012@PEBV32@M@Z 0000000180111580 f i GuRTreeQueries.obj
 0001:00110920       ??$traverseRay@$0A@@RTree@Gu@physx@@QEBAXAEBV?$PxVec3T@M@2@0IPEAIPEAUCallbackRaycast@012@PEBV32@M@Z 0000000180111920 f i GuRTreeQueries.obj
 0001:00110c70       ?traverseAABB@RTree@Gu@physx@@QEBAXAEBV?$PxVec3T@M@3@0IPEAIPEAUCallback@123@@Z 0000000180111c70 f   GuRTreeQueries.obj
 0001:00110e30       ?traverseOBB@RTree@Gu@physx@@QEBAXAEBVBox@23@IPEAIPEAUCallback@123@@Z 0000000180111e30 f   GuRTreeQueries.obj
 0001:00111710       ??0SweepBoxMeshHitCallback@Gu@physx@@QEAA@W4Enum@CallbackMode@12@AEBVPxMat34Padded@2@M_NAEBVBox@12@AEBV?$PxVec3T@M@2@44AEBV?$PxFlags@W4Enum@PxHitFlag@physx@@G@2@M2M@Z 0000000180112710 f   GuSweepsMesh.obj
 0001:00111820       ??0SweepCapsuleMeshHitCallback@Gu@physx@@QEAA@AEAUPxGeomSweepHit@2@AEBV?$PxMat34T@M@2@M_NAEBVCapsule@12@AEBV?$PxVec3T@M@2@AEBV?$PxFlags@W4Enum@PxHitFlag@physx@@G@2@2M@Z 0000000180112820 f   GuSweepsMesh.obj
 0001:001118f0       ??0SweepConvexMeshHitCallback@Gu@physx@@QEAA@AEBUConvexHullData@12@AEBVPxMeshScale@2@AEBVFastVertex2ShapeScaling@Cm@2@AEBV?$PxTransformT@M@2@3AEBV?$PxVec3T@M@2@MV?$PxFlags@W4Enum@PxHitFlag@physx@@G@2@_NM6M@Z 00000001801128f0 f   GuSweepsMesh.obj
 0001:00112240       ??_ESweepBoxMeshHitCallback@Gu@physx@@UEAAPEAXI@Z 0000000180113240 f i GuSweepsMesh.obj
 0001:00112240       ??_GSweepBoxMeshHitCallback@Gu@physx@@UEAAPEAXI@Z 0000000180113240 f i GuSweepsMesh.obj
 0001:00112270       ??_ESweepConvexMeshHitCallback@Gu@physx@@UEAAPEAXI@Z 0000000180113270 f i GuSweepsMesh.obj
 0001:00112270       ??_GSweepConvexMeshHitCallback@Gu@physx@@UEAAPEAXI@Z 0000000180113270 f i GuSweepsMesh.obj
 0001:001122a0       ??_ESweepShapeMeshHitCallback@Gu@physx@@UEAAPEAXI@Z 00000001801132a0 f i GuSweepsMesh.obj
 0001:001122a0       ??_GSweepShapeMeshHitCallback@Gu@physx@@UEAAPEAXI@Z 00000001801132a0 f i GuSweepsMesh.obj
 0001:001122d0       ?finalizeHit@SweepBoxMeshHitCallback@Gu@physx@@QEBA_NAEAUPxGeomSweepHit@3@AEBVPxTriangleMeshGeometry@3@AEBV?$PxTransformT@M@3@2AEBV?$PxVec3T@M@3@_N4@Z 00000001801132d0 f   GuSweepsMesh.obj
 0001:00112990       ?finalizeHit@SweepCapsuleMeshHitCallback@Gu@physx@@QEBA_NAEAUPxGeomSweepHit@3@AEBVCapsule@23@AEBVPxTriangleMeshGeometry@3@AEBV?$PxTransformT@M@3@_N@Z 0000000180113990 f   GuSweepsMesh.obj
 0001:00112b40       ?finalizeHit@SweepConvexMeshHitCallback@Gu@physx@@QEAA_NAEAUPxGeomSweepHit@3@AEBVPxTriangleMeshGeometry@3@AEBV?$PxTransformT@M@3@AEBVPxConvexMeshGeometry@3@2AEBV?$PxVec3T@M@3@M_N555@Z 0000000180113b40 f   GuSweepsMesh.obj
 0001:00113010       ?processHit@SweepBoxMeshHitCallback@Gu@physx@@UEAA_NAEBUPxGeomRaycastHit@3@AEBV?$PxVec3T@M@3@11AEAMPEBI@Z 0000000180114010 f   GuSweepsMesh.obj
 0001:00113800       ?processHit@SweepCapsuleMeshHitCallback@Gu@physx@@UEAA_NAEBUPxGeomRaycastHit@3@AEBV?$PxVec3T@M@3@11AEAMPEBI@Z 0000000180114800 f   GuSweepsMesh.obj
 0001:00113d60       ?processHit@SweepConvexMeshHitCallback@Gu@physx@@UEAA_NAEBUPxGeomRaycastHit@3@AEBV?$PxVec3T@M@3@11AEAMPEBI@Z 0000000180114d60 f   GuSweepsMesh.obj
 0001:001144a0       ?sweepBox_MeshGeom@@YA_NAEBVPxGeometry@physx@@AEBV?$PxTransformT@M@2@AEBVPxBoxGeometry@2@1AEBVBox@Gu@2@AEBV?$PxVec3T@M@2@MAEAUPxGeomSweepHit@2@V?$PxFlags@W4Enum@PxHitFlag@physx@@G@2@MPEAUPxQueryThreadContext@2@@Z 00000001801154a0 f   GuSweepsMesh.obj
 0001:00114530       ?sweepCapsule_MeshGeom@@YA_NAEBVPxGeometry@physx@@AEBV?$PxTransformT@M@2@AEBVPxCapsuleGeometry@2@1AEBVCapsule@Gu@2@AEBV?$PxVec3T@M@2@MAEAUPxGeomSweepHit@2@V?$PxFlags@W4Enum@PxHitFlag@physx@@G@2@MPEAUPxQueryThreadContext@2@@Z 0000000180115530 f   GuSweepsMesh.obj
 0001:001145c0       ?sweepConvex_MeshGeom@@YA_NAEBVPxGeometry@physx@@AEBV?$PxTransformT@M@2@AEBVPxConvexMeshGeometry@2@1AEBV?$PxVec3T@M@2@MAEAUPxGeomSweepHit@2@V?$PxFlags@W4Enum@PxHitFlag@physx@@G@2@MPEAUPxQueryThreadContext@2@@Z 00000001801155c0 f   GuSweepsMesh.obj
 0001:00115100       ??0TriangleMesh@Gu@physx@@QEAA@AEBUPxTriangleMeshInternalData@2@@Z 0000000180116100 f   GuTriangleMesh.obj
 0001:001151e0       ??0TriangleMesh@Gu@physx@@QEAA@PEAVMeshFactory@12@AEAVTriangleMeshData@12@@Z 00000001801161e0 f   GuTriangleMesh.obj
 0001:00115560       ??1TriangleMesh@Gu@physx@@UEAA@XZ 0000000180116560 f   GuTriangleMesh.obj
 0001:001157b0       ??_ETriangleMesh@Gu@physx@@UEAAPEAXI@Z 00000001801167b0 f i GuTriangleMesh.obj
 0001:001157b0       ??_GTriangleMesh@Gu@physx@@UEAAPEAXI@Z 00000001801167b0 f i GuTriangleMesh.obj
 0001:00115820       ?exportExtraData@TriangleMesh@Gu@physx@@UEAAXAEAVPxSerializationContext@3@@Z 0000000180116820 f   GuTriangleMesh.obj
 0001:001159f0       ?getLocalBounds@TriangleMesh@Gu@physx@@UEBA?AVPxBounds3@3@XZ 00000001801169f0 f i GuTriangleMesh.obj
 0001:00115a80       ?getMassInformation@TriangleMesh@Gu@physx@@UEBAXAEAMAEAV?$PxMat33T@M@3@AEAV?$PxVec3T@M@3@@Z 0000000180116a80 f i GuTriangleMesh.obj
 0001:00115b00       ?getNbTriangles@TriangleMesh@Gu@physx@@UEBAIXZ 0000000180116b00 f i GuTriangleMesh.obj
 0001:00115b10       ?getPreferSDFProjection@TriangleMesh@Gu@physx@@UEBA_NXZ 0000000180116b10 f i GuTriangleMesh.obj
 0001:00115b20       ?getSDF@TriangleMesh@Gu@physx@@UEBAPEBMXZ 0000000180116b20 f i GuTriangleMesh.obj
 0001:00115b30       ?getSDFDimensions@TriangleMesh@Gu@physx@@UEBAXAEAI00@Z 0000000180116b30 f i GuTriangleMesh.obj
 0001:00115b60       ?getTriangleMaterialIndex@TriangleMesh@Gu@physx@@UEBAGI@Z 0000000180116b60 f i GuTriangleMesh.obj
 0001:00115b80       ?getTriangleMeshFlags@TriangleMesh@Gu@physx@@UEBA?AV?$PxFlags@W4Enum@PxTriangleMeshFlag@physx@@E@3@XZ 0000000180116b80 f i GuTriangleMesh.obj
 0001:00115b90       ?getTrianglesRemap@TriangleMesh@Gu@physx@@UEBAPEBIXZ 0000000180116b90 f i GuTriangleMesh.obj
 0001:00115ba0       ?getVerticesForModification@TriangleMesh@Gu@physx@@UEAAPEAV?$PxVec3T@M@3@XZ 0000000180116ba0 f   GuTriangleMesh.obj
 0001:00115be0       ?importExtraData@TriangleMesh@Gu@physx@@QEAAXAEAVPxDeserializationContext@3@@Z 0000000180116be0 f   GuTriangleMesh.obj
 0001:00115d70       ?isKindOf@PxTriangleMesh@physx@@MEBA_NPEBD@Z 0000000180116d70 f i GuTriangleMesh.obj
 0001:00115de0       ?onRefCountZero@TriangleMesh@Gu@physx@@UEAAXXZ 0000000180116de0 f   GuTriangleMesh.obj
 0001:00115eb0       ?refitBVH@TriangleMesh@Gu@physx@@UEAA?AVPxBounds3@3@XZ 0000000180116eb0 f   GuTriangleMesh.obj
 0001:00115f80       ?requestEdgeList@TriangleMesh@Gu@physx@@QEBAPEBVEdgeList@23@XZ 0000000180116f80 f   GuTriangleMesh.obj
 0001:00116070       ?setAllEdgesActive@TriangleMesh@Gu@physx@@QEAAXXZ 0000000180117070 f   GuTriangleMesh.obj
 0001:00116160       ?setPreferSDFProjection@TriangleMesh@Gu@physx@@UEAAX_N@Z 0000000180117160 f i GuTriangleMesh.obj
 0001:00116190       ??0BV4TriangleMesh@Gu@physx@@QEAA@AEBUPxTriangleMeshInternalData@2@@Z 0000000180117190 f   GuTriangleMeshBV4.obj
 0001:001162f0       ??0BV4TriangleMesh@Gu@physx@@QEAA@PEAVMeshFactory@12@AEAVTriangleMeshData@12@@Z 00000001801172f0 f   GuTriangleMeshBV4.obj
 0001:00116380       ??_EBV4TriangleMesh@Gu@physx@@UEAAPEAXI@Z 0000000180117380 f i GuTriangleMeshBV4.obj
 0001:00116380       ??_GBV4TriangleMesh@Gu@physx@@UEAAPEAXI@Z 0000000180117380 f i GuTriangleMeshBV4.obj
 0001:00116410       ?createObject@BV4TriangleMesh@Gu@physx@@SAPEAVTriangleMesh@23@AEAPEAEAEAVPxDeserializationContext@3@@Z 0000000180117410 f   GuTriangleMeshBV4.obj
 0001:001164f0       ?exportExtraData@BV4TriangleMesh@Gu@physx@@UEAAXAEAVPxSerializationContext@3@@Z 00000001801174f0 f   GuTriangleMeshBV4.obj
 0001:00116530       ?getConcreteTypeName@BV4TriangleMesh@Gu@physx@@UEBAPEBDXZ 0000000180117530 f i GuTriangleMeshBV4.obj
 0001:00116540       ?getInternalData@BV4TriangleMesh@Gu@physx@@UEBA_NAEAUPxTriangleMeshInternalData@3@_N@Z 0000000180117540 f   GuTriangleMeshBV4.obj
 0001:00116630       ?getMidphaseID@BV4TriangleMesh@Gu@physx@@UEBA?AW4Enum@PxMeshMidPhase@3@XZ 0000000180117630 f i GuTriangleMeshBV4.obj
 0001:00116630       ?getMidphaseID@BV4TriangleMeshBuilder@physx@@UEBA?AW4Enum@PxMeshMidPhase@2@XZ 0000000180117630 f i GuCookingTriangleMesh.obj
 0001:00116630       ?length@charNode@@UEBAHXZ  0000000180117630 f i libvcruntime:undname.obj
 0001:00116630       ?raw_length@charNode@@UEBAHXZ 0000000180117630 f i libvcruntime:undname.obj
 0001:00116630       DllMain                    0000000180117630 f i LIBCMT:dll_dllmain_stub.obj
 0001:00116630       _get_startup_argv_mode     0000000180117630 f i LIBCMT:argv_mode.obj
 0001:00116640       ?getVerticesForModification@BV4TriangleMesh@Gu@physx@@UEAAPEAV?$PxVec3T@M@3@XZ 0000000180117640 f   GuTriangleMeshBV4.obj
 0001:00116640       ?getVerticesForModification@RTreeTriangleMesh@Gu@physx@@UEAAPEAV?$PxVec3T@M@3@XZ 0000000180117640 f   GuTriangleMeshRTree.obj
 0001:00116650       ?refitBVH@BV4TriangleMesh@Gu@physx@@UEAA?AVPxBounds3@3@XZ 0000000180117650 f   GuTriangleMeshBV4.obj
 0001:001167c0       PxGetTriangleMeshInternalData 00000001801177c0 f   GuTriangleMeshBV4.obj
 0001:001167e0       ??0RTreeTriangleMesh@Gu@physx@@QEAA@PEAVMeshFactory@12@AEAVTriangleMeshData@12@@Z 00000001801177e0 f   GuTriangleMeshRTree.obj
 0001:00116950       ??_E?$RefitCallback@G@physx@@UEAAPEAXI@Z 0000000180117950 f i GuTriangleMeshRTree.obj
 0001:00116950       ??_E?$RefitCallback@I@physx@@UEAAPEAXI@Z 0000000180117950 f i GuTriangleMeshRTree.obj
 0001:00116950       ??_G?$RefitCallback@G@physx@@UEAAPEAXI@Z 0000000180117950 f i GuTriangleMeshRTree.obj
 0001:00116950       ??_G?$RefitCallback@I@physx@@UEAAPEAXI@Z 0000000180117950 f i GuTriangleMeshRTree.obj
 0001:00116980       ??_ERTreeTriangleMesh@Gu@physx@@UEAAPEAXI@Z 0000000180117980 f i GuTriangleMeshRTree.obj
 0001:00116980       ??_GRTreeTriangleMesh@Gu@physx@@UEAAPEAXI@Z 0000000180117980 f i GuTriangleMeshRTree.obj
 0001:00116a30       ?createObject@RTreeTriangleMesh@Gu@physx@@SAPEAVTriangleMesh@23@AEAPEAEAEAVPxDeserializationContext@3@@Z 0000000180117a30 f   GuTriangleMeshRTree.obj
 0001:00116ac0       ?exportExtraData@RTreeTriangleMesh@Gu@physx@@UEAAXAEAVPxSerializationContext@3@@Z 0000000180117ac0 f   GuTriangleMeshRTree.obj
 0001:00116b00       ?getConcreteTypeName@RTreeTriangleMesh@Gu@physx@@UEBAPEBDXZ 0000000180117b00 f i GuTriangleMeshRTree.obj
 0001:00116b10       ?recomputeBounds@?$RefitCallback@G@physx@@UEAAXIAEAT__m128@@0@Z 0000000180117b10 f i GuTriangleMeshRTree.obj
 0001:00116e40       ?recomputeBounds@?$RefitCallback@I@physx@@UEAAXIAEAT__m128@@0@Z 0000000180117e40 f i GuTriangleMeshRTree.obj
 0001:00117160       ?refitBVH@RTreeTriangleMesh@Gu@physx@@UEAA?AVPxBounds3@3@XZ 0000000180118160 f   GuTriangleMeshRTree.obj
 0001:00117280       ??0BV32Tree@Gu@physx@@QEAA@XZ 0000000180118280 f   GuBV32.obj
 0001:001172b0       ??1BV32Tree@Gu@physx@@QEAA@XZ 00000001801182b0 f   GuBV32.obj
 0001:001172c0       ?calculateLeafNode@BV32Tree@Gu@physx@@QEAAXAEAUBV32Data@23@@Z 00000001801182c0 f   GuBV32.obj
 0001:00117500       ?createSOAformatNode@BV32Tree@Gu@physx@@QEAAXAEAUBV32DataPacked@23@AEBUBV32Data@23@IAEAI2@Z 0000000180118500 f   GuBV32.obj
 0001:00117960       ?load@BV32Tree@Gu@physx@@QEAA_NAEAVPxInputStream@3@_N@Z 0000000180118960 f   GuBV32.obj
 0001:00117cb0       ?release@BV32Tree@Gu@physx@@QEAAXXZ 0000000180118cb0 f   GuBV32.obj
 0001:00117d70       ??0BV32Node@@QEAA@XZ       0000000180118d70 f i GuBV32Build.obj
 0001:001181f0       ?BuildBV32Ex@Gu@physx@@YA_NAEAVBV32Tree@12@AEAVSourceMeshBase@12@MI@Z 00000001801191f0 f   GuBV32Build.obj
 0001:00119190       ??0BVTetrahedronMesh@Gu@physx@@QEAA@AEAVTetrahedronMeshData@12@AEAVSoftBodyCollisionData@12@PEAVMeshFactory@12@@Z 000000018011a190 f   GuTetrahedronMesh.obj
 0001:001193f0       ??0SoftBodyMesh@Gu@physx@@QEAA@PEAVMeshFactory@12@AEAVSoftBodyMeshData@12@@Z 000000018011a3f0 f   GuTetrahedronMesh.obj
 0001:001197c0       ??0TetrahedronMesh@Gu@physx@@QEAA@PEAVMeshFactory@12@AEAVTetrahedronMeshData@12@@Z 000000018011a7c0 f   GuTetrahedronMesh.obj
 0001:001198b0       ??1SoftBodyAuxData@Gu@physx@@UEAA@XZ 000000018011a8b0 f   GuTetrahedronMesh.obj
 0001:00119b10       ??1TetrahedronMesh@Gu@physx@@UEAA@XZ 000000018011ab10 f   GuTetrahedronMesh.obj
 0001:00119bb0       ??_EBVTetrahedronMesh@Gu@physx@@UEAAPEAXI@Z 000000018011abb0 f i GuTetrahedronMesh.obj
 0001:00119bb0       ??_GBVTetrahedronMesh@Gu@physx@@UEAAPEAXI@Z 000000018011abb0 f i GuTetrahedronMesh.obj
 0001:00119d30       ??_ESoftBodyAuxData@Gu@physx@@UEAAPEAXI@Z 000000018011ad30 f i GuTetrahedronMesh.obj
 0001:00119d30       ??_GSoftBodyAuxData@Gu@physx@@UEAAPEAXI@Z 000000018011ad30 f i GuTetrahedronMesh.obj
 0001:00119da0       ??_ESoftBodyMesh@Gu@physx@@UEAAPEAXI@Z 000000018011ada0 f i GuTetrahedronMesh.obj
 0001:00119da0       ??_GSoftBodyMesh@Gu@physx@@UEAAPEAXI@Z 000000018011ada0 f i GuTetrahedronMesh.obj
 0001:00119e70       ??_ETetrahedronMesh@Gu@physx@@UEAAPEAXI@Z 000000018011ae70 f i GuTetrahedronMesh.obj
 0001:00119e70       ??_GTetrahedronMesh@Gu@physx@@UEAAPEAXI@Z 000000018011ae70 f i GuTetrahedronMesh.obj
 0001:00119ee0       ?exportExtraData@SoftBodyMesh@Gu@physx@@UEAAXAEAVPxSerializationContext@3@@Z 000000018011aee0 f   GuTetrahedronMesh.obj
 0001:00119fd0       ?getConcreteTypeName@SoftBodyAuxData@Gu@physx@@UEBAPEBDXZ 000000018011afd0 f i GuTetrahedronMesh.obj
 0001:00119fe0       ?getConcreteTypeName@SoftBodyMesh@Gu@physx@@UEBAPEBDXZ 000000018011afe0 f i GuTetrahedronMesh.obj
 0001:00119ff0       ?getConcreteTypeName@TetrahedronMesh@Gu@physx@@UEBAPEBDXZ 000000018011aff0 f i GuTetrahedronMesh.obj
 0001:0011a000       ?getLocalBounds@TetrahedronMesh@Gu@physx@@UEBA?AVPxBounds3@3@XZ 000000018011b000 f i GuTetrahedronMesh.obj
 0001:0011a090       ?getNbTetrahedrons@TetrahedronMesh@Gu@physx@@UEBAIXZ 000000018011b090 f i GuTetrahedronMesh.obj
 0001:0011a0a0       ?getBounds@BVH@Gu@physx@@UEBAPEBVPxBounds3@3@XZ 000000018011b0a0 f i GuBVH.obj
 0001:0011a0a0       ?getTetrahedraRemap@BVTetrahedronMesh@Gu@physx@@UEBAPEBIXZ 000000018011b0a0 f i GuTetrahedronMesh.obj
 0001:0011a0b0       ?getTetrahedronMeshFlags@TetrahedronMesh@Gu@physx@@UEBA?AV?$PxFlags@W4Enum@PxTetrahedronMeshFlag@physx@@E@3@XZ 000000018011b0b0 f i GuTetrahedronMesh.obj
 0001:0011a0c0       ?getTetrahedrons@TetrahedronMesh@Gu@physx@@UEBAPEBXXZ 000000018011b0c0 f i GuTetrahedronMesh.obj
 0001:0011a0d0       ?isKindOf@PxSoftBodyAuxData@physx@@MEBA_NPEBD@Z 000000018011b0d0 f i GuTetrahedronMesh.obj
 0001:0011a140       ?isKindOf@PxSoftBodyMesh@physx@@MEBA_NPEBD@Z 000000018011b140 f i GuTetrahedronMesh.obj
 0001:0011a1b0       ?isKindOf@PxTetrahedronMesh@physx@@MEBA_NPEBD@Z 000000018011b1b0 f i GuTetrahedronMesh.obj
 0001:0011a220       ?onRefCountZero@SoftBodyAuxData@Gu@physx@@UEAAXXZ 000000018011b220 f i GuTetrahedronMesh.obj
 0001:0011a220       ?release@SimulationTetrahedronMeshData@Gu@physx@@UEAAXXZ 000000018011b220 f i GuCookingTetrahedronMesh.obj
 0001:0011a240       ?onRefCountZero@SoftBodyMesh@Gu@physx@@UEAAXXZ 000000018011b240 f   GuTetrahedronMesh.obj
 0001:0011a2e0       ?onRefCountZero@TetrahedronMesh@Gu@physx@@UEAAXXZ 000000018011b2e0 f   GuTetrahedronMesh.obj
 0001:0011c850       ?pcmContactBoxBox@Gu@physx@@YA_NAEBVPxGeometry@2@0AEBV?$PxTransformT@M@2@1AEBUNarrowPhaseParams@12@AEAUCache@12@AEAVPxContactBuffer@2@PEAVPxRenderOutput@2@@Z 000000018011d850 f   GuPCMContactBoxBox.obj
 0001:0011d700       ??$gjkPenetration@U?$RelativeConvex@VBoxV@Gu@physx@@@Gu@physx@@U?$LocalConvex@VConvexHullNoScaleV@Gu@physx@@@23@@Gu@physx@@YA?AW4GjkStatus@01@AEBU?$RelativeConvex@VBoxV@Gu@physx@@@01@AEBU?$LocalConvex@VConvexHullNoScaleV@Gu@physx@@@01@AEBT__m128@@2_NPEIAE4AEAEAEAUGjkOutput@01@@Z 000000018011e700 f i GuPCMContactBoxConvex.obj
 0001:0011d770       ??$gjkPenetration@U?$RelativeConvex@VBoxV@Gu@physx@@@Gu@physx@@U?$LocalConvex@VConvexHullNoScaleV@Gu@physx@@@23@@Gu@physx@@YA?AW4GjkStatus@01@AEBU?$RelativeConvex@VBoxV@Gu@physx@@@01@AEBU?$LocalConvex@VConvexHullNoScaleV@Gu@physx@@@01@AEBT__m128@@2_NPEIAE4PEIAT5@5AEAEAEAUGjkOutput@01@@Z 000000018011e770 f i GuPCMContactBoxConvex.obj
 0001:0011f350       ?pcmContactBoxConvex@Gu@physx@@YA_NAEBVPxGeometry@2@0AEBV?$PxTransformT@M@2@1AEBUNarrowPhaseParams@12@AEAUCache@12@AEAVPxContactBuffer@2@PEAVPxRenderOutput@2@@Z 0000000180120350 f   GuPCMContactBoxConvex.obj
 0001:00120130       ?support@?$LocalConvex@VConvexHullNoScaleV@Gu@physx@@@Gu@physx@@UEBA?AT__m128@@AEBT4@@Z 0000000180121130 f i GuPCMContactBoxConvex.obj
 0001:00120180       ?support@?$LocalConvex@VConvexHullNoScaleV@Gu@physx@@@Gu@physx@@UEBA?AT__m128@@AEBT4@AEAH@Z 0000000180121180 f i GuPCMContactBoxConvex.obj
 0001:001201e0       ?supportPoint@?$LocalConvex@VConvexHullNoScaleV@Gu@physx@@@Gu@physx@@UEBA?AT__m128@@H@Z 00000001801211e0 f i GuPCMContactBoxConvex.obj
 0001:00120210       ?pcmContactCapsuleBox@Gu@physx@@YA_NAEBVPxGeometry@2@0AEBV?$PxTransformT@M@2@1AEBUNarrowPhaseParams@12@AEAUCache@12@AEAVPxContactBuffer@2@PEAVPxRenderOutput@2@@Z 0000000180121210 f   GuPCMContactCapsuleBox.obj
 0001:001211a0       ?pcmContactCapsuleCapsule@Gu@physx@@YA_NAEBVPxGeometry@2@0AEBV?$PxTransformT@M@2@1AEBUNarrowPhaseParams@12@AEAUCache@12@AEAVPxContactBuffer@2@PEAVPxRenderOutput@2@@Z 00000001801221a0 f   GuPCMContactCapsuleCapsule.obj
 0001:00121a30       ??$gjkPenetration@U?$LocalConvex@VCapsuleV@Gu@physx@@@Gu@physx@@U?$LocalConvex@VConvexHullNoScaleV@Gu@physx@@@23@@Gu@physx@@YA?AW4GjkStatus@01@AEBU?$LocalConvex@VCapsuleV@Gu@physx@@@01@AEBU?$LocalConvex@VConvexHullNoScaleV@Gu@physx@@@01@AEBT__m128@@2_NPEIAE4AEAEAEAUGjkOutput@01@@Z 0000000180122a30 f i GuPCMContactCapsuleConvex.obj
 0001:00121aa0       ??$gjkPenetration@U?$LocalConvex@VCapsuleV@Gu@physx@@@Gu@physx@@U?$LocalConvex@VConvexHullNoScaleV@Gu@physx@@@23@@Gu@physx@@YA?AW4GjkStatus@01@AEBU?$LocalConvex@VCapsuleV@Gu@physx@@@01@AEBU?$LocalConvex@VConvexHullNoScaleV@Gu@physx@@@01@AEBT__m128@@2_NPEIAE4PEIAT5@5AEAEAEAUGjkOutput@01@@Z 0000000180122aa0 f i GuPCMContactCapsuleConvex.obj
 0001:00123170       ?pcmContactCapsuleConvex@Gu@physx@@YA_NAEBVPxGeometry@2@0AEBV?$PxTransformT@M@2@1AEBUNarrowPhaseParams@12@AEAUCache@12@AEAVPxContactBuffer@2@PEAVPxRenderOutput@2@@Z 0000000180124170 f   GuPCMContactCapsuleConvex.obj
 0001:00124360       ??_EPCMCapsuleVsHeightfieldContactGenerationCallback@@UEAAPEAXI@Z 0000000180125360 f i GuPCMContactCapsuleHeightField.obj
 0001:00124360       ??_EPCMConvexVsHeightfieldContactGenerationCallback@physx@@UEAAPEAXI@Z 0000000180125360 f i GuPCMContactConvexHeightField.obj
 0001:00124360       ??_GPCMCapsuleVsHeightfieldContactGenerationCallback@@UEAAPEAXI@Z 0000000180125360 f i GuPCMContactCapsuleHeightField.obj
 0001:00124360       ??_GPCMConvexVsHeightfieldContactGenerationCallback@physx@@UEAAPEAXI@Z 0000000180125360 f i GuPCMContactConvexHeightField.obj
 0001:00124390       ?pcmContactCapsuleHeightField@Gu@physx@@YA_NAEBVPxGeometry@2@0AEBV?$PxTransformT@M@2@1AEBUNarrowPhaseParams@12@AEAUCache@12@AEAVPxContactBuffer@2@PEAVPxRenderOutput@2@@Z 0000000180125390 f   GuPCMContactCapsuleHeightField.obj
 0001:001252a0       ?reportTouchedTris@?$PCMHeightfieldContactGenerationCallback@UPCMCapsuleVsHeightfieldContactGenerationCallback@@@Gu@physx@@UEAA_NIPEBI@Z 00000001801262a0 f i GuPCMContactCapsuleHeightField.obj
 0001:00125910       ?generateContacts@PCMCapsuleVsMeshContactGeneration@Gu@physx@@SAXAEBT__m128@@0000I000PEAVMeshPersistentContact@23@AEAI@Z 0000000180126910 f   GuPCMContactCapsuleMesh.obj
 0001:00125d30       ?generateEE@PCMCapsuleVsMeshContactGeneration@Gu@physx@@QEAAXAEBT__m128@@000I00PEAVMeshPersistentContact@23@AEAI@Z 0000000180126d30 f   GuPCMContactCapsuleMesh.obj
 0001:00125fa0       ?generateEEMTD@PCMCapsuleVsMeshContactGeneration@Gu@physx@@SAXAEBT__m128@@000I00PEAVMeshPersistentContact@23@AEAI@Z 0000000180126fa0 f   GuPCMContactCapsuleMesh.obj
 0001:001261d0       ?pcmContactCapsuleMesh@Gu@physx@@YA_NAEBVPxGeometry@2@0AEBV?$PxTransformT@M@2@1AEBUNarrowPhaseParams@12@AEAUCache@12@AEAVPxContactBuffer@2@PEAVPxRenderOutput@2@@Z 00000001801271d0 f   GuPCMContactCapsuleMesh.obj
 0001:00127e60       ?processTriangle@PCMCapsuleVsMeshContactGeneration@Gu@physx@@QEAA_NPEBV?$PxVec3T@M@3@IEPEBI@Z 0000000180128e60 f   GuPCMContactCapsuleMesh.obj
 0001:00128a60       ?processTriangle@PCMCapsuleVsMeshContactGeneration@Gu@physx@@SA_NAEBVTriangleV@23@IAEBVCapsuleV@23@AEBT__m128@@EPEAVMeshPersistentContact@23@AEAI@Z 0000000180129a60 f   GuPCMContactCapsuleMesh.obj
 0001:00128d90       ?addContactsToPatch@PCMConvexVsMeshContactGeneration@Gu@physx@@QEAAXAEBT__m128@@I@Z 0000000180129d90 f   GuPCMContactConvexCommon.obj
 0001:001296d0       ?doSupport@?$SupportLocalImpl@VTriangleV@Gu@physx@@@Gu@physx@@UEBA?AT__m128@@AEBT4@@Z 000000018012a6d0 f i GuPCMContactConvexCommon.obj
 0001:00129760       ?doSupport@?$SupportLocalImpl@VTriangleV@Gu@physx@@@Gu@physx@@UEBAXAEBT__m128@@AEAT4@1@Z 000000018012a760 f i GuPCMContactConvexCommon.obj
 0001:001297d0       ?generateLastContacts@PCMConvexVsMeshContactGeneration@Gu@physx@@QEAAXXZ 000000018012a7d0 f   GuPCMContactConvexCommon.obj
 0001:00129d30       ?populateVerts@?$SupportLocalImpl@VTriangleV@Gu@physx@@@Gu@physx@@UEBAXPEBEIPEBV?$PxVec3T@M@3@PEAT__m128@@@Z 000000018012ad30 f i GuPCMContactConvexCommon.obj
 0001:00129e70       ?processTriangle@PCMConvexVsMeshContactGeneration@Gu@physx@@QEAA_NPEBV?$PxVec3T@M@3@IEPEBI@Z 000000018012ae70 f   GuPCMContactConvexCommon.obj
 0001:0012a3c0       ?processTriangle@PCMConvexVsMeshContactGeneration@Gu@physx@@SA_NAEBUPolygonalData@23@PEAVSupportLocal@23@PEBV?$PxVec3T@M@3@IEAEBT__m128@@_NAEBVPxTransformV@aos@3@AEBVPxMatTransformV@93@PEAVMeshPersistentContact@23@AEAI@Z 000000018012b3c0 f   GuPCMContactConvexCommon.obj
 0001:0012a640       ??$gjkPenetration@U?$RelativeConvex@VConvexHullNoScaleV@Gu@physx@@@Gu@physx@@U?$LocalConvex@VConvexHullNoScaleV@Gu@physx@@@23@@Gu@physx@@YA?AW4GjkStatus@01@AEBU?$RelativeConvex@VConvexHullNoScaleV@Gu@physx@@@01@AEBU?$LocalConvex@VConvexHullNoScaleV@Gu@physx@@@01@AEBT__m128@@2_NPEIAE4AEAEAEAUGjkOutput@01@@Z 000000018012b640 f i GuPCMContactConvexConvex.obj
 0001:0012a6b0       ??$gjkPenetration@U?$RelativeConvex@VConvexHullNoScaleV@Gu@physx@@@Gu@physx@@U?$LocalConvex@VConvexHullNoScaleV@Gu@physx@@@23@@Gu@physx@@YA?AW4GjkStatus@01@AEBU?$RelativeConvex@VConvexHullNoScaleV@Gu@physx@@@01@AEBU?$LocalConvex@VConvexHullNoScaleV@Gu@physx@@@01@AEBT__m128@@2_NPEIAE4PEIAT5@5AEAEAEAUGjkOutput@01@@Z 000000018012b6b0 f i GuPCMContactConvexConvex.obj
 0001:0012bbc0       ??$gjkPenetration@U?$RelativeConvex@VConvexHullNoScaleV@Gu@physx@@@Gu@physx@@U?$LocalConvex@VConvexHullV@Gu@physx@@@23@@Gu@physx@@YA?AW4GjkStatus@01@AEBU?$RelativeConvex@VConvexHullNoScaleV@Gu@physx@@@01@AEBU?$LocalConvex@VConvexHullV@Gu@physx@@@01@AEBT__m128@@2_NPEIAE4AEAEAEAUGjkOutput@01@@Z 000000018012cbc0 f i GuPCMContactConvexConvex.obj
 0001:0012bc30       ??$gjkPenetration@U?$RelativeConvex@VConvexHullNoScaleV@Gu@physx@@@Gu@physx@@U?$LocalConvex@VConvexHullV@Gu@physx@@@23@@Gu@physx@@YA?AW4GjkStatus@01@AEBU?$RelativeConvex@VConvexHullNoScaleV@Gu@physx@@@01@AEBU?$LocalConvex@VConvexHullV@Gu@physx@@@01@AEBT__m128@@2_NPEIAE4PEIAT5@5AEAEAEAUGjkOutput@01@@Z 000000018012cc30 f i GuPCMContactConvexConvex.obj
 0001:0012d1d0       ??$gjkPenetration@U?$RelativeConvex@VConvexHullV@Gu@physx@@@Gu@physx@@U?$LocalConvex@VConvexHullNoScaleV@Gu@physx@@@23@@Gu@physx@@YA?AW4GjkStatus@01@AEBU?$RelativeConvex@VConvexHullV@Gu@physx@@@01@AEBU?$LocalConvex@VConvexHullNoScaleV@Gu@physx@@@01@AEBT__m128@@2_NPEIAE4AEAEAEAUGjkOutput@01@@Z 000000018012e1d0 f i GuPCMContactConvexConvex.obj
 0001:0012d240       ??$gjkPenetration@U?$RelativeConvex@VConvexHullV@Gu@physx@@@Gu@physx@@U?$LocalConvex@VConvexHullNoScaleV@Gu@physx@@@23@@Gu@physx@@YA?AW4GjkStatus@01@AEBU?$RelativeConvex@VConvexHullV@Gu@physx@@@01@AEBU?$LocalConvex@VConvexHullNoScaleV@Gu@physx@@@01@AEBT__m128@@2_NPEIAE4PEIAT5@5AEAEAEAUGjkOutput@01@@Z 000000018012e240 f i GuPCMContactConvexConvex.obj
 0001:0012f260       ?pcmContactConvexConvex@Gu@physx@@YA_NAEBVPxGeometry@2@0AEBV?$PxTransformT@M@2@1AEBUNarrowPhaseParams@12@AEAUCache@12@AEAVPxContactBuffer@2@PEAVPxRenderOutput@2@@Z 0000000180130260 f   GuPCMContactConvexConvex.obj
 0001:00130380       ?support@?$RelativeConvex@VConvexHullNoScaleV@Gu@physx@@@Gu@physx@@UEBA?AT__m128@@AEBT4@@Z 0000000180131380 f i GuPCMContactConvexConvex.obj
 0001:00130430       ?support@?$RelativeConvex@VConvexHullNoScaleV@Gu@physx@@@Gu@physx@@UEBA?AT__m128@@AEBT4@AEAH@Z 0000000180131430 f i GuPCMContactConvexConvex.obj
 0001:001304f0       ?supportPoint@?$RelativeConvex@VConvexHullNoScaleV@Gu@physx@@@Gu@physx@@UEBA?AT__m128@@H@Z 00000001801314f0 f i GuPCMContactConvexConvex.obj
 0001:00130550       ?PCMContactConvexHeightfield@Gu@physx@@YA_NAEBUPolygonalData@12@PEAVSupportLocal@12@AEBT__m128@@AEBVPxBounds3@2@AEBVPxHeightFieldGeometry@2@AEBV?$PxTransformT@M@2@5MAEAVPxContactBuffer@2@AEBVFastVertex2ShapeScaling@Cm@2@_NAEAVMultiplePersistentContactManifold@12@PEAVPxRenderOutput@2@@Z 0000000180131550 f   GuPCMContactConvexHeightField.obj
 0001:001313f0       ?pcmContactBoxHeightField@Gu@physx@@YA_NAEBVPxGeometry@2@0AEBV?$PxTransformT@M@2@1AEBUNarrowPhaseParams@12@AEAUCache@12@AEAVPxContactBuffer@2@PEAVPxRenderOutput@2@@Z 00000001801323f0 f   GuPCMContactConvexHeightField.obj
 0001:00131690       ?pcmContactConvexHeightField@Gu@physx@@YA_NAEBVPxGeometry@2@0AEBV?$PxTransformT@M@2@1AEBUNarrowPhaseParams@12@AEAUCache@12@AEAVPxContactBuffer@2@PEAVPxRenderOutput@2@@Z 0000000180132690 f   GuPCMContactConvexHeightField.obj
 0001:00131d50       ?reportTouchedTris@?$PCMHeightfieldContactGenerationCallback@UPCMConvexVsHeightfieldContactGenerationCallback@physx@@@Gu@physx@@UEAA_NIPEBI@Z 0000000180132d50 f i GuPCMContactConvexHeightField.obj
 0001:00132300       ??$processTriangleCache@$0BA@@PCMConvexVsMeshContactGenerationCallback@physx@@QEAAXAEAU?$TriangleCache@$0BA@@Gu@1@@Z 0000000180133300 f i GuPCMContactConvexMesh.obj
 0001:00132390       ??_EPCMConvexVsMeshContactGenerationCallback@physx@@UEAAPEAXI@Z 0000000180133390 f i GuPCMContactConvexMesh.obj
 0001:00132390       ??_GPCMConvexVsMeshContactGenerationCallback@physx@@UEAAPEAXI@Z 0000000180133390 f i GuPCMContactConvexMesh.obj
 0001:001323c0       ?PCMContactConvexMesh@Gu@physx@@YA_NAEBUPolygonalData@12@PEAVSupportLocal@12@AEBT__m128@@AEBVPxBounds3@2@AEBVPxTriangleMeshGeometry@2@AEBV?$PxTransformT@M@2@5MAEAVPxContactBuffer@2@AEBVFastVertex2ShapeScaling@Cm@2@7_N8AEAVMultiplePersistentContactManifold@12@PEAVPxRenderOutput@2@@Z 00000001801333c0 f   GuPCMContactConvexMesh.obj
 0001:00132ec0       ?pcmContactBoxMesh@Gu@physx@@YA_NAEBVPxGeometry@2@0AEBV?$PxTransformT@M@2@1AEBUNarrowPhaseParams@12@AEAUCache@12@AEAVPxContactBuffer@2@PEAVPxRenderOutput@2@@Z 0000000180133ec0 f   GuPCMContactConvexMesh.obj
 0001:00133200       ?pcmContactConvexMesh@Gu@physx@@YA_NAEBVPxGeometry@2@0AEBV?$PxTransformT@M@2@1AEBUNarrowPhaseParams@12@AEAUCache@12@AEAVPxContactBuffer@2@PEAVPxRenderOutput@2@@Z 0000000180134200 f   GuPCMContactConvexMesh.obj
 0001:001339d0       ?processHit@?$PCMMeshContactGenerationCallback@UPCMConvexVsMeshContactGenerationCallback@physx@@@Gu@physx@@UEAA_NAEBUPxGeomRaycastHit@3@AEBV?$PxVec3T@M@3@11AEAMPEBI@Z 00000001801349d0 f i GuPCMContactConvexMesh.obj
 0001:00133e90       ?addGJKEPAContacts@Gu@physx@@YA_NPEBUGjkConvex@12@0AEBVPxMatTransformV@aos@2@W4GjkStatus@12@PEAVPersistentContact@12@T__m128@@4AEAUGjkOutput@12@AEAVPersistentContactManifold@12@@Z 0000000180134e90 f   GuPCMContactGenBoxConvex.obj
 0001:00134090       ?buildPartialHull@Gu@physx@@YAXAEBUPolygonalData@12@PEAVSupportLocal@12@AEAVSeparatingAxes@12@AEBT__m128@@3@Z 0000000180135090 f   GuPCMContactGenBoxConvex.obj
 0001:00134370       ?computeMTD@Gu@physx@@YA_NAEAUPolygonalData@12@0PEAVSupportLocal@12@1AEAT__m128@@2@Z 0000000180135370 f   GuPCMContactGenBoxConvex.obj
 0001:00134990       ?generateFullContactManifold@Gu@physx@@YA_NAEAUPolygonalData@12@0PEAVSupportLocal@12@1PEAVPersistentContact@12@AEAIAEBT__m128@@444MM_NPEAVPxRenderOutput@2@M@Z 0000000180135990 f   GuPCMContactGenBoxConvex.obj
 0001:001354a0       ?generatedContacts@Gu@physx@@YAXAEAUPolygonalData@12@0AEBUHullPolygonData@12@1PEAVSupportLocal@12@2AEBVPxMatTransformV@aos@2@PEAVPersistentContact@12@AEAIAEBT__m128@@PEAVPxRenderOutput@2@@Z 00000001801364a0 f   GuPCMContactGenBoxConvex.obj
 0001:00136900       ?computeMTD@Gu@physx@@YA_NAEBVCapsuleV@12@AEAUPolygonalData@12@PEAVSupportLocal@12@AEAT__m128@@3@Z 0000000180137900 f   GuPCMContactGenSphereCapsule.obj
 0001:001369f0       ?generateCapsuleBoxFullContactManifold@Gu@physx@@YA_NAEBVCapsuleV@12@AEAUPolygonalData@12@PEAVSupportLocal@12@AEBVPxMatTransformV@aos@2@PEAVPersistentContact@12@AEAIAEBT__m128@@AEAT9@6M_NMPEAVPxRenderOutput@2@@Z 00000001801379f0 f   GuPCMContactGenSphereCapsule.obj
 0001:00136b90       ?generateFullContactManifold@Gu@physx@@YA_NAEBVCapsuleV@12@AEAUPolygonalData@12@PEAVSupportLocal@12@AEBVPxMatTransformV@aos@2@PEAVPersistentContact@12@AEAIAEBT__m128@@AEAT9@6M_NM@Z 0000000180137b90 f   GuPCMContactGenSphereCapsule.obj
 0001:00136d80       ?generateSphereFullContactManifold@Gu@physx@@YA_NAEBVCapsuleV@12@AEAUPolygonalData@12@PEAVSupportLocal@12@PEAVPersistentContact@12@AEAIAEBT__m128@@AEAT7@_N@Z 0000000180137d80 f   GuPCMContactGenSphereCapsule.obj
 0001:00138250       ?pcmContactPlaneBox@Gu@physx@@YA_NAEBVPxGeometry@2@0AEBV?$PxTransformT@M@2@1AEBUNarrowPhaseParams@12@AEAUCache@12@AEAVPxContactBuffer@2@PEAVPxRenderOutput@2@@Z 0000000180139250 f   GuPCMContactPlaneBox.obj
 0001:00138e20       ?pcmContactPlaneCapsule@Gu@physx@@YA_NAEBVPxGeometry@2@0AEBV?$PxTransformT@M@2@1AEBUNarrowPhaseParams@12@AEAUCache@12@AEAVPxContactBuffer@2@PEAVPxRenderOutput@2@@Z 0000000180139e20 f   GuPCMContactPlaneCapsule.obj
 0001:00139590       ?pcmContactPlaneConvex@Gu@physx@@YA_NAEBVPxGeometry@2@0AEBV?$PxTransformT@M@2@1AEBUNarrowPhaseParams@12@AEAUCache@12@AEAVPxContactBuffer@2@PEAVPxRenderOutput@2@@Z 000000018013a590 f   GuPCMContactPlaneConvex.obj
 0001:0013a200       ?pcmContactSphereBox@Gu@physx@@YA_NAEBVPxGeometry@2@0AEBV?$PxTransformT@M@2@1AEBUNarrowPhaseParams@12@AEAUCache@12@AEAVPxContactBuffer@2@PEAVPxRenderOutput@2@@Z 000000018013b200 f   GuPCMContactSphereBox.obj
 0001:0013a660       ?pcmContactSphereCapsule@Gu@physx@@YA_NAEBVPxGeometry@2@0AEBV?$PxTransformT@M@2@1AEBUNarrowPhaseParams@12@AEAUCache@12@AEAVPxContactBuffer@2@PEAVPxRenderOutput@2@@Z 000000018013b660 f   GuPCMContactSphereCapsule.obj
 0001:0013aad0       ?pcmContactSphereConvex@Gu@physx@@YA_NAEBVPxGeometry@2@0AEBV?$PxTransformT@M@2@1AEBUNarrowPhaseParams@12@AEAUCache@12@AEAVPxContactBuffer@2@PEAVPxRenderOutput@2@@Z 000000018013bad0 f   GuPCMContactSphereConvex.obj
 0001:0013b790       ??1?$PxArray@USortedTriangle@Gu@physx@@V?$PxInlineAllocator@$0IAA@V?$PxReflectionAllocator@USortedTriangle@Gu@physx@@@physx@@@3@@physx@@QEAA@XZ 000000018013c790 f i GuPCMContactSphereHeightField.obj
 0001:0013b800       ??_EPCMSphereVsHeightfieldContactGenerationCallback@physx@@UEAAPEAXI@Z 000000018013c800 f i GuPCMContactSphereHeightField.obj
 0001:0013b800       ??_GPCMSphereVsHeightfieldContactGenerationCallback@physx@@UEAAPEAXI@Z 000000018013c800 f i GuPCMContactSphereHeightField.obj
 0001:0013b850       ?pcmContactSphereHeightField@Gu@physx@@YA_NAEBVPxGeometry@2@0AEBV?$PxTransformT@M@2@1AEBUNarrowPhaseParams@12@AEAUCache@12@AEAVPxContactBuffer@2@PEAVPxRenderOutput@2@@Z 000000018013c850 f   GuPCMContactSphereHeightField.obj
 0001:0013c330       ?reportTouchedTris@?$PCMHeightfieldContactGenerationCallback@UPCMSphereVsHeightfieldContactGenerationCallback@physx@@@Gu@physx@@UEAA_NIPEBI@Z 000000018013d330 f i GuPCMContactSphereHeightField.obj
 0001:0013c8e0       ??$PxSort@USortedTriangle@Gu@physx@@U?$PxLess@USortedTriangle@Gu@physx@@@3@V?$PxReflectionAllocator@USortedTriangle@Gu@physx@@@3@@physx@@YAXPEAUSortedTriangle@Gu@0@IAEBU?$PxLess@USortedTriangle@Gu@physx@@@0@AEBV?$PxReflectionAllocator@USortedTriangle@Gu@physx@@@0@I@Z 000000018013d8e0 f i GuPCMContactSphereMesh.obj
 0001:0013ce10       ??$processTriangleCache@$0BA@VPCMSphereVsMeshContactGeneration@Gu@physx@@@PCMMeshContactGeneration@Gu@physx@@QEAA_NAEAU?$TriangleCache@$0BA@@12@@Z 000000018013de10 f i GuPCMContactSphereMesh.obj
 0001:0013d2e0       ?addToPatch@PCMSphereVsMeshContactGeneration@Gu@physx@@QEAAXAEBT__m128@@0T4@I@Z 000000018013e2e0 f   GuPCMContactSphereMesh.obj
 0001:0013d9a0       ?allocate@?$PxArray@IV?$PxInlineAllocator@$0PAA@V?$PxReflectionAllocator@I@physx@@@physx@@@physx@@IEAAPEAII@Z 000000018013e9a0 f i GuPCMContactSphereMesh.obj
 0001:0013da70       ?allocate@?$PxArray@USortedTriangle@Gu@physx@@V?$PxInlineAllocator@$0IAA@V?$PxReflectionAllocator@USortedTriangle@Gu@physx@@@physx@@@3@@physx@@IEAAPEAUSortedTriangle@Gu@2@I@Z 000000018013ea70 f i GuPCMContactSphereMesh.obj
 0001:0013db30       ?generateLastContacts@PCMSphereVsMeshContactGeneration@Gu@physx@@QEAAXXZ 000000018013eb30 f   GuPCMContactSphereMesh.obj
 0001:0013e160       ?growAndPushBack@?$PxArray@USortedTriangle@Gu@physx@@V?$PxInlineAllocator@$0IAA@V?$PxReflectionAllocator@USortedTriangle@Gu@physx@@@physx@@@3@@physx@@IEAAAEAUSortedTriangle@Gu@2@AEBU342@@Z 000000018013f160 f i GuPCMContactSphereMesh.obj
 0001:0013e270       ?pcmContactSphereMesh@Gu@physx@@YA_NAEBVPxGeometry@2@0AEBV?$PxTransformT@M@2@1AEBUNarrowPhaseParams@12@AEAUCache@12@AEAVPxContactBuffer@2@PEAVPxRenderOutput@2@@Z 000000018013f270 f   GuPCMContactSphereMesh.obj
 0001:0013f7f0       ?processTriangle@PCMSphereVsMeshContactGeneration@Gu@physx@@QEAA_NPEBV?$PxVec3T@M@3@IEPEBI@Z 00000001801407f0 f   GuPCMContactSphereMesh.obj
 0001:0013fbe0       ?recreate@?$PxArray@IV?$PxInlineAllocator@$0PAA@V?$PxReflectionAllocator@I@physx@@@physx@@@physx@@IEAAXI@Z 0000000180140be0 f i GuPCMContactSphereMesh.obj
 0001:0013fc90       ?pcmContactSpherePlane@Gu@physx@@YA_NAEBVPxGeometry@2@0AEBV?$PxTransformT@M@2@1AEBUNarrowPhaseParams@12@AEAUCache@12@AEAVPxContactBuffer@2@PEAVPxRenderOutput@2@@Z 0000000180140c90 f   GuPCMContactSpherePlane.obj
 0001:0013fe10       ?pcmContactSphereSphere@Gu@physx@@YA_NAEBVPxGeometry@2@0AEBV?$PxTransformT@M@2@1AEBUNarrowPhaseParams@12@AEAUCache@12@AEAVPxContactBuffer@2@PEAVPxRenderOutput@2@@Z 0000000180140e10 f   GuPCMContactSphereSphere.obj
 0001:001406e0       ?pcmContactGeometryCustomGeometry@Gu@physx@@YA_NAEBVPxGeometry@2@0AEBV?$PxTransformT@M@2@1AEBUNarrowPhaseParams@12@AEAUCache@12@AEAVPxContactBuffer@2@PEAVPxRenderOutput@2@@Z 00000001801416e0 f   GuPCMContactCustomGeometry.obj
 0001:00140790       ?getPCMConvexData@Gu@physx@@YAXAEBVConvexHullV@12@_NAEAUPolygonalData@12@@Z 0000000180141790 f   GuPCMShapeConvex.obj
 0001:001407d0       ?getPCMConvexData@Gu@physx@@YA_NAEBVPxConvexMeshGeometry@2@AEAVFastVertex2ShapeScaling@Cm@2@AEAVPxBounds3@2@AEAUPolygonalData@12@@Z 00000001801417d0 f   GuPCMShapeConvex.obj
 0001:00140d30       ?getPolygonalData@PCMPolygonalBox@Gu@physx@@QEBAXPEIAUPolygonalData@23@@Z 0000000180141d30 f   GuPCMShapeConvex.obj
 0001:00140db0       ?generatePolyDataContactManifold@PCMConvexVsMeshContactGeneration@Gu@physx@@QEAA_NAEAVTriangleV@23@IIEPEAVMeshPersistentContact@23@AEAIAEBT__m128@@AEAT6@@Z 0000000180141db0 f   GuPCMTriangleContactGen.obj
 0001:00140ed0       ?generateTriangleFullContactManifold@PCMConvexVsMeshContactGeneration@Gu@physx@@QEAA_NAEAVTriangleV@23@IPEBIEAEBUPolygonalData@23@PEAV?$SupportLocalImpl@VTriangleV@Gu@physx@@@23@PEAVSupportLocal@23@PEAVMeshPersistentContact@23@AEAIAEBT__m128@@AEAT9@@Z 0000000180141ed0 f   GuPCMTriangleContactGen.obj
 0001:00141400       ?generateTriangleFullContactManifold@PCMConvexVsMeshContactGeneration@Gu@physx@@SA_NAEAVTriangleV@23@IEAEBUPolygonalData@23@PEAV?$SupportLocalImpl@VTriangleV@Gu@physx@@@23@PEAVSupportLocal@23@PEAVMeshPersistentContact@23@AEAIAEBT__m128@@AEAT9@PEAVPxRenderOutput@3@@Z 0000000180142400 f   GuPCMTriangleContactGen.obj
 0001:00143480       ?addBatchManifoldContacts2@PersistentContactManifold@Gu@physx@@QEAAXPEBVPersistentContact@23@I@Z 0000000180144480 f   GuPersistentContactManifold.obj
 0001:001434f0       ?addBatchManifoldContacts@PersistentContactManifold@Gu@physx@@QEAAXPEBVPersistentContact@23@IM@Z 00000001801444f0 f   GuPersistentContactManifold.obj
 0001:00143570       ?addBatchManifoldContactsCluster@PersistentContactManifold@Gu@physx@@QEAAXPEBVPersistentContact@23@I@Z 0000000180144570 f   GuPersistentContactManifold.obj
 0001:001437f0       ?addManifoldContactPoints@MultiplePersistentContactManifold@Gu@physx@@QEAAXPEAVMeshPersistentContact@23@IPEAPEAUPCMContactPatch@23@IAEBT__m128@@2E@Z 00000001801447f0 f   GuPersistentContactManifold.obj
 0001:00143be0       ?addManifoldContactsToContactBuffer@MultiplePersistentContactManifold@Gu@physx@@QEAA_NAEAVPxContactBuffer@3@AEBVPxTransformV@aos@3@1AEBT__m128@@@Z 0000000180144be0 f   GuPersistentContactManifold.obj
 0001:00143e90       ?addManifoldContactsToContactBuffer@MultiplePersistentContactManifold@Gu@physx@@QEAA_NAEAVPxContactBuffer@3@AEBVPxTransformV@aos@3@@Z 0000000180144e90 f   GuPersistentContactManifold.obj
 0001:00144110       ?addManifoldContactsToContactBuffer@PersistentContactManifold@Gu@physx@@QEAAXAEAVPxContactBuffer@3@AEBT__m128@@1AEBVPxTransformV@aos@3@11@Z 0000000180145110 f   GuPersistentContactManifold.obj
 0001:001442a0       ?addManifoldContactsToContactBuffer@PersistentContactManifold@Gu@physx@@QEAAXAEAVPxContactBuffer@3@AEBT__m128@@AEBVPxMatTransformV@aos@3@@Z 00000001801452a0 f   GuPersistentContactManifold.obj
 0001:00144350       ?addManifoldContactsToContactBuffer@PersistentContactManifold@Gu@physx@@QEAAXAEAVPxContactBuffer@3@AEBT__m128@@AEBVPxTransformV@aos@3@1@Z 0000000180145350 f   GuPersistentContactManifold.obj
 0001:001444b0       ?addManifoldPoint2@PersistentContactManifold@Gu@physx@@QEAAIAEBT__m128@@000@Z 00000001801454b0 f   GuPersistentContactManifold.obj
 0001:001445e0       ?addManifoldPoint@Gu@physx@@YAXPEAVPersistentContact@12@AEAVPersistentContactManifold@12@AEAUGjkOutput@12@AEBVPxMatTransformV@aos@2@T__m128@@@Z 00000001801455e0 f   GuPersistentContactManifold.obj
 0001:00144790       ?addManifoldPoint@PersistentContactManifold@Gu@physx@@QEAAIAEBT__m128@@000@Z 0000000180145790 f   GuPersistentContactManifold.obj
 0001:00144bd0       ?drawLine@MultiplePersistentContactManifold@Gu@physx@@SAXAEAVPxRenderOutput@3@AEBT__m128@@1I@Z 0000000180145bd0 f   GuPersistentContactManifold.obj
 0001:00144c80       ?drawLine@MultiplePersistentContactManifold@Gu@physx@@SAXAEAVPxRenderOutput@3@V?$PxVec3T@M@3@1I@Z 0000000180145c80 f   GuPersistentContactManifold.obj
 0001:00144cf0       ?drawManifold@MultiplePersistentContactManifold@Gu@physx@@QEAAXAEAVPxRenderOutput@3@AEBVPxTransformV@aos@3@1@Z 0000000180145cf0 f   GuPersistentContactManifold.obj
 0001:00144d70       ?drawManifold@SinglePersistentContactManifold@Gu@physx@@QEAAXAEAVPxRenderOutput@3@AEBVPxTransformV@aos@3@1@Z 0000000180145d70 f   GuPersistentContactManifold.obj
 0001:001453a0       ?drawPoint@MultiplePersistentContactManifold@Gu@physx@@SAXAEAVPxRenderOutput@3@AEBT__m128@@MI@Z 00000001801463a0 f   GuPersistentContactManifold.obj
 0001:001455b0       ?drawPolygon@MultiplePersistentContactManifold@Gu@physx@@SAXAEAVPxRenderOutput@3@AEBVPxTransformV@aos@3@PEAT__m128@@II@Z 00000001801465b0 f   GuPersistentContactManifold.obj
 0001:00145830       ?findRotationMatrixFromZAxis@Gu@physx@@YA?AUMat33V@aos@2@AEBT__m128@@@Z 0000000180146830 f   GuPersistentContactManifold.obj
 0001:00145ab0       ?fromBuffer@MultiplePersistentContactManifold@Gu@physx@@QEAAXPEIAE@Z 0000000180146ab0 f   GuPersistentContactManifold.obj
 0001:00145c00       ?reduceBatchContacts2@PersistentContactManifold@Gu@physx@@QEAAXPEBVPersistentContact@23@I@Z 0000000180146c00 f   GuPersistentContactManifold.obj
 0001:00145e00       ?reduceBatchContacts@PersistentContactManifold@Gu@physx@@QEAAXPEBVPersistentContact@23@IM@Z 0000000180146e00 f   GuPersistentContactManifold.obj
 0001:001462c0       ?reduceBatchContactsCapsule@SinglePersistentContactManifold@Gu@physx@@QEAA?AT__m128@@PEBVMeshPersistentContact@23@IAEAUPCMContactPatch@23@@Z 00000001801472c0 f   GuPersistentContactManifold.obj
 0001:00146550       ?reduceBatchContactsCluster@PersistentContactManifold@Gu@physx@@QEAAXPEBVPersistentContact@23@I@Z 0000000180147550 f   GuPersistentContactManifold.obj
 0001:001469e0       ?reduceBatchContactsConvex@SinglePersistentContactManifold@Gu@physx@@QEAA?AT__m128@@PEBVMeshPersistentContact@23@IAEAUPCMContactPatch@23@@Z 00000001801479e0 f   GuPersistentContactManifold.obj
 0001:00146fd0       ?reduceContacts@SinglePersistentContactManifold@Gu@physx@@SAIPEAVMeshPersistentContact@23@I@Z 0000000180147fd0 f   GuPersistentContactManifold.obj
 0001:00147550       ?reduceContactsForPCM@PersistentContactManifold@Gu@physx@@QEAAIAEBT__m128@@00@Z 0000000180148550 f   GuPersistentContactManifold.obj
 0001:00147af0       ?refreshContactPoints@SinglePersistentContactManifold@Gu@physx@@QEAA?AT__m128@@AEBVPxMatTransformV@aos@3@AEBT4@1@Z 0000000180148af0 f   GuPersistentContactManifold.obj
 0001:00147c40       ?replaceManifoldPoint@PersistentContactManifold@Gu@physx@@QEAA_NAEBT__m128@@000@Z 0000000180148c40 f   GuPersistentContactManifold.obj
 0001:00147d00       ?contains@Gu@physx@@YA_NPEAT__m128@@IAEBT3@11@Z 0000000180148d00 f   GuPCMContactGenUtil.obj
 0001:00147ec0       ?getPolygonIndex@Gu@physx@@YAHAEBUPolygonalData@12@PEAVSupportLocal@12@AEBT__m128@@AEAH@Z 0000000180148ec0 f   GuPCMContactGenUtil.obj
 0001:00148110       ?getWitnessPolygonIndex@Gu@physx@@YAIAEBUPolygonalData@12@PEAVSupportLocal@12@AEBT__m128@@2M@Z 0000000180149110 f   GuPCMContactGenUtil.obj
 0001:00148660       ?sweepBoxBox@Gu@physx@@YA_NAEBVBox@12@0AEBV?$PxVec3T@M@2@MV?$PxFlags@W4Enum@PxHitFlag@physx@@G@2@AEAUPxGeomSweepHit@2@@Z 0000000180149660 f   GuSweepBoxBox.obj
 0001:00149ca0       ?sweepBoxSphere@Gu@physx@@YA_NAEBVBox@12@MAEBV?$PxVec3T@M@2@1MAEAMAEAV42@V?$PxFlags@W4Enum@PxHitFlag@physx@@G@2@@Z 000000018014aca0 f   GuSweepBoxSphere.obj
 0001:0014a960       ?sweepBoxTriangle@Gu@physx@@YA_NAEBVPxTriangle@2@AEBVPxBounds3@2@AEBV?$PxVec3T@M@2@2AEAV52@3AEAM_N@Z 000000018014b960 f   GuSweepBoxTriangle_FeatureBased.obj
 0001:0014c080       ?triBoxSweepTestBoxSpace@Gu@physx@@YAHAEBVPxTriangle@2@AEBV?$PxVec3T@M@2@11MAEAM_N@Z 000000018014d080 f   GuSweepBoxTriangle_SAT.obj
 0001:0014d980       ?sweepCapsuleBox@Gu@physx@@YA_NAEBVCapsule@12@AEBV?$PxTransformT@M@2@AEBV?$PxVec3T@M@2@2MAEAV52@AEAM3V?$PxFlags@W4Enum@PxHitFlag@physx@@G@2@@Z 000000018014e980 f   GuSweepCapsuleBox.obj
 0001:0014dce0       ?distancePointSegmentSquared@Gu@physx@@YAMAEBVSegment@12@AEBV?$PxVec3T@M@2@PEAM@Z 000000018014ece0 f i GuSweepCapsuleCapsule.obj
 0001:0014e060       ?sweepCapsuleCapsule@Gu@physx@@YA_NAEBVCapsule@12@0AEBV?$PxVec3T@M@2@MAEAMAEAV42@3IAEAG@Z 000000018014f060 f   GuSweepCapsuleCapsule.obj
 0001:0014ee70       ?sweepCapsuleTriangles_Precise@Gu@physx@@YA_NIPEIBVPxTriangle@2@AEBVCapsule@12@AEBV?$PxVec3T@M@2@MPEIBIAEAUPxGeomSweepHit@2@AEAV52@V?$PxFlags@W4Enum@PxHitFlag@physx@@G@2@_NPEBVBoxPadded@12@@Z 000000018014fe70 f   GuSweepCapsuleTriangle.obj
 0001:00151080       ?sweepSphereCapsule@Gu@physx@@YA_NAEBVSphere@12@AEBVCapsule@12@AEBV?$PxVec3T@M@2@MAEAMAEAV52@4V?$PxFlags@W4Enum@PxHitFlag@physx@@G@2@@Z 0000000180152080 f   GuSweepSphereCapsule.obj
 0001:00151720       ?sweepSphereSphere@Gu@physx@@YA_NAEBV?$PxVec3T@M@2@M0M0AEAMAEAV32@@Z 0000000180152720 f   GuSweepSphereSphere.obj
 0001:00151990       ?sweepSphereTriangles@Gu@physx@@YA_NIPEIBVPxTriangle@2@AEBV?$PxVec3T@M@2@M1MPEIBIAEAUPxGeomSweepHit@2@AEAV42@_N555@Z 0000000180152990 f   GuSweepSphereTriangle.obj
 0001:00152260       ?sweepSphereVSQuad@Gu@physx@@YA_NPEIBV?$PxVec3T@M@2@AEBV32@1M1AEAM@Z 0000000180153260 f   GuSweepSphereTriangle.obj
 0001:00153240       ?sweepSphereVSTri@Gu@physx@@YA_NPEIBV?$PxVec3T@M@2@AEBV32@1M1AEAMAEA_N_N@Z 0000000180154240 f   GuSweepSphereTriangle.obj
 0001:00153f60       ??$gjk@U?$LocalConvex@VTriangleV@Gu@physx@@@Gu@physx@@U?$LocalConvex@VBoxV@Gu@physx@@@23@@Gu@physx@@YA?AW4GjkStatus@01@AEBU?$LocalConvex@VTriangleV@Gu@physx@@@01@AEBU?$LocalConvex@VBoxV@Gu@physx@@@01@AEBT__m128@@2AEAT5@333@Z 0000000180154f60 f i GuSweepTriangleUtils.obj
 0001:00154c40       ?computeBoxTriImpactData@Gu@physx@@YAXAEAV?$PxVec3T@M@2@0AEBV32@1AEBVPxTriangle@2@M@Z 0000000180155c40 f   GuSweepTriangleUtils.obj
 0001:00154ed0       ?computeEdgeEdgeNormal@Gu@physx@@YAXAEAV?$PxVec3T@M@2@AEBV32@1111M@Z 0000000180155ed0 f   GuSweepTriangleUtils.obj
 0001:00155190       ?computeSphereTriImpactData@Gu@physx@@YAXAEAV?$PxVec3T@M@2@0AEBV32@1MAEBVPxTriangle@2@@Z 0000000180156190 f   GuSweepTriangleUtils.obj
 0001:00155670       ??0ShapeData@Gu@physx@@QEAA@AEBVPxGeometry@2@AEBV?$PxTransformT@M@2@M@Z 0000000180156670 f   GuBounds.obj
 0001:00155be0       ?computeBounds@Gu@physx@@YAXAEAVPxBounds3@2@AEBVPxGeometry@2@AEBV?$PxTransformT@M@2@MM@Z 0000000180156be0 f   GuBounds.obj
 0001:001568b0       ?computeBoundsAroundVertices@Gu@physx@@YAXAEAVPxBounds3@2@IPEIBV?$PxVec3T@M@2@@Z 00000001801578b0 f   GuBounds.obj
 0001:00156960       ?computeGlobalBox@Gu@physx@@YAXAEAVPxBounds3@2@IPEIBV32@PEIBI@Z 0000000180157960 f   GuBounds.obj
 0001:001569f0       ?computeLocalBoundsAndGeomEpsilon@Gu@physx@@YAXPEBV?$PxVec3T@M@2@IAEAVPxBounds3@2@AEAM@Z 00000001801579f0 f   GuBounds.obj
 0001:00157c20       ??$?_UV?$PxReflectionAllocator@UBVHNode@Gu@physx@@@physx@@@PxUserAllocated@physx@@SAPEAX_KV?$PxReflectionAllocator@UBVHNode@Gu@physx@@@1@PEBDH@Z 0000000180158c20 f i GuAABBTree.obj
 0001:00157cc0       ??$?_UV?$PxReflectionAllocator@VAABBTreeBuildNode@Gu@physx@@@physx@@@PxUserAllocated@physx@@SAPEAX_KV?$PxReflectionAllocator@VAABBTreeBuildNode@Gu@physx@@@1@PEBDH@Z 0000000180158cc0 f i GuAABBTree.obj
 0001:00157ef0       ??0AABBTree@Gu@physx@@QEAA@XZ 0000000180158ef0 f   GuAABBTree.obj
 0001:00157f20       ??0BVHPartialRefitData@Gu@physx@@QEAA@XZ 0000000180158f20 f   GuAABBTree.obj
 0001:00157f50       ??0NodeAllocator@Gu@physx@@QEAA@XZ 0000000180158f50 f   GuAABBTree.obj
 0001:00157f70       ??1AABBTree@Gu@physx@@QEAA@XZ 0000000180158f70 f   GuAABBTree.obj
 0001:00157f90       ??1BVHPartialRefitData@Gu@physx@@QEAA@XZ 0000000180158f90 f   GuAABBTree.obj
 0001:00158030       ??1NodeAllocator@Gu@physx@@QEAA@XZ 0000000180159030 f   GuAABBTree.obj
 0001:00158080       ?_buildHierarchy@AABBTreeBuildNode@Gu@physx@@QEAAXAEBVAABBTreeBuildParams@23@AEAUBuildStats@23@AEAVNodeAllocator@23@QEAI@Z 0000000180159080 f   GuAABBTree.obj
 0001:00158110       ?_buildHierarchySAH@AABBTreeBuildNode@Gu@physx@@QEAAXAEBVAABBTreeBuildParams@23@AEAUSAH_Buffers@23@AEAUBuildStats@23@AEAVNodeAllocator@23@QEAI@Z 0000000180159110 f   GuAABBTree.obj
 0001:001581c0       ?addRuntimeChilds@AABBTree@Gu@physx@@AEAAXAEAIAEBVAABBTreeMergeData@23@@Z 00000001801591c0 f   GuAABBTree.obj
 0001:001582c0       ?build@AABBTree@Gu@physx@@QEAA_NAEBVAABBTreeBuildParams@23@AEAVNodeAllocator@23@@Z 00000001801592c0 f   GuAABBTree.obj
 0001:001584e0       ?buildAABBTree@Gu@physx@@YAPEAIAEBVAABBTreeBuildParams@12@AEAVNodeAllocator@12@AEAUBuildStats@12@@Z 00000001801594e0 f   GuAABBTree.obj
 0001:00158580       ?buildAABBTree@Gu@physx@@YAXIAEBVAABBTreeBounds@12@AEAV?$PxArray@UBVHNode@Gu@physx@@V?$PxReflectionAllocator@UBVHNode@Gu@physx@@@3@@2@@Z 0000000180159580 f   GuAABBTree.obj
 0001:00158950       ?buildEnd@AABBTree@Gu@physx@@AEAAXAEBVAABBTreeBuildParams@23@AEAVNodeAllocator@23@AEBUBuildStats@23@@Z 0000000180159950 f   GuAABBTree.obj
 0001:00158b30       ?createUpdateMap@BVHPartialRefitData@Gu@physx@@QEAAXI@Z 0000000180159b30 f   GuAABBTree.obj
 0001:00158c50       ?flattenTree@Gu@physx@@YAXAEBVNodeAllocator@12@PEAUBVHNode@12@PEBI@Z 0000000180159c50 f   GuAABBTree.obj
 0001:00158e40       ?fullRefit@BVHCoreData@Gu@physx@@QEAAXPEBVPxBounds3@3@@Z 0000000180159e40 f   GuAABBTree.obj
 0001:00159000       ?getBiNode@NodeAllocator@Gu@physx@@QEAAPEAVAABBTreeBuildNode@23@XZ 000000018015a000 f   GuAABBTree.obj
 0001:00159130       ?getParentIndices@BVHPartialRefitData@Gu@physx@@IEAAPEAIXZ 000000018015a130 f   GuAABBTree.obj
 0001:001591c0       ?growAndPushBack@?$PxArray@PEAVAABBTreeBuildNode@Gu@physx@@V?$PxReflectionAllocator@PEAVAABBTreeBuildNode@Gu@physx@@@3@@physx@@IEAAAEAPEAVAABBTreeBuildNode@Gu@2@AEBQEAV342@@Z 000000018015a1c0 f i GuAABBTree.obj
 0001:00159300       ?growAndPushBack@?$PxArray@USlab@NodeAllocator@Gu@physx@@V?$PxReflectionAllocator@USlab@NodeAllocator@Gu@physx@@@4@@physx@@IEAAAEAUSlab@NodeAllocator@Gu@2@AEBU3452@@Z 000000018015a300 f i GuAABBTree.obj
 0001:001593c0       ?init@AABBTreeBounds@Gu@physx@@QEAAXIPEBVPxBounds3@3@@Z 000000018015a3c0 f   GuAABBTree.obj
 0001:00159480       ?init@NodeAllocator@Gu@physx@@QEAAXII@Z 000000018015a480 f   GuAABBTree.obj
 0001:00159770       ?initTree@AABBTree@Gu@physx@@QEAAXAEBVAABBTreeMergeData@23@@Z 000000018015a770 f   GuAABBTree.obj
 0001:00159860       ?markNodeForRefit@BVHPartialRefitData@Gu@physx@@QEAAXI@Z 000000018015a860 f   GuAABBTree.obj
 0001:00159970       ?mergeRuntimeLeaf@AABBTree@Gu@physx@@AEAAXAEAUBVHNode@23@AEBVAABBTreeMergeData@23@I@Z 000000018015a970 f   GuAABBTree.obj
 0001:00159b70       ?mergeRuntimeNode@AABBTree@Gu@physx@@AEAAXAEAUBVHNode@23@AEBVAABBTreeMergeData@23@I@Z 000000018015ab70 f   GuAABBTree.obj
 0001:00159e50       ?mergeTree@AABBTree@Gu@physx@@QEAAXAEBVAABBTreeMergeData@23@@Z 000000018015ae50 f   GuAABBTree.obj
 0001:0015a130       ?progressiveBuild@AABBTree@Gu@physx@@QEAAIAEBVAABBTreeBuildParams@23@AEAVNodeAllocator@23@AEAUBuildStats@23@II@Z 000000018015b130 f   GuAABBTree.obj
 0001:0015a3e0       ?recreate@?$PxArray@UBVHNode@Gu@physx@@V?$PxReflectionAllocator@UBVHNode@Gu@physx@@@3@@physx@@IEAAXI@Z 000000018015b3e0 f i GuAABBTree.obj
 0001:0015a650       ?refitMarkedNodes@BVHPartialRefitData@Gu@physx@@QEAAXPEBVPxBounds3@3@@Z 000000018015b650 f   GuAABBTree.obj
 0001:0015a7c0       ?release@AABBTree@Gu@physx@@QEAAX_N@Z 000000018015b7c0 f   GuAABBTree.obj
 0001:0015a8a0       ?release@AABBTreeBounds@Gu@physx@@QEAAXXZ 000000018015b8a0 f   GuAABBTree.obj
 0001:0015a8f0       ?release@NodeAllocator@Gu@physx@@QEAAXXZ 000000018015b8f0 f   GuAABBTree.obj
 0001:0015a9a0       ?releasePartialRefitData@BVHPartialRefitData@Gu@physx@@QEAAX_N@Z 000000018015b9a0 f   GuAABBTree.obj
 0001:0015aa30       ?reshuffle@Gu@physx@@YAIIQEIAIPEIBV?$PxVec3T@M@2@MI@Z 000000018015ba30 f   GuAABBTree.obj
 0001:0015ab70       ?resize@?$PxArray@UBVHNode@Gu@physx@@V?$PxReflectionAllocator@UBVHNode@Gu@physx@@@3@@physx@@QEAAXIAEBUBVHNode@Gu@2@@Z 000000018015bb70 f i GuAABBTree.obj
 0001:0015acf0       ?resize@?$PxArray@USlab@NodeAllocator@Gu@physx@@V?$PxReflectionAllocator@USlab@NodeAllocator@Gu@physx@@@4@@physx@@QEAAXIAEBUSlab@NodeAllocator@Gu@2@@Z 000000018015bcf0 f i GuAABBTree.obj
 0001:0015ad70       ?resize@AABBTreeBounds@Gu@physx@@QEAAXII@Z 000000018015bd70 f   GuAABBTree.obj
 0001:0015ae10       ?shiftIndices@AABBTree@Gu@physx@@QEAAXI@Z 000000018015be10 f   GuAABBTree.obj
 0001:0015ae30       ?shiftOrigin@AABBTree@Gu@physx@@QEAAXAEBV?$PxVec3T@M@3@@Z 000000018015be30 f   GuAABBTree.obj
 0001:0015b1a0       ?subdivide@AABBTreeBuildNode@Gu@physx@@QEAAXAEBVAABBTreeBuildParams@23@AEAUBuildStats@23@AEAVNodeAllocator@23@QEAI@Z 000000018015c1a0 f   GuAABBTree.obj
 0001:0015b3a0       ?subdivideSAH@AABBTreeBuildNode@Gu@physx@@QEAAXAEBVAABBTreeBuildParams@23@AEAUSAH_Buffers@23@AEAUBuildStats@23@AEAVNodeAllocator@23@QEAI@Z 000000018015c3a0 f   GuAABBTree.obj
 0001:0015b490       ?traverseRuntimeNode@AABBTree@Gu@physx@@AEAAXAEAUBVHNode@23@AEBVAABBTreeMergeData@23@I@Z 000000018015c490 f   GuAABBTree.obj
 0001:0015b5d0       ?initMap@AABBTreeUpdateMap@Gu@physx@@QEAAXIAEBVAABBTree@23@@Z 000000018015c5d0 f   GuAABBTreeUpdateMap.obj
 0001:0015b760       ?invalidate@AABBTreeUpdateMap@Gu@physx@@QEAAXIIAEAVAABBTree@23@@Z 000000018015c760 f   GuAABBTreeUpdateMap.obj
 0001:0015ba00       ?visualizeTree@@YAXAEAVPxRenderOutput@physx@@IPEBVAABBTree@Gu@2@@Z 000000018015ca00 f   GuSqInternal.obj
 0001:0015ba70       ?visualizeTree@@YAXAEAVPxRenderOutput@physx@@IPEBVBVH@Gu@2@@Z 000000018015ca70 f   GuSqInternal.obj
 0001:0015bae0       ?visualizeTree@@YAXAEAVPxRenderOutput@physx@@IPEBVIncrementalAABBTree@Gu@2@PEAVDebugVizCallback@2@@Z 000000018015cae0 f   GuSqInternal.obj
 0001:0015bb60       ??$PxSort@PEAXU?$PxLess@PEAX@physx@@V?$PxReflectionAllocator@UAABBTreeIndices@Gu@physx@@@2@@physx@@YAXPEAPEAXIAEBU?$PxLess@PEAX@0@AEBV?$PxReflectionAllocator@UAABBTreeIndices@Gu@physx@@@0@I@Z 000000018015cb60 f i GuIncrementalAABBTree.obj
 0001:0015bfd0       ??$PxSort@PEAXU?$PxLess@PEAX@physx@@V?$PxReflectionAllocator@UIncrementalAABBTreeNodePair@Gu@physx@@@2@@physx@@YAXPEAPEAXIAEBU?$PxLess@PEAX@0@AEBV?$PxReflectionAllocator@UIncrementalAABBTreeNodePair@Gu@physx@@@0@I@Z 000000018015cfd0 f i GuIncrementalAABBTree.obj
 0001:0015c440       ??0IncrementalAABBTree@Gu@physx@@QEAA@XZ 000000018015d440 f   GuIncrementalAABBTree.obj
 0001:0015c4c0       ??1?$PxPoolBase@UAABBTreeIndices@Gu@physx@@V?$PxReflectionAllocator@UAABBTreeIndices@Gu@physx@@@3@@physx@@QEAA@XZ 000000018015d4c0 f i GuIncrementalAABBTree.obj
 0001:0015c620       ??1?$PxPoolBase@UIncrementalAABBTreeNodePair@Gu@physx@@V?$PxReflectionAllocator@UIncrementalAABBTreeNodePair@Gu@physx@@@3@@physx@@QEAA@XZ 000000018015d620 f i GuIncrementalAABBTree.obj
 0001:0015c780       ??1IncrementalAABBTree@Gu@physx@@QEAA@XZ 000000018015d780 f   GuIncrementalAABBTree.obj
 0001:0015c7c0       ?allocate@?$PxArray@PEAXV?$PxReflectionAllocator@UAABBTreeIndices@Gu@physx@@@physx@@@physx@@IEAAPEAPEAXI@Z 000000018015d7c0 f i GuIncrementalAABBTree.obj
 0001:0015c870       ?allocate@?$PxArray@PEAXV?$PxReflectionAllocator@UIncrementalAABBTreeNodePair@Gu@physx@@@physx@@@physx@@IEAAPEAPEAXI@Z 000000018015d870 f i GuIncrementalAABBTree.obj
 0001:0015c920       ?allocate@?$PxPoolBase@UAABBTreeIndices@Gu@physx@@V?$PxReflectionAllocator@UAABBTreeIndices@Gu@physx@@@3@@physx@@QEAAPEAUAABBTreeIndices@Gu@2@XZ 000000018015d920 f i GuIncrementalAABBTree.obj
 0001:0015ca30       ?allocate@?$PxPoolBase@UIncrementalAABBTreeNodePair@Gu@physx@@V?$PxReflectionAllocator@UIncrementalAABBTreeNodePair@Gu@physx@@@3@@physx@@QEAAPEAUIncrementalAABBTreeNodePair@Gu@2@XZ 000000018015da30 f i GuIncrementalAABBTree.obj
 0001:0015cb60       ?build@IncrementalAABBTree@Gu@physx@@QEAA_NAEBVAABBTreeBuildParams@23@AEAV?$PxArray@PEAVIncrementalAABBTreeNode@Gu@physx@@V?$PxReflectionAllocator@PEAVIncrementalAABBTreeNode@Gu@physx@@@3@@3@@Z 000000018015db60 f   GuIncrementalAABBTree.obj
 0001:0015cd40       ?clone@IncrementalAABBTree@Gu@physx@@AEAAXAEAV?$PxArray@PEAVIncrementalAABBTreeNode@Gu@physx@@V?$PxReflectionAllocator@PEAVIncrementalAABBTreeNode@Gu@physx@@@3@@3@PEBIPEAPEAVIncrementalAABBTreeNode@23@@Z 000000018015dd40 f   GuIncrementalAABBTree.obj
 0001:0015d280       ?copy@IncrementalAABBTree@Gu@physx@@QEAAXAEBVBVH@23@AEAV?$PxArray@PEAVIncrementalAABBTreeNode@Gu@physx@@V?$PxReflectionAllocator@PEAVIncrementalAABBTreeNode@Gu@physx@@@3@@3@@Z 000000018015e280 f   GuIncrementalAABBTree.obj
 0001:0015d330       ?copyNode@IncrementalAABBTree@Gu@physx@@AEAAXAEAVIncrementalAABBTreeNode@23@AEBUBVHNode@23@PEBU523@PEAV423@PEBIAEAV?$PxArray@PEAVIncrementalAABBTreeNode@Gu@physx@@V?$PxReflectionAllocator@PEAVIncrementalAABBTreeNode@Gu@physx@@@3@@3@@Z 000000018015e330 f   GuIncrementalAABBTree.obj
 0001:0015d4f0       ?fixupTreeIndices@IncrementalAABBTree@Gu@physx@@QEAAXPEAVIncrementalAABBTreeNode@23@II@Z 000000018015e4f0 f   GuIncrementalAABBTree.obj
 0001:0015d520       ?getTreeLeafDepth@IncrementalAABBTree@Gu@physx@@QEAAIPEAVIncrementalAABBTreeNode@23@@Z 000000018015e520 f   GuIncrementalAABBTree.obj
 0001:0015d540       ?growAndPushBack@?$PxArray@PEAVIncrementalAABBTreeNode@Gu@physx@@V?$PxReflectionAllocator@PEAVIncrementalAABBTreeNode@Gu@physx@@@3@@physx@@IEAAAEAPEAVIncrementalAABBTreeNode@Gu@2@AEBQEAV342@@Z 000000018015e540 f i GuIncrementalAABBTree.obj
 0001:0015d680       ?growAndPushBack@?$PxArray@PEAXV?$PxReflectionAllocator@UAABBTreeIndices@Gu@physx@@@physx@@@physx@@IEAAAEAPEAXAEBQEAX@Z 000000018015e680 f i GuIncrementalAABBTree.obj
 0001:0015d740       ?growAndPushBack@?$PxArray@PEAXV?$PxReflectionAllocator@UIncrementalAABBTreeNodePair@Gu@physx@@@physx@@@physx@@IEAAAEAPEAXAEBQEAX@Z 000000018015e740 f i GuIncrementalAABBTree.obj
 0001:0015d800       ?hierarchyCheck@IncrementalAABBTree@Gu@physx@@QEAAXIPEBVPxBounds3@3@@Z 000000018015e800 f   GuIncrementalAABBTree.obj
 0001:0015d950       ?hierarchyCheck@IncrementalAABBTree@Gu@physx@@QEAAXPEBVPxBounds3@3@@Z 000000018015e950 f   GuIncrementalAABBTree.obj
 0001:0015dac0       ?insert@IncrementalAABBTree@Gu@physx@@QEAAPEAVIncrementalAABBTreeNode@23@IPEBVPxBounds3@3@AEAV?$PxArray@PEAVIncrementalAABBTreeNode@Gu@physx@@V?$PxReflectionAllocator@PEAVIncrementalAABBTreeNode@Gu@physx@@@3@@3@@Z 000000018015eac0 f   GuIncrementalAABBTree.obj
 0001:0015e1a0       ?recreate@?$PxArray@PEAXV?$PxReflectionAllocator@UAABBTreeIndices@Gu@physx@@@physx@@@physx@@IEAAXI@Z 000000018015f1a0 f i GuIncrementalAABBTree.obj
 0001:0015e240       ?recreate@?$PxArray@PEAXV?$PxReflectionAllocator@UIncrementalAABBTreeNodePair@Gu@physx@@@physx@@@physx@@IEAAXI@Z 000000018015f240 f i GuIncrementalAABBTree.obj
 0001:0015e2e0       ?release@IncrementalAABBTree@Gu@physx@@QEAAXXZ 000000018015f2e0 f   GuIncrementalAABBTree.obj
 0001:0015e310       ?releaseNode@IncrementalAABBTree@Gu@physx@@AEAAXPEAVIncrementalAABBTreeNode@23@@Z 000000018015f310 f   GuIncrementalAABBTree.obj
 0001:0015e3a0       ?remove@IncrementalAABBTree@Gu@physx@@QEAAPEAVIncrementalAABBTreeNode@23@PEAV423@IPEBVPxBounds3@3@@Z 000000018015f3a0 f   GuIncrementalAABBTree.obj
 0001:0015e6c0       ?rotateTree@IncrementalAABBTree@Gu@physx@@AEAAXPEAVIncrementalAABBTreeNode@23@AEAV?$PxArray@PEAVIncrementalAABBTreeNode@Gu@physx@@V?$PxReflectionAllocator@PEAVIncrementalAABBTreeNode@Gu@physx@@@3@@3@IPEBVPxBounds3@3@_N@Z 000000018015f6c0 f   GuIncrementalAABBTree.obj
 0001:0015f020       ?shiftOrigin@IncrementalAABBTree@Gu@physx@@QEAAXAEBV?$PxVec3T@M@3@@Z 0000000180160020 f   GuIncrementalAABBTree.obj
 0001:0015f080       ?splitLeafNode@IncrementalAABBTree@Gu@physx@@AEAAPEAVIncrementalAABBTreeNode@23@PEAV423@IAEBT__m128@@1PEBVPxBounds3@3@@Z 0000000180160080 f   GuIncrementalAABBTree.obj
 0001:0015f370       ?update@IncrementalAABBTree@Gu@physx@@QEAAPEAVIncrementalAABBTreeNode@23@PEAV423@IPEBVPxBounds3@3@AEAV?$PxArray@PEAVIncrementalAABBTreeNode@Gu@physx@@V?$PxReflectionAllocator@PEAVIncrementalAABBTreeNode@Gu@physx@@@3@@3@@Z 0000000180160370 f   GuIncrementalAABBTree.obj
 0001:0015f430       ?updateFast@IncrementalAABBTree@Gu@physx@@QEAAPEAVIncrementalAABBTreeNode@23@PEAV423@IPEBVPxBounds3@3@AEAV?$PxArray@PEAVIncrementalAABBTreeNode@Gu@physx@@V?$PxReflectionAllocator@PEAVIncrementalAABBTreeNode@Gu@physx@@@3@@3@@Z 0000000180160430 f   GuIncrementalAABBTree.obj
 0001:0015f650       ??0SAH_Buffers@Gu@physx@@QEAA@I@Z 0000000180160650 f   GuSAH.obj
 0001:0015f760       ??1SAH_Buffers@Gu@physx@@QEAA@XZ 0000000180160760 f   GuSAH.obj
 0001:0015f820       ?split@SAH_Buffers@Gu@physx@@QEAA_NAEAIIPEIBIPEIBVPxBounds3@3@PEIBV?$PxVec3T@M@3@@Z 0000000180160820 f   GuSAH.obj
 0001:0015fef0       ??0BVH@Gu@physx@@QEAA@AEBUPxBVHInternalData@2@@Z 0000000180160ef0 f   GuBVH.obj
 0001:0015ffb0       ??0BVH@Gu@physx@@QEAA@PEAVMeshFactory@12@@Z 0000000180160fb0 f   GuBVH.obj
 0001:00160020       ??0BVH@Gu@physx@@QEAA@PEAVMeshFactory@12@AEAVBVHData@12@@Z 0000000180161020 f   GuBVH.obj
 0001:001600d0       ??1BVHData@Gu@physx@@QEAA@XZ 00000001801610d0 f i GuBVH.obj
 0001:00165acc       ??_EBVH@Gu@physx@@WBA@EAAPEAXI@Z 0000000180166acc f i GuBVH.obj
 0001:00165ae0       ??_EBVH@Gu@physx@@UEAAPEAXI@Z 0000000180166ae0 f i GuBVH.obj
 0001:00165ae0       ??_GBVH@Gu@physx@@UEAAPEAXI@Z 0000000180166ae0 f i GuBVH.obj
 0001:00165b70       ??_ERefCountable@Cm@physx@@UEAAPEAXI@Z 0000000180166b70 f i GuBVH.obj
 0001:00165b70       ??_GRefCountable@Cm@physx@@UEAAPEAXI@Z 0000000180166b70 f i GuBVH.obj
 0001:00165da0       ?allocate@?$PxArray@PEBUBVHNode@Gu@physx@@V?$PxInlineAllocator@$0IAA@V?$PxReflectionAllocator@PEBUBVHNode@Gu@physx@@@physx@@@3@@physx@@IEAAPEAPEBUBVHNode@Gu@2@I@Z 0000000180166da0 f i GuBVH.obj
 0001:00165e70       ?build@BVHData@Gu@physx@@QEAA_NIPEBXIMIW4BVHBuildStrategy@23@@Z 0000000180166e70 f   GuBVH.obj
 0001:00166260       ?cull@BVH@Gu@physx@@UEBA_NIPEBVPxPlane@3@AEAUOverlapCallback@PxBVH@3@V?$PxFlags@W4Enum@PxGeometryQueryFlag@physx@@I@3@@Z 0000000180167260 f   GuBVH.obj
 0001:00166ba0       ?getConcreteTypeName@PxBVH@physx@@UEBAPEBDXZ 0000000180167ba0 f i GuBVH.obj
 0001:00166bb0       ?init@BVH@Gu@physx@@QEAA_NIPEAVAABBTreeBounds@23@PEBXIW4BVHBuildStrategy@23@IM@Z 0000000180167bb0 f   GuBVH.obj
 0001:00166fb0       ?isKindOf@PxBVH@physx@@MEBA_NPEBD@Z 0000000180167fb0 f i GuBVH.obj
 0001:00167000       ?load@BVH@Gu@physx@@QEAA_NAEAVPxInputStream@3@@Z 0000000180168000 f   GuBVH.obj
 0001:00167190       ?onRefCountZero@BVH@Gu@physx@@UEAAXXZ 0000000180168190 f   GuBVH.obj
 0001:00167270       ?onRefCountZero@RefCountable@Cm@physx@@UEAAXXZ 0000000180168270 f i GuBVH.obj
 0001:00167290       ?overlap@BVH@Gu@physx@@QEBA_NAEBVShapeData@23@AEAUOverlapCallback@PxBVH@3@V?$PxFlags@W4Enum@PxGeometryQueryFlag@physx@@I@3@@Z 0000000180168290 f   GuBVH.obj
 0001:00167ac0       ?overlap@BVH@Gu@physx@@UEBAIAEBVPxBounds3@3@IPEIAI@Z 0000000180168ac0 f   GuBVH.obj
 0001:00167be0       ?overlap@BVH@Gu@physx@@UEBA_NAEBVPxGeometry@3@AEBV?$PxTransformT@M@3@AEAUOverlapCallback@PxBVH@3@V?$PxFlags@W4Enum@PxGeometryQueryFlag@physx@@I@3@@Z 0000000180168be0 f   GuBVH.obj
 0001:00167c40       ?partialRefit@BVH@Gu@physx@@UEAAXXZ 0000000180168c40 f   GuBVH.obj
 0001:00167c50       ?raycast@BVH@Gu@physx@@UEBAIAEBV?$PxVec3T@M@3@0MIPEIAI@Z 0000000180168c50 f   GuBVH.obj
 0001:00167cf0       ?raycast@BVH@Gu@physx@@UEBA_NAEBV?$PxVec3T@M@3@0MAEAURaycastCallback@PxBVH@3@V?$PxFlags@W4Enum@PxGeometryQueryFlag@physx@@I@3@@Z 0000000180168cf0 f   GuBVH.obj
 0001:00167e20       ?recreate@?$PxArray@PEBUBVHNode@Gu@physx@@V?$PxInlineAllocator@$0IAA@V?$PxReflectionAllocator@PEBUBVHNode@Gu@physx@@@physx@@@3@@physx@@IEAAXI@Z 0000000180168e20 f i GuBVH.obj
 0001:00167ed0       ?refit@BVH@Gu@physx@@UEAAXXZ 0000000180168ed0 f   GuBVH.obj
 0001:00167ee0       ?release@BVH@Gu@physx@@UEAAXXZ 0000000180168ee0 f   GuBVH.obj
 0001:00167f10       ?resizeUninitialized@?$PxArray@PEBUBVHNode@Gu@physx@@V?$PxInlineAllocator@$0IAA@V?$PxReflectionAllocator@PEBUBVHNode@Gu@physx@@@physx@@@3@@physx@@QEAAXI@Z 0000000180168f10 f i GuBVH.obj
 0001:00167f60       ?save@BVHData@Gu@physx@@QEBA_NAEAVPxOutputStream@3@_N@Z 0000000180168f60 f   GuBVH.obj
 0001:001680d0       ?sweep@BVH@Gu@physx@@QEBA_NAEBVShapeData@23@AEBV?$PxVec3T@M@3@MAEAURaycastCallback@PxBVH@3@V?$PxFlags@W4Enum@PxGeometryQueryFlag@physx@@I@3@@Z 00000001801690d0 f   GuBVH.obj
 0001:001682c0       ?sweep@BVH@Gu@physx@@UEBAIAEBVPxBounds3@3@AEBV?$PxVec3T@M@3@MIPEIAI@Z 00000001801692c0 f   GuBVH.obj
 0001:00168430       ?sweep@BVH@Gu@physx@@UEBA_NAEBVPxGeometry@3@AEBV?$PxTransformT@M@3@AEBV?$PxVec3T@M@3@MAEAURaycastCallback@PxBVH@3@V?$PxFlags@W4Enum@PxGeometryQueryFlag@physx@@I@3@@Z 0000000180169430 f   GuBVH.obj
 0001:001684b0       ?traverse@BVH@Gu@physx@@UEBA_NAEAUTraversalCallback@PxBVH@3@@Z 00000001801694b0 f   GuBVH.obj
 0001:00168640       ?updateBounds@BVH@Gu@physx@@UEAA_NIAEBVPxBounds3@3@@Z 0000000180169640 f   GuBVH.obj
 0001:001686f0       ?updateBoundsInternal@BVH@Gu@physx@@QEAA_NIAEBVPxBounds3@3@@Z 00000001801696f0 f   GuBVH.obj
 0001:001687a0       PxFindOverlap              00000001801697a0 f   GuBVH.obj
 0001:00168890       PxGetBVHInternalData       0000000180169890 f   GuBVH.obj
 0001:001688d0       ??0IncrementalAABBPrunerCore@Gu@physx@@QEAA@PEBVPruningPool@12@@Z 00000001801698d0 f   GuIncrementalAABBPrunerCore.obj
 0001:001689e0       ??1IncrementalAABBPrunerCore@Gu@physx@@QEAA@XZ 00000001801699e0 f   GuIncrementalAABBPrunerCore.obj
 0001:00168b50       ??R?$AABBTreeOverlap@$00U?$OBBAABBTests@$00@Gu@physx@@VIncrementalAABBTree@23@VIncrementalAABBTreeNode@23@UOverlapCallbackAdapter@23@@Gu@physx@@QEAA_NAEBVAABBTreeBounds@12@AEBVIncrementalAABBTree@12@AEBU?$OBBAABBTests@$00@12@AEAUOverlapCallbackAdapter@12@@Z 0000000180169b50 f i GuIncrementalAABBPrunerCore.obj
 0001:00169110       ??R?$AABBTreeOverlap@$00UAABBAABBTest@Gu@physx@@VIncrementalAABBTree@23@VIncrementalAABBTreeNode@23@UOverlapCallbackAdapter@23@@Gu@physx@@QEAA_NAEBVAABBTreeBounds@12@AEBVIncrementalAABBTree@12@AEBUAABBAABBTest@12@AEAUOverlapCallbackAdapter@12@@Z 000000018016a110 f i GuIncrementalAABBPrunerCore.obj
 0001:001693a0       ??R?$AABBTreeOverlap@$00UCapsuleAABBTest@Gu@physx@@VIncrementalAABBTree@23@VIncrementalAABBTreeNode@23@UOverlapCallbackAdapter@23@@Gu@physx@@QEAA_NAEBVAABBTreeBounds@12@AEBVIncrementalAABBTree@12@AEBUCapsuleAABBTest@12@AEAUOverlapCallbackAdapter@12@@Z 000000018016a3a0 f i GuIncrementalAABBPrunerCore.obj
 0001:001697e0       ??R?$AABBTreeRaycast@$00$00VIncrementalAABBTree@Gu@physx@@VIncrementalAABBTreeNode@23@URaycastCallbackAdapter@23@@Gu@physx@@QEAA_NAEBVAABBTreeBounds@12@AEBVIncrementalAABBTree@12@AEBV?$PxVec3T@M@2@2AEAM2AEAURaycastCallbackAdapter@12@@Z 000000018016a7e0 f i GuIncrementalAABBPrunerCore.obj
 0001:00169ec0       ??R?$AABBTreeRaycast@$0A@$00VIncrementalAABBTree@Gu@physx@@VIncrementalAABBTreeNode@23@URaycastCallbackAdapter@23@@Gu@physx@@QEAA_NAEBVAABBTreeBounds@12@AEBVIncrementalAABBTree@12@AEBV?$PxVec3T@M@2@2AEAM2AEAURaycastCallbackAdapter@12@@Z 000000018016aec0 f i GuIncrementalAABBPrunerCore.obj
 0001:0016a530       ?addObject@IncrementalAABBPrunerCore@Gu@physx@@QEAA_NII@Z 000000018016b530 f   GuIncrementalAABBPrunerCore.obj
 0001:0016a640       ?allocate@?$PxArray@PEBVIncrementalAABBTreeNode@Gu@physx@@V?$PxInlineAllocator@$0IAA@V?$PxReflectionAllocator@PEBVIncrementalAABBTreeNode@Gu@physx@@@physx@@@3@@physx@@IEAAPEAPEBVIncrementalAABBTreeNode@Gu@2@I@Z 000000018016b640 f i GuIncrementalAABBPrunerCore.obj
 0001:0016a710       ?clear@?$PxHashMapBase@IPEAVIncrementalAABBTreeNode@Gu@physx@@U?$PxHash@I@3@VPxAllocator@3@@physx@@QEAAXXZ 000000018016b710 f i GuIncrementalAABBPrunerCore.obj
 0001:0016a710       ?clear@?$PxHashMapBase@UPrunerPayload@Gu@physx@@UExtendedBucketPrunerData@23@UExtendedBucketPrunerHash@23@VPxAllocator@3@@physx@@QEAAXXZ 000000018016b710 f i GuExtendedBucketPruner.obj
 0001:0016a7a0       ?create@?$PxHashBase@V?$PxPair@$$CBIPEAVIncrementalAABBTreeNode@Gu@physx@@@physx@@IU?$PxHash@I@2@UGetKey@?$PxHashMapBase@IPEAVIncrementalAABBTreeNode@Gu@physx@@U?$PxHash@I@3@VPxAllocator@3@@2@VPxAllocator@2@$00@physx@@QEAAPEAV?$PxPair@$$CBIPEAVIncrementalAABBTreeNode@Gu@physx@@@2@AEBIAEA_N@Z 000000018016b7a0 f i GuIncrementalAABBPrunerCore.obj
 0001:0016a8f0       ?erase@?$PxHashBase@V?$PxPair@$$CBIPEAVIncrementalAABBTreeNode@Gu@physx@@@physx@@IU?$PxHash@I@2@UGetKey@?$PxHashMapBase@IPEAVIncrementalAABBTreeNode@Gu@physx@@U?$PxHash@I@3@VPxAllocator@3@@2@VPxAllocator@2@$00@physx@@QEAA_NAEBIAEAV?$PxPair@$$CBIPEAVIncrementalAABBTreeNode@Gu@physx@@@2@@Z 000000018016b8f0 f i GuIncrementalAABBPrunerCore.obj
 0001:0016aa60       ?getCurrentWorldBoxes@PruningPool@Gu@physx@@QEAAPEAVPxBounds3@3@XZ 000000018016ba60 f i GuIncrementalAABBPrunerCore.obj
 0001:0016aa60       ?getCurrentWorldBoxes@PruningPool@Gu@physx@@QEBAPEBVPxBounds3@3@XZ 000000018016ba60 f i GuIncrementalAABBPrunerCore.obj
 0001:0016aa60       ?getMesh@CollisionTetrahedronMeshData@Gu@physx@@UEAAPEAVPxTetrahedronMeshData@3@XZ 000000018016ba60 f i GuCookingTetrahedronMesh.obj
 0001:0016aa60       ?getMesh@CollisionTetrahedronMeshData@Gu@physx@@UEBAPEBVPxTetrahedronMeshData@3@XZ 000000018016ba60 f i GuCookingTetrahedronMesh.obj
 0001:0016aa60       ?getMesh@SimulationTetrahedronMeshData@Gu@physx@@UEAAPEAVPxTetrahedronMeshData@3@XZ 000000018016ba60 f i GuCookingTetrahedronMesh.obj
 0001:0016aa70       ?getGlobalBounds@IncrementalAABBPrunerCore@Gu@physx@@QEBAXAEAVPxBounds3@3@@Z 000000018016ba70 f   GuIncrementalAABBPrunerCore.obj
 0001:0016aba0       ?getIndex@PruningPool@Gu@physx@@QEBAII@Z 000000018016bba0 f i GuIncrementalAABBPrunerCore.obj
 0001:0016abb0       ?getPayloadData@PruningPool@Gu@physx@@QEBAAEBUPrunerPayload@23@IPEAUPrunerPayloadData@23@@Z 000000018016bbb0 f i GuIncrementalAABBPrunerCore.obj
 0001:0016ac00       ?overlap@IncrementalAABBPrunerCore@Gu@physx@@QEBA_NAEBVShapeData@23@AEAUPrunerOverlapCallback@23@@Z 000000018016bc00 f   GuIncrementalAABBPrunerCore.obj
 0001:0016b700       ?raycast@IncrementalAABBPrunerCore@Gu@physx@@QEBA_NAEBV?$PxVec3T@M@3@0AEAMAEAUPrunerRaycastCallback@23@@Z 000000018016c700 f   GuIncrementalAABBPrunerCore.obj
 0001:0016b7e0       ?recreate@?$PxArray@PEAVIncrementalAABBTreeNode@Gu@physx@@V?$PxReflectionAllocator@PEAVIncrementalAABBTreeNode@Gu@physx@@@3@@physx@@IEAAXI@Z 000000018016c7e0 f i GuIncrementalAABBPrunerCore.obj
 0001:0016b910       ?recreate@?$PxArray@PEBVIncrementalAABBTreeNode@Gu@physx@@V?$PxInlineAllocator@$0IAA@V?$PxReflectionAllocator@PEBVIncrementalAABBTreeNode@Gu@physx@@@physx@@@3@@physx@@IEAAXI@Z 000000018016c910 f i GuIncrementalAABBPrunerCore.obj
 0001:0016b9c0       ?release@IncrementalAABBPrunerCore@Gu@physx@@QEAAXXZ 000000018016c9c0 f   GuIncrementalAABBPrunerCore.obj
 0001:0016bac0       ?removeMarkedObjects@IncrementalAABBPrunerCore@Gu@physx@@QEAAII@Z 000000018016cac0 f   GuIncrementalAABBPrunerCore.obj
 0001:0016bb20       ?removeObject@IncrementalAABBPrunerCore@Gu@physx@@QEAA_NIIAEAI@Z 000000018016cb20 f   GuIncrementalAABBPrunerCore.obj
 0001:0016bd30       ?reserveInternal@?$PxHashBase@V?$PxPair@$$CBIPEAVIncrementalAABBTreeNode@Gu@physx@@@physx@@IU?$PxHash@I@2@UGetKey@?$PxHashMapBase@IPEAVIncrementalAABBTreeNode@Gu@physx@@U?$PxHash@I@3@VPxAllocator@3@@2@VPxAllocator@2@$00@physx@@AEAAXI@Z 000000018016cd30 f i GuIncrementalAABBPrunerCore.obj
 0001:0016bef0       ?resizeUninitialized@?$PxArray@PEBVIncrementalAABBTreeNode@Gu@physx@@V?$PxInlineAllocator@$0IAA@V?$PxReflectionAllocator@PEBVIncrementalAABBTreeNode@Gu@physx@@@physx@@@3@@physx@@QEAAXI@Z 000000018016cef0 f i GuIncrementalAABBPrunerCore.obj
 0001:0016bf40       ?setTransform@PruningPool@Gu@physx@@QEAA_NIAEBV?$PxTransformT@M@3@@Z 000000018016cf40 f i GuIncrementalAABBPrunerCore.obj
 0001:0016bfa0       ?shiftOrigin@IncrementalAABBPrunerCore@Gu@physx@@QEAAXAEBV?$PxVec3T@M@3@@Z 000000018016cfa0 f   GuIncrementalAABBPrunerCore.obj
 0001:0016bff0       ?swapIndex@IncrementalAABBPrunerCore@Gu@physx@@QEAAXII@Z 000000018016cff0 f   GuIncrementalAABBPrunerCore.obj
 0001:0016c0d0       ?sweep@IncrementalAABBPrunerCore@Gu@physx@@QEBA_NAEBVShapeData@23@AEBV?$PxVec3T@M@3@AEAMAEAUPrunerRaycastCallback@23@@Z 000000018016d0d0 f   GuIncrementalAABBPrunerCore.obj
 0001:0016c260       ?updateMapping@IncrementalAABBPrunerCore@Gu@physx@@AEAAXAEAV?$PxHashMap@IPEAVIncrementalAABBTreeNode@Gu@physx@@U?$PxHash@I@3@VPxAllocator@3@@3@IPEAVIncrementalAABBTreeNode@23@@Z 000000018016d260 f   GuIncrementalAABBPrunerCore.obj
 0001:0016c3b0       ?updateObject@IncrementalAABBPrunerCore@Gu@physx@@QEAA_NI@Z 000000018016d3b0 f   GuIncrementalAABBPrunerCore.obj
 0001:0016c550       ?visualize@IncrementalAABBPrunerCore@Gu@physx@@QEBAXAEAVPxRenderOutput@3@I@Z 000000018016d550 f   GuIncrementalAABBPrunerCore.obj
 0001:0016c5b0       ??0IncrementalAABBPruner@Gu@physx@@QEAA@I_K@Z 000000018016d5b0 f   GuIncrementalAABBPruner.obj
 0001:0016c660       ??R?$AABBTreeOverlap@$00USphereAABBTest@Gu@physx@@VIncrementalAABBTree@23@VIncrementalAABBTreeNode@23@UOverlapCallbackAdapter@23@@Gu@physx@@QEAA_NAEBVAABBTreeBounds@12@AEBVIncrementalAABBTree@12@AEBUSphereAABBTest@12@AEAUOverlapCallbackAdapter@12@@Z 000000018016d660 f i GuIncrementalAABBPruner.obj
 0001:0016c950       ??_EBasePruner@Gu@physx@@UEAAPEAXI@Z 000000018016d950 f i GuIncrementalAABBPruner.obj
 0001:0016c950       ??_GBasePruner@Gu@physx@@UEAAPEAXI@Z 000000018016d950 f i GuIncrementalAABBPruner.obj
 0001:0016c9a0       ??_EIncrementalAABBPruner@Gu@physx@@UEAAPEAXI@Z 000000018016d9a0 f i GuIncrementalAABBPruner.obj
 0001:0016c9a0       ??_GIncrementalAABBPruner@Gu@physx@@UEAAPEAXI@Z 000000018016d9a0 f i GuIncrementalAABBPruner.obj
 0001:0016cab0       ?addObjects@IncrementalAABBPruner@Gu@physx@@UEAA_NPEAIPEBVPxBounds3@3@PEBUPrunerPayload@23@PEBV?$PxTransformT@M@3@I_N@Z 000000018016dab0 f   GuIncrementalAABBPruner.obj
 0001:0016cc30       ?commit@IncrementalAABBPruner@Gu@physx@@UEAAXXZ 000000018016dc30 f   GuIncrementalAABBPruner.obj
 0001:0016ce00       ?getGlobalBounds@IncrementalAABBPruner@Gu@physx@@UEBAXAEAVPxBounds3@3@@Z 000000018016de00 f   GuIncrementalAABBPruner.obj
 0001:0016ce70       ?getPayloadData@IncrementalAABBPruner@Gu@physx@@UEBAAEBUPrunerPayload@23@IPEAUPrunerPayloadData@23@@Z 000000018016de70 f i GuIncrementalAABBPruner.obj
 0001:0016cec0       ?overlap@IncrementalAABBPruner@Gu@physx@@UEBA_NAEBVShapeData@23@AEAUPrunerOverlapCallback@23@@Z 000000018016dec0 f   GuIncrementalAABBPruner.obj
 0001:0016d5d0       ?preallocate@IncrementalAABBPruner@Gu@physx@@UEAAXI@Z 000000018016e5d0 f i GuIncrementalAABBPruner.obj
 0001:0016d5e0       ?purge@IncrementalAABBPruner@Gu@physx@@UEAAXXZ 000000018016e5e0 f   GuIncrementalAABBPruner.obj
 0001:0016d630       ?raycast@IncrementalAABBPruner@Gu@physx@@UEBA_NAEBV?$PxVec3T@M@3@0AEAMAEAUPrunerRaycastCallback@23@@Z 000000018016e630 f   GuIncrementalAABBPruner.obj
 0001:0016d6b0       ?removeObjects@IncrementalAABBPruner@Gu@physx@@UEAAXPEBIIPEAUPrunerPayloadRemovalCallback@23@@Z 000000018016e6b0 f   GuIncrementalAABBPruner.obj
 0001:0016d8b0       ?resize@?$PxArray@PEAVIncrementalAABBTreeNode@Gu@physx@@V?$PxReflectionAllocator@PEAVIncrementalAABBTreeNode@Gu@physx@@@3@@physx@@QEAAXIAEBQEAVIncrementalAABBTreeNode@Gu@2@@Z 000000018016e8b0 f i GuIncrementalAABBPruner.obj
 0001:0016d970       ?resizeUninitialized@?$PxArray@PEAVIncrementalAABBTreeNode@Gu@physx@@V?$PxReflectionAllocator@PEAVIncrementalAABBTreeNode@Gu@physx@@@3@@physx@@QEAAXI@Z 000000018016e970 f i GuIncrementalAABBPruner.obj
 0001:0016d9b0       ?setTransform@IncrementalAABBPruner@Gu@physx@@UEAA_NIAEBV?$PxTransformT@M@3@@Z 000000018016e9b0 f i GuIncrementalAABBPruner.obj
 0001:0016da10       ?shiftOrigin@IncrementalAABBPruner@Gu@physx@@UEAAXAEBV?$PxVec3T@M@3@@Z 000000018016ea10 f   GuIncrementalAABBPruner.obj
 0001:0016da50       ?sweep@IncrementalAABBPruner@Gu@physx@@UEBA_NAEBVShapeData@23@AEBV?$PxVec3T@M@3@AEAMAEAUPrunerRaycastCallback@23@@Z 000000018016ea50 f   GuIncrementalAABBPruner.obj
 0001:0016db70       ?updateMapping@IncrementalAABBPruner@Gu@physx@@AEAAXIPEAVIncrementalAABBTreeNode@23@@Z 000000018016eb70 f   GuIncrementalAABBPruner.obj
 0001:0016dc60       ?updateObjects@IncrementalAABBPruner@Gu@physx@@UEAAXPEBIIM0PEBVPxBounds3@3@PEBUPxTransformPadded@3@@Z 000000018016ec60 f   GuIncrementalAABBPruner.obj
 0001:0016de20       ?visualize@IncrementalAABBPruner@Gu@physx@@UEBAXAEAVPxRenderOutput@3@II@Z 000000018016ee20 f   GuIncrementalAABBPruner.obj
 0001:0016e010       ??0PruningPool@Gu@physx@@QEAA@_KW4TransformCacheMode@12@@Z 000000018016f010 f   GuPruningPool.obj
 0001:0016e040       ??1PruningPool@Gu@physx@@QEAA@XZ 000000018016f040 f   GuPruningPool.obj
 0001:0016e100       ?addObjects@PruningPool@Gu@physx@@QEAAIPEAIPEBVPxBounds3@3@PEBUPrunerPayload@23@PEBV?$PxTransformT@M@3@I@Z 000000018016f100 f   GuPruningPool.obj
 0001:0016e380       ?preallocate@PruningPool@Gu@physx@@QEAAXI@Z 000000018016f380 f   GuPruningPool.obj
 0001:0016e390       ?removeObject@PruningPool@Gu@physx@@QEAAIIPEAUPrunerPayloadRemovalCallback@23@@Z 000000018016f390 f   GuPruningPool.obj
 0001:0016e560       ?resize@PruningPool@Gu@physx@@QEAA_NI@Z 000000018016f560 f   GuPruningPool.obj
 0001:0016e8f0       ?shiftOrigin@PruningPool@Gu@physx@@QEAAXAEBV?$PxVec3T@M@3@@Z 000000018016f8f0 f   GuPruningPool.obj
 0001:0016ed40       ?updateAndInflateBounds@PruningPool@Gu@physx@@QEAAXPEBI0PEBVPxBounds3@3@PEBUPxTransformPadded@3@IM@Z 000000018016fd40 f   GuPruningPool.obj
 0001:00170850       ??0BucketPruner@Gu@physx@@QEAA@_K@Z 0000000180171850 f   GuBucketPruner.obj
 0001:001708a0       ??0BucketPrunerCore@Gu@physx@@QEAA@_N@Z 00000001801718a0 f   GuBucketPruner.obj
 0001:00170c20       ??1BucketPrunerCore@Gu@physx@@QEAA@XZ 0000000180171c20 f   GuBucketPruner.obj
 0001:00170d60       ??R?$BucketPrunerOverlapTraversal@UBucketPrunerAABBAABBTest@@$00@@QEBA_NAEBVBucketPrunerCore@Gu@physx@@AEBUBucketPrunerAABBAABBTest@@AEAUPrunerOverlapCallback@23@AEBVPxBounds3@3@@Z 0000000180171d60 f i GuBucketPruner.obj
 0001:00171320       ??R?$BucketPrunerOverlapTraversal@UOBBAABBTest_SIMD@@$0A@@@QEBA_NAEBVBucketPrunerCore@Gu@physx@@AEBUOBBAABBTest_SIMD@@AEAUPrunerOverlapCallback@23@AEBVPxBounds3@3@@Z 0000000180172320 f i GuBucketPruner.obj
 0001:00171ba0       ??R?$BucketPrunerOverlapTraversal@USphereAABBTest_SIMD@@$00@@QEBA_NAEBVBucketPrunerCore@Gu@physx@@AEBUSphereAABBTest_SIMD@@AEAUPrunerOverlapCallback@23@AEBVPxBounds3@3@@Z 0000000180172ba0 f i GuBucketPruner.obj
 0001:00172180       ??_FBucketPrunerCore@Gu@physx@@QEAAXXZ 0000000180173180 f i GuBucketPruner.obj
 0001:00172190       ??_EBucketPruner@Gu@physx@@UEAAPEAXI@Z 0000000180173190 f i GuBucketPruner.obj
 0001:00172190       ??_GBucketPruner@Gu@physx@@UEAAPEAXI@Z 0000000180173190 f i GuBucketPruner.obj
 0001:00172210       ?addObject@BucketPrunerCore@Gu@physx@@QEAA_NAEBUPrunerPayload@23@AEBVPxBounds3@3@AEBV?$PxTransformT@M@3@I@Z 0000000180173210 f   GuBucketPruner.obj
 0001:00172530       ?addObjects@BucketPruner@Gu@physx@@UEAA_NPEAIPEBVPxBounds3@3@PEBUPrunerPayload@23@PEBV?$PxTransformT@M@3@I_N@Z 0000000180173530 f   GuBucketPruner.obj
 0001:001725c0       ?addPair@BucketPrunerMap@Gu@physx@@QEAAPEAUBucketPrunerPair@23@AEBUPrunerPayload@23@II@Z 00000001801735c0 f   GuBucketPruner.obj
 0001:001727c0       ?allocateSortedMemory@BucketPrunerCore@Gu@physx@@AEAAXI@Z 00000001801737c0 f   GuBucketPruner.obj
 0001:00172970       ?classifyBoxes@BucketPrunerCore@Gu@physx@@AEAAXXZ 0000000180173970 f   GuBucketPruner.obj
 0001:00173150       ?classifyBoxes@BucketPrunerNode@Gu@physx@@QEAAXMMIPEIAUBucketBox@23@PEIBUPrunerPayload@23@PEIBV?$PxTransformT@M@3@0PEIAU523@PEIAV63@_NI@Z 0000000180174150 f   GuBucketPruner.obj
 0001:001739d0       ?build@CompanionPrunerBucket@@UEAAXXZ 00000001801749d0 f   GuSecondaryPruner.obj
 0001:001739d0       ?commit@BucketPruner@Gu@physx@@UEAAXXZ 00000001801749d0 f   GuBucketPruner.obj
 0001:001739e0       ?findPair@BucketPrunerMap@Gu@physx@@QEBAPEBUBucketPrunerPair@23@AEBUPrunerPayload@23@@Z 00000001801749e0 f   GuBucketPruner.obj
 0001:00173dd0       ?getGlobalBounds@BucketPruner@Gu@physx@@UEBAXAEAVPxBounds3@3@@Z 0000000180174dd0 f   GuBucketPruner.obj
 0001:00173e50       ?getGlobalBounds@BucketPrunerCore@Gu@physx@@QEBAXAEAVPxBounds3@3@@Z 0000000180174e50 f   GuBucketPruner.obj
 0001:00173ed0       ?getPayloadData@BucketPruner@Gu@physx@@UEBAAEBUPrunerPayload@23@IPEAUPrunerPayloadData@23@@Z 0000000180174ed0 f i GuBucketPruner.obj
 0001:00173f30       ?overlap@BucketPruner@Gu@physx@@UEBA_NAEBVShapeData@23@AEAUPrunerOverlapCallback@23@@Z 0000000180174f30 f   GuBucketPruner.obj
 0001:00173f50       ?overlap@BucketPrunerCore@Gu@physx@@QEBA_NAEBVShapeData@23@AEAUPrunerOverlapCallback@23@@Z 0000000180174f50 f   GuBucketPruner.obj
 0001:00174230       ?preallocate@BucketPruner@Gu@physx@@UEAAXI@Z 0000000180175230 f i GuBucketPruner.obj
 0001:00174410       ?purge@BucketPrunerMap@Gu@physx@@QEAAXXZ 0000000180175410 f   GuBucketPruner.obj
 0001:001744a0       ?raycast@BucketPruner@Gu@physx@@UEBA_NAEBV?$PxVec3T@M@3@0AEAMAEAUPrunerRaycastCallback@23@@Z 00000001801754a0 f   GuBucketPruner.obj
 0001:001744f0       ?raycast@BucketPrunerCore@Gu@physx@@QEBA_NAEBV?$PxVec3T@M@3@0AEAMAEAUPrunerRaycastCallback@23@@Z 00000001801754f0 f   GuBucketPruner.obj
 0001:00174530       ?reallocPairs@BucketPrunerMap@Gu@physx@@QEAAXXZ 0000000180175530 f   GuBucketPruner.obj
 0001:00174760       ?release@BucketPrunerCore@Gu@physx@@QEAAXXZ 0000000180175760 f   GuBucketPruner.obj
 0001:00174890       ?removeMarkedObjects@BucketPrunerCore@Gu@physx@@QEAAII@Z 0000000180175890 f   GuBucketPruner.obj
 0001:00174c60       ?removeObject@BucketPrunerCore@Gu@physx@@QEAA_NAEBUPrunerPayload@23@AEAI@Z 0000000180175c60 f   GuBucketPruner.obj
 0001:00174f20       ?removeObjects@BucketPruner@Gu@physx@@UEAAXPEBIIPEAUPrunerPayloadRemovalCallback@23@@Z 0000000180175f20 f   GuBucketPruner.obj
 0001:00174fd0       ?removePair@BucketPrunerMap@Gu@physx@@QEAA_NAEBUPrunerPayload@23@AEAI1@Z 0000000180175fd0 f   GuBucketPruner.obj
 0001:00175150       ?removePairInternal@BucketPrunerMap@Gu@physx@@QEAAXAEBUPrunerPayload@23@II@Z 0000000180176150 f   GuBucketPruner.obj
 0001:001752e0       ?resizeCore@BucketPrunerCore@Gu@physx@@AEAAXXZ 00000001801762e0 f   GuBucketPruner.obj
 0001:00175520       ?setTransform@BucketPruner@Gu@physx@@UEAA_NIAEBV?$PxTransformT@M@3@@Z 0000000180176520 f i GuBucketPruner.obj
 0001:00175580       ?shiftOrigin@BucketPruner@Gu@physx@@UEAAXAEBV?$PxVec3T@M@3@@Z 0000000180176580 f   GuBucketPruner.obj
 0001:00175580       ?shiftOrigin@CompanionPrunerBucket@@UEAAXAEBV?$PxVec3T@M@physx@@@Z 0000000180176580 f   GuSecondaryPruner.obj
 0001:00175590       ?shiftOrigin@BucketPrunerCore@Gu@physx@@QEAAXAEBV?$PxVec3T@M@3@@Z 0000000180176590 f   GuBucketPruner.obj
 0001:001763c0       ?sweep@BucketPruner@Gu@physx@@UEBA_NAEBVShapeData@23@AEBV?$PxVec3T@M@3@AEAMAEAUPrunerRaycastCallback@23@@Z 00000001801773c0 f   GuBucketPruner.obj
 0001:001763e0       ?sweep@BucketPrunerCore@Gu@physx@@QEBA_NAEBVShapeData@23@AEBV?$PxVec3T@M@3@AEAMAEAUPrunerRaycastCallback@23@@Z 00000001801773e0 f   GuBucketPruner.obj
 0001:001764b0       ?updateObject@BucketPrunerCore@Gu@physx@@QEAA_NAEBVPxBounds3@3@AEBUPrunerPayload@23@AEBV?$PxTransformT@M@3@@Z 00000001801774b0 f   GuBucketPruner.obj
 0001:00176510       ?updateObjects@BucketPruner@Gu@physx@@UEAAXPEBIIM0PEBVPxBounds3@3@PEBUPxTransformPadded@3@@Z 0000000180177510 f   GuBucketPruner.obj
 0001:00176620       ?visualize@BucketPruner@Gu@physx@@UEBAXAEAVPxRenderOutput@3@II@Z 0000000180177620 f   GuBucketPruner.obj
 0001:00176620       ?visualize@CompanionPrunerBucket@@UEBAXAEAVPxRenderOutput@physx@@I@Z 0000000180177620 f   GuSecondaryPruner.obj
 0001:00176630       ?visualize@BucketPrunerCore@Gu@physx@@QEBAXAEAVPxRenderOutput@3@I@Z 0000000180177630 f   GuBucketPruner.obj
 0001:00176920       ?addObject@MaverickNode@Gu@physx@@QEAA_NAEBUPrunerPayload@23@IAEBVPxBounds3@3@AEBV?$PxTransformT@M@3@I@Z 0000000180177920 f   GuMaverickNode.obj
 0001:00176a00       ?removeMarkedObjects@MaverickNode@Gu@physx@@QEAAII@Z 0000000180177a00 f   GuMaverickNode.obj
 0001:00176b90       ?removeObject@MaverickNode@Gu@physx@@QEAA_NIAEAI@Z 0000000180177b90 f   GuMaverickNode.obj
 0001:00176d20       ?shiftOrigin@MaverickNode@Gu@physx@@QEAAXAEBV?$PxVec3T@M@3@@Z 0000000180177d20 f   GuMaverickNode.obj
 0001:00176e10       ?updateObject@MaverickNode@Gu@physx@@QEAA_NIAEBVPxBounds3@3@AEBV?$PxTransformT@M@3@@Z 0000000180177e10 f   GuMaverickNode.obj
 0001:00176ef0       ??0ExtendedBucketPruner@Gu@physx@@QEAA@_KW4CompanionPrunerType@12@PEBVPruningPool@12@@Z 0000000180177ef0 f   GuExtendedBucketPruner.obj
 0001:00177140       ??1ExtendedBucketPruner@Gu@physx@@QEAA@XZ 0000000180178140 f   GuExtendedBucketPruner.obj
 0001:001772a0       ??R?$AABBTreeOverlap@$00U?$OBBAABBTests@$00@Gu@physx@@VAABBTree@23@UBVHNode@23@U?$MainTreeOverlapPrunerCallback@U?$OBBAABBTests@$00@Gu@physx@@@@@Gu@physx@@QEAA_NAEBVAABBTreeBounds@12@AEBVAABBTree@12@AEBU?$OBBAABBTests@$00@12@AEAU?$MainTreeOverlapPrunerCallback@U?$OBBAABBTests@$00@Gu@physx@@@@@Z 00000001801782a0 f i GuExtendedBucketPruner.obj
 0001:001778a0       ??R?$AABBTreeOverlap@$00U?$OBBAABBTests@$00@Gu@physx@@VAABBTree@23@UBVHNode@23@UOverlapCallbackAdapter@23@@Gu@physx@@QEAA_NAEBVAABBTreeBounds@12@AEBVAABBTree@12@AEBU?$OBBAABBTests@$00@12@AEAUOverlapCallbackAdapter@12@@Z 00000001801788a0 f i GuExtendedBucketPruner.obj
 0001:00177e70       ??R?$AABBTreeOverlap@$00UAABBAABBTest@Gu@physx@@VAABBTree@23@UBVHNode@23@U?$MainTreeOverlapPrunerCallback@UAABBAABBTest@Gu@physx@@@@@Gu@physx@@QEAA_NAEBVAABBTreeBounds@12@AEBVAABBTree@12@AEBUAABBAABBTest@12@AEAU?$MainTreeOverlapPrunerCallback@UAABBAABBTest@Gu@physx@@@@@Z 0000000180178e70 f i GuExtendedBucketPruner.obj
 0001:00178140       ??R?$AABBTreeOverlap@$00UAABBAABBTest@Gu@physx@@VAABBTree@23@UBVHNode@23@UOverlapCallbackAdapter@23@@Gu@physx@@QEAA_NAEBVAABBTreeBounds@12@AEBVAABBTree@12@AEBUAABBAABBTest@12@AEAUOverlapCallbackAdapter@12@@Z 0000000180179140 f i GuExtendedBucketPruner.obj
 0001:001783f0       ??R?$AABBTreeOverlap@$00UCapsuleAABBTest@Gu@physx@@VAABBTree@23@UBVHNode@23@U?$MainTreeOverlapPrunerCallback@UCapsuleAABBTest@Gu@physx@@@@@Gu@physx@@QEAA_NAEBVAABBTreeBounds@12@AEBVAABBTree@12@AEBUCapsuleAABBTest@12@AEAU?$MainTreeOverlapPrunerCallback@UCapsuleAABBTest@Gu@physx@@@@@Z 00000001801793f0 f i GuExtendedBucketPruner.obj
 0001:00178860       ??R?$AABBTreeOverlap@$00UCapsuleAABBTest@Gu@physx@@VAABBTree@23@UBVHNode@23@UOverlapCallbackAdapter@23@@Gu@physx@@QEAA_NAEBVAABBTreeBounds@12@AEBVAABBTree@12@AEBUCapsuleAABBTest@12@AEAUOverlapCallbackAdapter@12@@Z 0000000180179860 f i GuExtendedBucketPruner.obj
 0001:00178cc0       ??R?$AABBTreeOverlap@$00USphereAABBTest@Gu@physx@@VAABBTree@23@UBVHNode@23@U?$MainTreeOverlapPrunerCallback@USphereAABBTest@Gu@physx@@@@@Gu@physx@@QEAA_NAEBVAABBTreeBounds@12@AEBVAABBTree@12@AEBUSphereAABBTest@12@AEAU?$MainTreeOverlapPrunerCallback@USphereAABBTest@Gu@physx@@@@@Z 0000000180179cc0 f i GuExtendedBucketPruner.obj
 0001:00179000       ??R?$AABBTreeOverlap@$00USphereAABBTest@Gu@physx@@VAABBTree@23@UBVHNode@23@UOverlapCallbackAdapter@23@@Gu@physx@@QEAA_NAEBVAABBTreeBounds@12@AEBVAABBTree@12@AEBUSphereAABBTest@12@AEAUOverlapCallbackAdapter@12@@Z 000000018017a000 f i GuExtendedBucketPruner.obj
 0001:00179320       ??R?$AABBTreeRaycast@$00$00VAABBTree@Gu@physx@@UBVHNode@23@U?$MainTreeRaycastPrunerCallback@$00@@@Gu@physx@@QEAA_NAEBVAABBTreeBounds@12@AEBVAABBTree@12@AEBV?$PxVec3T@M@2@2AEAM2AEAU?$MainTreeRaycastPrunerCallback@$00@@@Z 000000018017a320 f i GuExtendedBucketPruner.obj
 0001:00179a60       ??R?$AABBTreeRaycast@$00$00VAABBTree@Gu@physx@@UBVHNode@23@URaycastCallbackAdapter@23@@Gu@physx@@QEAA_NAEBVAABBTreeBounds@12@AEBVAABBTree@12@AEBV?$PxVec3T@M@2@2AEAM2AEAURaycastCallbackAdapter@12@@Z 000000018017aa60 f i GuExtendedBucketPruner.obj
 0001:0017a160       ??R?$AABBTreeRaycast@$0A@$00VAABBTree@Gu@physx@@UBVHNode@23@U?$MainTreeRaycastPrunerCallback@$0A@@@@Gu@physx@@QEAA_NAEBVAABBTreeBounds@12@AEBVAABBTree@12@AEBV?$PxVec3T@M@2@2AEAM2AEAU?$MainTreeRaycastPrunerCallback@$0A@@@@Z 000000018017b160 f i GuExtendedBucketPruner.obj
 0001:0017a830       ??R?$AABBTreeRaycast@$0A@$00VAABBTree@Gu@physx@@UBVHNode@23@URaycastCallbackAdapter@23@@Gu@physx@@QEAA_NAEBVAABBTreeBounds@12@AEBVAABBTree@12@AEBV?$PxVec3T@M@2@2AEAM2AEAURaycastCallbackAdapter@12@@Z 000000018017b830 f i GuExtendedBucketPruner.obj
 0001:0017aec0       ?addTree@ExtendedBucketPruner@Gu@physx@@QEAAXAEBVAABBTreeMergeData@23@I@Z 000000018017bec0 f   GuExtendedBucketPruner.obj
 0001:0017b1a0       ?buildMainAABBTree@ExtendedBucketPruner@Gu@physx@@AEAAXXZ 000000018017c1a0 f   GuExtendedBucketPruner.obj
 0001:0017b240       ?create@?$PxHashBase@V?$PxPair@$$CBUPrunerPayload@Gu@physx@@UExtendedBucketPrunerData@23@@physx@@UPrunerPayload@Gu@2@UExtendedBucketPrunerHash@42@UGetKey@?$PxHashMapBase@UPrunerPayload@Gu@physx@@UExtendedBucketPrunerData@23@UExtendedBucketPrunerHash@23@VPxAllocator@3@@2@VPxAllocator@2@$00@physx@@QEAAPEAV?$PxPair@$$CBUPrunerPayload@Gu@physx@@UExtendedBucketPrunerData@23@@2@AEBUPrunerPayload@Gu@2@AEA_N@Z 000000018017c240 f i GuExtendedBucketPruner.obj
 0001:0017b410       ?eraseInternal@?$PxHashBase@V?$PxPair@$$CBUPrunerPayload@Gu@physx@@UExtendedBucketPrunerData@23@@physx@@UPrunerPayload@Gu@2@UExtendedBucketPrunerHash@42@UGetKey@?$PxHashMapBase@UPrunerPayload@Gu@physx@@UExtendedBucketPrunerData@23@UExtendedBucketPrunerHash@23@VPxAllocator@3@@2@VPxAllocator@2@$00@physx@@AEAA_NPEAI@Z 000000018017c410 f i GuExtendedBucketPruner.obj
 0001:0017b530       ?find@?$PxHashMapBase@UPrunerPayload@Gu@physx@@UExtendedBucketPrunerData@23@UExtendedBucketPrunerHash@23@VPxAllocator@3@@physx@@QEBAPEBV?$PxPair@$$CBUPrunerPayload@Gu@physx@@UExtendedBucketPrunerData@23@@2@AEBUPrunerPayload@Gu@2@@Z 000000018017c530 f i GuExtendedBucketPruner.obj
 0001:0017b620       ?getGlobalBounds@ExtendedBucketPruner@Gu@physx@@QEBAXAEAVPxBounds3@3@@Z 000000018017c620 f   GuExtendedBucketPruner.obj
 0001:0017b6f0       ?invalidateObject@ExtendedBucketPruner@Gu@physx@@AEAAXAEBUExtendedBucketPrunerData@23@IAEBUPrunerPayload@23@I@Z 000000018017c6f0 f   GuExtendedBucketPruner.obj
 0001:0017b830       ?overlap@ExtendedBucketPruner@Gu@physx@@QEBA_NAEBVShapeData@23@AEAUPrunerOverlapCallback@23@@Z 000000018017c830 f   GuExtendedBucketPruner.obj
 0001:0017c010       ?raycast@ExtendedBucketPruner@Gu@physx@@QEBA_NAEBV?$PxVec3T@M@3@0AEAMAEAUPrunerRaycastCallback@23@@Z 000000018017d010 f   GuExtendedBucketPruner.obj
 0001:0017c0f0       ?refitMarkedNodes@ExtendedBucketPruner@Gu@physx@@QEAAXPEBVPxBounds3@3@@Z 000000018017d0f0 f   GuExtendedBucketPruner.obj
 0001:0017c660       ?release@ExtendedBucketPruner@Gu@physx@@QEAAXXZ 000000018017d660 f   GuExtendedBucketPruner.obj
 0001:0017c730       ?removeMarkedObjects@ExtendedBucketPruner@Gu@physx@@QEAAII@Z 000000018017d730 f   GuExtendedBucketPruner.obj
 0001:0017ca50       ?removeObject@ExtendedBucketPruner@Gu@physx@@QEAA_NAEBUPrunerPayload@23@II0I@Z 000000018017da50 f   GuExtendedBucketPruner.obj
 0001:0017cc40       ?reserveInternal@?$PxHashBase@V?$PxPair@$$CBUPrunerPayload@Gu@physx@@UExtendedBucketPrunerData@23@@physx@@UPrunerPayload@Gu@2@UExtendedBucketPrunerHash@42@UGetKey@?$PxHashMapBase@UPrunerPayload@Gu@physx@@UExtendedBucketPrunerData@23@UExtendedBucketPrunerHash@23@VPxAllocator@3@@2@VPxAllocator@2@$00@physx@@AEAAXI@Z 000000018017dc40 f i GuExtendedBucketPruner.obj
 0001:0017ce40       ?shiftOrigin@ExtendedBucketPruner@Gu@physx@@QEAAXAEBV?$PxVec3T@M@3@@Z 000000018017de40 f   GuExtendedBucketPruner.obj
 0001:0017cec0       ?swapIndex@ExtendedBucketPruner@Gu@physx@@QEAAXIAEBUPrunerPayload@23@I_N@Z 000000018017dec0 f   GuExtendedBucketPruner.obj
 0001:0017cf90       ?sweep@ExtendedBucketPruner@Gu@physx@@QEBA_NAEBVShapeData@23@AEBV?$PxVec3T@M@3@AEAMAEAUPrunerRaycastCallback@23@@Z 000000018017df90 f   GuExtendedBucketPruner.obj
 0001:0017d120       ?updateObject@ExtendedBucketPruner@Gu@physx@@QEAA_NAEBVPxBounds3@3@AEBV?$PxTransformT@M@3@AEBUPrunerPayload@23@II@Z 000000018017e120 f   GuExtendedBucketPruner.obj
 0001:0017d1f0       ?visualize@ExtendedBucketPruner@Gu@physx@@QEBAXAEAVPxRenderOutput@3@I@Z 000000018017e1f0 f   GuExtendedBucketPruner.obj
 0001:0017d280       ??0?$OBBAABBTests@$00@Gu@physx@@QEAA@AEBV?$PxVec3T@M@2@AEBV?$PxMat33T@M@2@0@Z 000000018017e280 f i GuSecondaryPruner.obj
 0001:0017f250       ??_ECompanionPruner@Gu@physx@@UEAAPEAXI@Z 0000000180180250 f i GuSecondaryPruner.obj
 0001:0017f250       ??_GCompanionPruner@Gu@physx@@UEAAPEAXI@Z 0000000180180250 f i GuSecondaryPruner.obj
 0001:0017f2a0       ??_ECompanionPrunerAABBTree@@UEAAPEAXI@Z 00000001801802a0 f i GuSecondaryPruner.obj
 0001:0017f2a0       ??_GCompanionPrunerAABBTree@@UEAAPEAXI@Z 00000001801802a0 f i GuSecondaryPruner.obj
 0001:0017f350       ??_ECompanionPrunerBucket@@UEAAPEAXI@Z 0000000180180350 f i GuSecondaryPruner.obj
 0001:0017f350       ??_GCompanionPrunerBucket@@UEAAPEAXI@Z 0000000180180350 f i GuSecondaryPruner.obj
 0001:0017f3d0       ??_ECompanionPrunerIncremental@@UEAAPEAXI@Z 00000001801803d0 f i GuSecondaryPruner.obj
 0001:0017f3d0       ??_GCompanionPrunerIncremental@@UEAAPEAXI@Z 00000001801803d0 f i GuSecondaryPruner.obj
 0001:0017f450       ?addObject@CompanionPrunerAABBTree@@UEAA_NAEBUPrunerPayload@Gu@physx@@IAEBVPxBounds3@4@AEBV?$PxTransformT@M@4@II@Z 0000000180180450 f   GuSecondaryPruner.obj
 0001:0017f690       ?addObject@CompanionPrunerBucket@@UEAA_NAEBUPrunerPayload@Gu@physx@@IAEBVPxBounds3@4@AEBV?$PxTransformT@M@4@II@Z 0000000180180690 f i GuSecondaryPruner.obj
 0001:0017f6b0       ?addObject@CompanionPrunerIncremental@@UEAA_NAEBUPrunerPayload@Gu@physx@@IAEBVPxBounds3@4@AEBV?$PxTransformT@M@4@II@Z 00000001801806b0 f i GuSecondaryPruner.obj
 0001:0017f6d0       ?addObjectInternal@CompanionPrunerAABBTree@@QEAA_NII@Z 00000001801806d0 f   GuSecondaryPruner.obj
 0001:0017f870       ?build@CompanionPrunerAABBTree@@UEAAXXZ 0000000180180870 f   GuSecondaryPruner.obj
 0001:0017fd50       ?createCompanionPruner@Gu@physx@@YAPEAVCompanionPruner@12@_KW4CompanionPrunerType@12@PEBVPruningPool@12@@Z 0000000180180d50 f   GuSecondaryPruner.obj
 0001:0017ff60       ?getGlobalBounds@CompanionPrunerAABBTree@@UEBAXAEAVPxBounds3@physx@@@Z 0000000180180f60 f   GuSecondaryPruner.obj
 0001:00180070       ?getGlobalBounds@CompanionPrunerBucket@@UEBAXAEAVPxBounds3@physx@@@Z 0000000180181070 f i GuSecondaryPruner.obj
 0001:00180080       ?getGlobalBounds@CompanionPrunerIncremental@@UEBAXAEAVPxBounds3@physx@@@Z 0000000180181080 f i GuSecondaryPruner.obj
 0001:00180090       ?getNbObjects@CompanionPrunerAABBTree@@UEBAIXZ 0000000180181090 f   GuSecondaryPruner.obj
 0001:001800a0       ?getNbObjects@CompanionPrunerBucket@@UEBAIXZ 00000001801810a0 f i GuSecondaryPruner.obj
 0001:001800b0       ?getNbObjects@CompanionPrunerIncremental@@UEBAIXZ 00000001801810b0 f i GuSecondaryPruner.obj
 0001:001800c0       ?growAndPushBack@?$PxArray@ULocalData@CompanionPrunerAABBTree@@V?$PxReflectionAllocator@ULocalData@CompanionPrunerAABBTree@@@physx@@@physx@@IEAAAEAULocalData@CompanionPrunerAABBTree@@AEBU34@@Z 00000001801810c0 f i GuSecondaryPruner.obj
 0001:00180200       ?overlap@CompanionPrunerAABBTree@@UEBA_NAEBVShapeData@Gu@physx@@AEAUPrunerOverlapCallback@34@@Z 0000000180181200 f   GuSecondaryPruner.obj
 0001:00181190       ?overlap@CompanionPrunerBucket@@UEBA_NAEBVShapeData@Gu@physx@@AEAUPrunerOverlapCallback@34@@Z 0000000180182190 f i GuSecondaryPruner.obj
 0001:001811b0       ?overlap@CompanionPrunerIncremental@@UEBA_NAEBVShapeData@Gu@physx@@AEAUPrunerOverlapCallback@34@@Z 00000001801821b0 f i GuSecondaryPruner.obj
 0001:001811d0       ?raycast@CompanionPrunerAABBTree@@UEBA_NAEBV?$PxVec3T@M@physx@@0AEAMAEAUPrunerRaycastCallback@Gu@3@@Z 00000001801821d0 f   GuSecondaryPruner.obj
 0001:001815b0       ?raycast@CompanionPrunerBucket@@UEBA_NAEBV?$PxVec3T@M@physx@@0AEAMAEAUPrunerRaycastCallback@Gu@3@@Z 00000001801825b0 f i GuSecondaryPruner.obj
 0001:001815d0       ?raycast@CompanionPrunerIncremental@@UEBA_NAEBV?$PxVec3T@M@physx@@0AEAMAEAUPrunerRaycastCallback@Gu@3@@Z 00000001801825d0 f i GuSecondaryPruner.obj
 0001:001815f0       ?release@CompanionPrunerAABBTree@@UEAAXXZ 00000001801825f0 f   GuSecondaryPruner.obj
 0001:00181600       ?release@CompanionPrunerBucket@@UEAAXXZ 0000000180182600 f i GuSecondaryPruner.obj
 0001:00181610       ?release@CompanionPrunerIncremental@@UEAAXXZ 0000000180182610 f i GuSecondaryPruner.obj
 0001:00181620       ?releaseInternal@CompanionPrunerAABBTree@@QEAAXXZ 0000000180182620 f   GuSecondaryPruner.obj
 0001:001816a0       ?removeMarkedObjects@CompanionPrunerAABBTree@@UEAAII@Z 00000001801826a0 f   GuSecondaryPruner.obj
 0001:001816c0       ?removeMarkedObjects@CompanionPrunerBucket@@UEAAII@Z 00000001801826c0 f i GuSecondaryPruner.obj
 0001:001816d0       ?removeMarkedObjects@CompanionPrunerIncremental@@UEAAII@Z 00000001801826d0 f i GuSecondaryPruner.obj
 0001:001816e0       ?removeObject@CompanionPrunerAABBTree@@UEAA_NAEBUPrunerPayload@Gu@physx@@III@Z 00000001801826e0 f   GuSecondaryPruner.obj
 0001:00181780       ?removeObject@CompanionPrunerBucket@@UEAA_NAEBUPrunerPayload@Gu@physx@@III@Z 0000000180182780 f i GuSecondaryPruner.obj
 0001:001817a0       ?removeObject@CompanionPrunerIncremental@@UEAA_NAEBUPrunerPayload@Gu@physx@@III@Z 00000001801827a0 f i GuSecondaryPruner.obj
 0001:001817c0       ?shiftOrigin@CompanionPrunerAABBTree@@UEAAXAEBV?$PxVec3T@M@physx@@@Z 00000001801827c0 f   GuSecondaryPruner.obj
 0001:001818f0       ?shiftOrigin@CompanionPrunerIncremental@@UEAAXAEBV?$PxVec3T@M@physx@@@Z 00000001801828f0 f i GuSecondaryPruner.obj
 0001:00181900       ?swapIndex@CompanionPrunerIncremental@@UEAAXII@Z 0000000180182900 f i GuSecondaryPruner.obj
 0001:00181910       ?sweep@CompanionPrunerAABBTree@@UEBA_NAEBVShapeData@Gu@physx@@AEBV?$PxVec3T@M@4@AEAMAEAUPrunerRaycastCallback@34@@Z 0000000180182910 f   GuSecondaryPruner.obj
 0001:00181e50       ?sweep@CompanionPrunerBucket@@UEBA_NAEBVShapeData@Gu@physx@@AEBV?$PxVec3T@M@4@AEAMAEAUPrunerRaycastCallback@34@@Z 0000000180182e50 f i GuSecondaryPruner.obj
 0001:00181e70       ?sweep@CompanionPrunerIncremental@@UEBA_NAEBVShapeData@Gu@physx@@AEBV?$PxVec3T@M@4@AEAMAEAUPrunerRaycastCallback@34@@Z 0000000180182e70 f i GuSecondaryPruner.obj
 0001:00181e90       ?timeStampChange@CompanionPrunerIncremental@@UEAAXXZ 0000000180182e90 f i GuSecondaryPruner.obj
 0001:00181eb0       ?updateObject@CompanionPrunerAABBTree@@UEAA_NAEBUPrunerPayload@Gu@physx@@IAEBVPxBounds3@4@AEBV?$PxTransformT@M@4@I@Z 0000000180182eb0 f   GuSecondaryPruner.obj
 0001:00181f30       ?updateObject@CompanionPrunerBucket@@UEAA_NAEBUPrunerPayload@Gu@physx@@IAEBVPxBounds3@4@AEBV?$PxTransformT@M@4@I@Z 0000000180182f30 f i GuSecondaryPruner.obj
 0001:00181f50       ?updateObject@CompanionPrunerIncremental@@UEAA_NAEBUPrunerPayload@Gu@physx@@IAEBVPxBounds3@4@AEBV?$PxTransformT@M@4@I@Z 0000000180182f50 f i GuSecondaryPruner.obj
 0001:00181f60       ?visualize@CompanionPrunerAABBTree@@UEBAXAEAVPxRenderOutput@physx@@I@Z 0000000180182f60 f   GuSecondaryPruner.obj
 0001:00181f80       ?visualize@CompanionPrunerIncremental@@UEBAXAEAVPxRenderOutput@physx@@I@Z 0000000180182f80 f i GuSecondaryPruner.obj
 0001:00181f90       ??0AABBPruner@Gu@physx@@QEAA@_N_KW4CompanionPrunerType@12@W4BVHBuildStrategy@12@I@Z 0000000180182f90 f   GuAABBPruner.obj
 0001:001820c0       ??1AABBPruner@Gu@physx@@UEAA@XZ 00000001801830c0 f   GuAABBPruner.obj
 0001:00182210       ??_EAABBPruner@Gu@physx@@UEAAPEAXI@Z 0000000180183210 f i GuAABBPruner.obj
 0001:00182210       ??_GAABBPruner@Gu@physx@@UEAAPEAXI@Z 0000000180183210 f i GuAABBPruner.obj
 0001:00182280       ?addObjects@AABBPruner@Gu@physx@@UEAA_NPEAIPEBVPxBounds3@3@PEBUPrunerPayload@23@PEBV?$PxTransformT@M@3@I_N@Z 0000000180183280 f   GuAABBPruner.obj
 0001:00182560       ?buildStep@AABBPruner@Gu@physx@@UEAA_N_N@Z 0000000180183560 f   GuAABBPruner.obj
 0001:00182960       ?commit@AABBPruner@Gu@physx@@UEAAXXZ 0000000180183960 f   GuAABBPruner.obj
 0001:00183060       ?fullRebuildAABBTree@AABBPruner@Gu@physx@@QEAA_NXZ 0000000180184060 f   GuAABBPruner.obj
 0001:00183260       ?getGlobalBounds@AABBPruner@Gu@physx@@UEBAXAEAVPxBounds3@3@@Z 0000000180184260 f   GuAABBPruner.obj
 0001:001833a0       ?getPayloadData@AABBPruner@Gu@physx@@UEBAAEBUPrunerPayload@23@IPEAUPrunerPayloadData@23@@Z 00000001801843a0 f i GuAABBPruner.obj
 0001:00183400       ?growAndPushBack@?$PxArray@UNewTreeFixup@AABBPruner@Gu@physx@@V?$PxReflectionAllocator@UNewTreeFixup@AABBPruner@Gu@physx@@@4@@physx@@IEAAAEAUNewTreeFixup@AABBPruner@Gu@2@AEBU3452@@Z 0000000180184400 f i GuAABBPruner.obj
 0001:00183540       ?isDynamic@AABBPruner@Gu@physx@@UEBA_NXZ 0000000180184540 f i GuAABBPruner.obj
 0001:00183550       ?merge@AABBPruner@Gu@physx@@UEAAXPEBX@Z 0000000180184550 f   GuAABBPruner.obj
 0001:001835d0       ?overlap@AABBPruner@Gu@physx@@UEBA_NAEBVShapeData@23@AEAUPrunerOverlapCallback@23@@Z 00000001801845d0 f   GuAABBPruner.obj
 0001:00183ba0       ?preallocate@AABBPruner@Gu@physx@@UEAAXI@Z 0000000180184ba0 f i GuAABBPruner.obj
 0001:00183bb0       ?prepareBuild@AABBPruner@Gu@physx@@UEAA_NXZ 0000000180184bb0 f   GuAABBPruner.obj
 0001:00183dc0       ?purge@AABBPruner@Gu@physx@@UEAAXXZ 0000000180184dc0 f   GuAABBPruner.obj
 0001:00183de0       ?raycast@AABBPruner@Gu@physx@@UEBA_NAEBV?$PxVec3T@M@3@0AEAMAEAUPrunerRaycastCallback@23@@Z 0000000180184de0 f   GuAABBPruner.obj
 0001:00183ed0       ?refitUpdatedAndRemoved@AABBPruner@Gu@physx@@QEAAXXZ 0000000180184ed0 f   GuAABBPruner.obj
 0001:00183fa0       ?release@AABBPruner@Gu@physx@@QEAAXXZ 0000000180184fa0 f   GuAABBPruner.obj
 0001:001840d0       ?removeObjects@AABBPruner@Gu@physx@@UEAAXPEBIIPEAUPrunerPayloadRemovalCallback@23@@Z 00000001801850d0 f   GuAABBPruner.obj
 0001:001843a0       ?setRebuildRateHint@AABBPruner@Gu@physx@@UEAAXI@Z 00000001801853a0 f   GuAABBPruner.obj
 0001:001843c0       ?setTransform@AABBPruner@Gu@physx@@UEAA_NIAEBV?$PxTransformT@M@3@@Z 00000001801853c0 f i GuAABBPruner.obj
 0001:00184420       ?shiftOrigin@AABBPruner@Gu@physx@@UEAAXAEBV?$PxVec3T@M@3@@Z 0000000180185420 f   GuAABBPruner.obj
 0001:00184490       ?sweep@AABBPruner@Gu@physx@@UEBA_NAEBVShapeData@23@AEBV?$PxVec3T@M@3@AEAMAEAUPrunerRaycastCallback@23@@Z 0000000180185490 f   GuAABBPruner.obj
 0001:00184620       ?updateObjects@AABBPruner@Gu@physx@@UEAAXPEBIIM0PEBVPxBounds3@3@PEBUPxTransformPadded@3@@Z 0000000180185620 f   GuAABBPruner.obj
 0001:001848c0       ?visualize@AABBPruner@Gu@physx@@UEBAXAEAVPxRenderOutput@3@II@Z 00000001801858c0 f   GuAABBPruner.obj
 0001:00184970       ??0ActorShapeMap@Gu@physx@@QEAA@XZ 0000000180185970 f   GuActorShapeMap.obj
 0001:001849d0       ??1ActorShapeMap@Gu@physx@@QEAA@XZ 00000001801859d0 f   GuActorShapeMap.obj
 0001:00184a30       ?add@ActorShapeMap@Gu@physx@@QEAA_NIPEBX0_K@Z 0000000180185a30 f   GuActorShapeMap.obj
 0001:00184bc0       ?create@?$PxHashBase@V?$PxPair@$$CBUActorShape@ActorShapeMap@Gu@physx@@_K@physx@@UActorShape@ActorShapeMap@Gu@2@U?$PxHash@UActorShape@ActorShapeMap@Gu@physx@@@2@UGetKey@?$PxHashMapBase@UActorShape@ActorShapeMap@Gu@physx@@_KU?$PxHash@UActorShape@ActorShapeMap@Gu@physx@@@4@VPxAllocator@4@@2@VPxAllocator@2@$00@physx@@QEAAPEAV?$PxPair@$$CBUActorShape@ActorShapeMap@Gu@physx@@_K@2@AEBUActorShape@ActorShapeMap@Gu@2@AEA_N@Z 0000000180185bc0 f i GuActorShapeMap.obj
 0001:00184db0       ?eraseInternal@?$PxHashBase@V?$PxPair@$$CBUActorShape@ActorShapeMap@Gu@physx@@_K@physx@@UActorShape@ActorShapeMap@Gu@2@U?$PxHash@UActorShape@ActorShapeMap@Gu@physx@@@2@UGetKey@?$PxHashMapBase@UActorShape@ActorShapeMap@Gu@physx@@_KU?$PxHash@UActorShape@ActorShapeMap@Gu@physx@@@4@VPxAllocator@4@@2@VPxAllocator@2@$00@physx@@AEAA_NPEAI@Z 0000000180185db0 f i GuActorShapeMap.obj
 0001:00184ec0       ?find@ActorShapeMap@Gu@physx@@QEBA_KIPEBX0@Z 0000000180185ec0 f   GuActorShapeMap.obj
 0001:00184fb0       ?remove@ActorShapeMap@Gu@physx@@QEAA_NIPEBX0PEA_K@Z 0000000180185fb0 f   GuActorShapeMap.obj
 0001:00185100       ?reserveInternal@?$PxHashBase@V?$PxPair@$$CBUActorShape@ActorShapeMap@Gu@physx@@_K@physx@@UActorShape@ActorShapeMap@Gu@2@U?$PxHash@UActorShape@ActorShapeMap@Gu@physx@@@2@UGetKey@?$PxHashMapBase@UActorShape@ActorShapeMap@Gu@physx@@_KU?$PxHash@UActorShape@ActorShapeMap@Gu@physx@@@4@VPxAllocator@4@@2@VPxAllocator@2@$00@physx@@AEAAXI@Z 0000000180186100 f i GuActorShapeMap.obj
 0001:00185310       ??0QuerySystem@Gu@physx@@QEAA@_KMAEBVAdapter@12@_N@Z 0000000180186310 f   GuQuerySystem.obj
 0001:001853f0       ??1QuerySystem@Gu@physx@@QEAA@XZ 00000001801863f0 f   GuQuerySystem.obj
 0001:00185630       ??_GPrunerExt@QuerySystem@Gu@physx@@QEAAPEAXI@Z 0000000180186630 f i GuQuerySystem.obj
 0001:00185730       ?addPruner@QuerySystem@Gu@physx@@QEAAIPEAVPruner@23@I@Z 0000000180186730 f   GuQuerySystem.obj
 0001:00185860       ?addPrunerShape@QuerySystem@Gu@physx@@QEAA_KAEBUPrunerPayload@23@I_NAEBV?$PxTransformT@M@3@PEBVPxBounds3@3@@Z 0000000180186860 f   GuQuerySystem.obj
 0001:001859a0       ?addToDirtyList@PrunerExt@QuerySystem@Gu@physx@@QEAAXIIAEBV?$PxTransformT@M@4@PEBVPxBounds3@4@@Z 00000001801869a0 f   GuQuerySystem.obj
 0001:00185be0       ?commitUpdates@QuerySystem@Gu@physx@@QEAAXXZ 0000000180186be0 f   GuQuerySystem.obj
 0001:00185d00       ?createTreeOfPruners@QuerySystem@Gu@physx@@QEAAXXZ 0000000180186d00 f   GuQuerySystem.obj
 0001:00185ee0       ?flushMemory@QuerySystem@Gu@physx@@QEAAXXZ 0000000180186ee0 f   GuQuerySystem.obj
 0001:00185f70       ?getPayloadData@QuerySystem@Gu@physx@@QEBAAEBUPrunerPayload@23@_KPEAUPrunerPayloadData@23@@Z 0000000180186f70 f   GuQuerySystem.obj
 0001:00185f90       ?growAndPushBack@?$PxArray@PEAUPrunerExt@QuerySystem@Gu@physx@@V?$PxReflectionAllocator@PEAUPrunerExt@QuerySystem@Gu@physx@@@4@@physx@@IEAAAEAPEAUPrunerExt@QuerySystem@Gu@2@AEBQEAU3452@@Z 0000000180186f90 f i GuQuerySystem.obj
 0001:001860d0       ?overlap@QuerySystem@Gu@physx@@QEBAXAEBVShapeData@23@AEAUPrunerOverlapCallback@23@PEBVPrunerFilter@23@@Z 00000001801870d0 f   GuQuerySystem.obj
 0001:001861d0       ?processDirtyList@PrunerExt@QuerySystem@Gu@physx@@QEAA_NAEBVAdapter@34@M@Z 00000001801871d0 f   GuQuerySystem.obj
 0001:00186410       ?processDirtyLists@QuerySystem@Gu@physx@@AEAAXXZ 0000000180187410 f   GuQuerySystem.obj
 0001:00186570       ?raycast@QuerySystem@Gu@physx@@QEBAXAEBV?$PxVec3T@M@3@0AEAMAEAUPrunerRaycastCallback@23@PEBVPrunerFilter@23@@Z 0000000180187570 f   GuQuerySystem.obj
 0001:001866b0       ?recreate@?$PxArray@UData@PrunerExt@QuerySystem@Gu@physx@@V?$PxReflectionAllocator@UData@PrunerExt@QuerySystem@Gu@physx@@@5@@physx@@IEAAXI@Z 00000001801876b0 f i GuQuerySystem.obj
 0001:001869d0       ?removePruner@QuerySystem@Gu@physx@@QEAAXI@Z 00000001801879d0 f   GuQuerySystem.obj
 0001:00186ab0       ?removePrunerShape@QuerySystem@Gu@physx@@QEAAX_KPEAUPrunerPayloadRemovalCallback@23@@Z 0000000180187ab0 f   GuQuerySystem.obj
 0001:00186ce0       ?sweep@QuerySystem@Gu@physx@@QEBAXAEBVShapeData@23@AEBV?$PxVec3T@M@3@AEAMAEAUPrunerRaycastCallback@23@PEBVPrunerFilter@23@@Z 0000000180187ce0 f   GuQuerySystem.obj
 0001:00186e10       ?sync@QuerySystem@Gu@physx@@QEAAXIPEBI0PEBVPxBounds3@3@PEBUPxTransformPadded@3@I@Z 0000000180187e10 f   GuQuerySystem.obj
 0001:00186ec0       ?update@QuerySystem@Gu@physx@@QEAAX_N0@Z 0000000180187ec0 f   GuQuerySystem.obj
 0001:00187030       ?updatePrunerShape@QuerySystem@Gu@physx@@QEAAX_K_NAEBV?$PxTransformT@M@3@PEBVPxBounds3@3@@Z 0000000180188030 f   GuQuerySystem.obj
 0001:00187220       createAABBPruner           0000000180188220 f   GuFactory.obj
 0001:001872e0       createBucketPruner         00000001801882e0 f   GuFactory.obj
 0001:00187370       createIncrementalPruner    0000000180188370 f   GuFactory.obj
 0001:00187400       ??$PxSmallSort@I$$CBUSortBoundsPredicate@physx@@@physx@@YAXPEAIHHAEBUSortBoundsPredicate@0@@Z 0000000180188400 f i GuRTreeCooking.obj
 0001:001876a0       ??$PxSort@IU?$PxLess@I@physx@@V?$PxReflectionAllocator@I@2@@physx@@YAXPEAIIAEBU?$PxLess@I@0@AEBV?$PxReflectionAllocator@I@0@I@Z 00000001801886a0 f i GuRTreeCooking.obj
 0001:00187af0       ??$PxSort@IUSortBoundsPredicate@physx@@V?$PxReflectionAllocator@I@2@@physx@@YAXPEAIIAEBUSortBoundsPredicate@0@AEBV?$PxReflectionAllocator@I@0@I@Z 0000000180188af0 f i GuRTreeCooking.obj
 0001:00187fb0       ??$quickSelectFirstK@UBoundsLTE@physx@@@quickSelect@physx@@YAXPEIAIIIIAEBUBoundsLTE@1@@Z 0000000180188fb0 f i GuRTreeCooking.obj
 0001:00188190       ?allocate@?$PxArray@UInterval@physx@@V?$PxInlineAllocator@$0CAAA@V?$PxReflectionAllocator@UInterval@physx@@@physx@@@2@@physx@@IEAAPEAUInterval@2@I@Z 0000000180189190 f i GuRTreeCooking.obj
 0001:00188260       ?allocate@?$PxArray@UPxBounds3V@physx@@V?$PxReflectionAllocator@UPxBounds3V@physx@@@2@@physx@@IEAAPEAUPxBounds3V@2@I@Z 0000000180189260 f i GuRTreeCooking.obj
 0001:00188310       ?allocate@?$PxArray@URTreeNodeNQ@physx@@V?$PxReflectionAllocator@URTreeNodeNQ@physx@@@2@@physx@@IEAAPEAURTreeNodeNQ@2@I@Z 0000000180189310 f i GuRTreeCooking.obj
 0001:001883c0       ?allocate@?$PxArray@URTreeNodeQ@Gu@physx@@V?$PxReflectionAllocator@URTreeNodeQ@Gu@physx@@@3@@physx@@IEAAPEAURTreeNodeQ@Gu@2@I@Z 00000001801893c0 f i GuRTreeCooking.obj
 0001:001890e0       ?buildFromTriangles@RTreeCooker@physx@@SAXAEAURTree@Gu@2@PEBV?$PxVec3T@M@2@IPEBGPEBIIAEAV?$PxArray@IV?$PxReflectionAllocator@I@physx@@@2@PEAURemapCallback@12@MW4Enum@PxMeshCookingHint@2@@Z 000000018018a0e0 f   GuRTreeCooking.obj
 0001:001893a0       ?copy@?$PxArray@URTreeNodeNQ@physx@@V?$PxReflectionAllocator@URTreeNodeNQ@physx@@@2@@physx@@KAXPEAURTreeNodeNQ@2@0PEBU32@@Z 000000018018a3a0 f i GuRTreeCooking.obj
 0001:00189560       ?growAndPushBack@?$PxArray@UInterval@physx@@V?$PxInlineAllocator@$0CAAA@V?$PxReflectionAllocator@UInterval@physx@@@physx@@@2@@physx@@IEAAAEAUInterval@2@AEBU32@@Z 000000018018a560 f i GuRTreeCooking.obj
 0001:00189640       ?growAndPushBack@?$PxArray@UPxBounds3V@physx@@V?$PxReflectionAllocator@UPxBounds3V@physx@@@2@@physx@@IEAAAEAUPxBounds3V@2@AEBU32@@Z 000000018018a640 f i GuRTreeCooking.obj
 0001:00189710       ?growAndPushBack@?$PxArray@URTreeNodeNQ@physx@@V?$PxReflectionAllocator@URTreeNodeNQ@physx@@@2@@physx@@IEAAAEAURTreeNodeNQ@2@AEBU32@@Z 000000018018a710 f i GuRTreeCooking.obj
 0001:001897f0       ?growAndPushBack@?$PxArray@URTreeNodeQ@Gu@physx@@V?$PxReflectionAllocator@URTreeNodeQ@Gu@physx@@@3@@physx@@IEAAAEAURTreeNodeQ@Gu@2@AEBU342@@Z 000000018018a7f0 f i GuRTreeCooking.obj
 0001:001898d0       ?recreate@?$PxArray@UPxBounds3V@physx@@V?$PxReflectionAllocator@UPxBounds3V@physx@@@2@@physx@@IEAAXI@Z 000000018018a8d0 f i GuRTreeCooking.obj
 0001:00189980       ?recreate@?$PxArray@URTreeNodeNQ@physx@@V?$PxReflectionAllocator@URTreeNodeNQ@physx@@@2@@physx@@IEAAXI@Z 000000018018a980 f i GuRTreeCooking.obj
 0001:00189a10       ?recreate@?$PxArray@URTreeNodeQ@Gu@physx@@V?$PxReflectionAllocator@URTreeNodeQ@Gu@physx@@@3@@physx@@IEAAXI@Z 000000018018aa10 f i GuRTreeCooking.obj
 0001:00189ad0       ?resizeUninitialized@?$PxArray@URTreeNodeNQ@physx@@V?$PxReflectionAllocator@URTreeNodeNQ@physx@@@2@@physx@@QEAAXI@Z 000000018018aad0 f i GuRTreeCooking.obj
 0001:00189b10       ?sort4@SubSortQuick@physx@@QEAAXPEIAIIAEAV?$PxArray@URTreeNodeNQ@physx@@V?$PxReflectionAllocator@URTreeNodeNQ@physx@@@2@@2@AEAIAEAUPxBounds3V@2@I@Z 000000018018ab10 f i GuRTreeCooking.obj
 0001:00189ea0       ?sort4@SubSortSAH@physx@@QEAAXPEAIIAEAV?$PxArray@URTreeNodeNQ@physx@@V?$PxReflectionAllocator@URTreeNodeNQ@physx@@@2@@2@AEAIIPEAURTreeNodeNQ@2@@Z 000000018018aea0 f i GuRTreeCooking.obj
 0001:0018a750       ?split@SubSortSAH@physx@@QEAAIPEAII@Z 000000018018b750 f i GuRTreeCooking.obj
 0001:0018b1d0       cookBVH                    000000018018c1d0 f   GuCookingBVH.obj
 0001:0018b350       createBVH                  000000018018c350 f   GuCookingBVH.obj
 0001:0018b4d0       cookHeightField            000000018018c4d0 f   GuCookingHF.obj
 0001:0018b5c0       createHeightField          000000018018c5c0 f   GuCookingHF.obj
 0001:0018bc00       computeHullPolygons        000000018018cc00 f   GuCookingConvexMesh.obj
 0001:0018bde0       cookConvexMesh             000000018018cde0 f   GuCookingConvexMesh.obj
 0001:0018bf50       createConvexMesh           000000018018cf50 f   GuCookingConvexMesh.obj
 0001:0018c0f0       validateConvexMesh         000000018018d0f0 f   GuCookingConvexMesh.obj
 0001:0018c210       ??1BV4TriangleMeshBuilder@physx@@UEAA@XZ 000000018018d210 f   GuCookingTriangleMesh.obj
 0001:0018c2a0       ??1RTreeTriangleMeshBuilder@physx@@UEAA@XZ 000000018018d2a0 f   GuCookingTriangleMesh.obj
 0001:0018c310       ??_EBV4TriangleMeshBuilder@physx@@UEAAPEAXI@Z 000000018018d310 f i GuCookingTriangleMesh.obj
 0001:0018c310       ??_GBV4TriangleMeshBuilder@physx@@UEAAPEAXI@Z 000000018018d310 f i GuCookingTriangleMesh.obj
 0001:0018c350       ??_ERTreeTriangleMeshBuilder@physx@@UEAAPEAXI@Z 000000018018d350 f i GuCookingTriangleMesh.obj
 0001:0018c350       ??_GRTreeTriangleMeshBuilder@physx@@UEAAPEAXI@Z 000000018018d350 f i GuCookingTriangleMesh.obj
 0001:0018c390       ??_ETriangleMeshBuilder@physx@@UEAAPEAXI@Z 000000018018d390 f i GuCookingTriangleMesh.obj
 0001:0018c390       ??_GTriangleMeshBuilder@physx@@UEAAPEAXI@Z 000000018018d390 f i GuCookingTriangleMesh.obj
 0001:0018cd40       ?buildInertiaTensor@TriangleMeshBuilder@physx@@IEAAXXZ 000000018018dd40 f   GuCookingTriangleMesh.obj
 0001:0018ce90       ?buildInertiaTensorFromSDF@TriangleMeshBuilder@physx@@IEAAXXZ 000000018018de90 f   GuCookingTriangleMesh.obj
 0001:0018d0b0       ?cleanMesh@TriangleMeshBuilder@physx@@QEAA_N_NPEAW4Enum@PxTriangleMeshCookingResult@2@@Z 000000018018e0b0 f   GuCookingTriangleMesh.obj
 0001:0018d540       ?createGRBMidPhaseAndData@TriangleMeshBuilder@physx@@QEAAXI@Z 000000018018e540 f   GuCookingTriangleMesh.obj
 0001:0018d6f0       ?createMidPhaseStructure@BV32TriangleMeshBuilder@physx@@SAXAEBUPxCookingParams@2@AEAVTriangleMeshData@Gu@2@AEAVBV32Tree@52@@Z 000000018018e6f0 f   GuCookingTriangleMesh.obj
 0001:0018d930       ?createMidPhaseStructure@BV4TriangleMeshBuilder@physx@@UEAAXXZ 000000018018e930 f   GuCookingTriangleMesh.obj
 0001:0018dbd0       ?createMidPhaseStructure@RTreeTriangleMeshBuilder@physx@@UEAAXXZ 000000018018ebd0 f   GuCookingTriangleMesh.obj
 0001:0018dcc0       ?createSharedEdgeData@TriangleMeshBuilder@physx@@QEAAX_N0@Z 000000018018ecc0 f   GuCookingTriangleMesh.obj
 0001:0018e360       ?createVertMapping@TriangleMeshBuilder@physx@@QEAAXXZ 000000018018f360 f   GuCookingTriangleMesh.obj
 0001:0018e6c0       ?importMesh@TriangleMeshBuilder@physx@@IEAA_NAEBVPxTriangleMeshDesc@2@AEBUPxCookingParams@2@PEAW4Enum@PxTriangleMeshCookingResult@2@_N@Z 000000018018f6c0 f   GuCookingTriangleMesh.obj
 0001:0018ece0       ?isValid@PxTriangleMeshDesc@physx@@QEBA_NXZ 000000018018fce0 f i GuCookingTriangleMesh.obj
 0001:0018edb0       ?loadFromDescInternal@TriangleMeshBuilder@physx@@IEAA_NAEAVPxTriangleMeshDesc@2@PEAW4Enum@PxTriangleMeshCookingResult@2@_N@Z 000000018018fdb0 f   GuCookingTriangleMesh.obj
 0001:0018efc0       ?onMeshIndexFormatChange@BV4TriangleMeshBuilder@physx@@UEAAXXZ 000000018018ffc0 f   GuCookingTriangleMesh.obj
 0001:0018f000       ?remap@RTreeCookerRemap@@UEAAXPEAIII@Z 0000000180190000 f i GuCookingTriangleMesh.obj
 0001:0018f020       ?remapTopology@TriangleMeshBuilder@physx@@QEAAXPEBI@Z 0000000180190020 f   GuCookingTriangleMesh.obj
 0001:0018f2b0       ?save@TriangleMeshBuilder@physx@@QEBA_NAEAVPxOutputStream@2@_NAEBUPxCookingParams@2@@Z 00000001801902b0 f   GuCookingTriangleMesh.obj
 0001:0018fa60       ?saveMidPhaseStructure@BV32TriangleMeshBuilder@physx@@SAXPEAVBV32Tree@Gu@2@AEAVPxOutputStream@2@_N@Z 0000000180190a60 f   GuCookingTriangleMesh.obj
 0001:0018fc60       ?saveMidPhaseStructure@BV4TriangleMeshBuilder@physx@@UEBAXAEAVPxOutputStream@2@_N@Z 0000000180190c60 f   GuCookingTriangleMesh.obj
 0001:0018fe10       ?saveMidPhaseStructure@RTreeTriangleMeshBuilder@physx@@UEBAXAEAVPxOutputStream@2@_N@Z 0000000180190e10 f   GuCookingTriangleMesh.obj
 0001:00190050       cookTriangleMesh           0000000180191050 f   GuCookingTriangleMesh.obj
 0001:00190360       createTriangleMesh         0000000180191360 f   GuCookingTriangleMesh.obj
 0001:00190570       validateTriangleMesh       0000000180191570 f   GuCookingTriangleMesh.obj
 0001:00190820       ??0SoftBodyCollisionData@Gu@physx@@QEAA@XZ 0000000180191820 f i GuCookingTetrahedronMesh.obj
 0001:00190880       ??_ECollisionTetrahedronMeshData@Gu@physx@@UEAAPEAXI@Z 0000000180191880 f i GuCookingTetrahedronMesh.obj
 0001:00190880       ??_GCollisionTetrahedronMeshData@Gu@physx@@UEAAPEAXI@Z 0000000180191880 f i GuCookingTetrahedronMesh.obj
 0001:00190950       ??_EPxCollisionTetrahedronMeshData@physx@@UEAAPEAXI@Z 0000000180191950 f i GuCookingTetrahedronMesh.obj
 0001:00190950       ??_GPxCollisionTetrahedronMeshData@physx@@UEAAPEAXI@Z 0000000180191950 f i GuCookingTetrahedronMesh.obj
 0001:001909a0       ??_EPxSimulationTetrahedronMeshData@physx@@UEAAPEAXI@Z 00000001801919a0 f i GuCookingTetrahedronMesh.obj
 0001:001909a0       ??_GPxSimulationTetrahedronMeshData@physx@@UEAAPEAXI@Z 00000001801919a0 f i GuCookingTetrahedronMesh.obj
 0001:001909f0       ??_ESimulationTetrahedronMeshData@Gu@physx@@UEAAPEAXI@Z 00000001801919f0 f i GuCookingTetrahedronMesh.obj
 0001:001909f0       ??_GSimulationTetrahedronMeshData@Gu@physx@@UEAAPEAXI@Z 00000001801919f0 f i GuCookingTetrahedronMesh.obj
 0001:00190ac0       ?closestPtPointTetrahedron@Gu@physx@@YA?AV?$PxVec3T@M@2@AEBV32@0000@Z 0000000180191ac0 f i GuCookingTetrahedronMesh.obj
 0001:00191c00       ?combineGridModelPartitions@@YAXAEBVTetrahedronMeshData@Gu@physx@@AEAVSoftBodySimulationData@23@PEAPEAI@Z 0000000180192c00 f   GuCookingTetrahedronMesh.obj
 0001:00192440       ?combineGridModelPartitionsHexMesh@@YAXAEBVTetrahedronMeshData@Gu@physx@@AEAVSoftBodySimulationData@23@PEAPEAI@Z 0000000180193440 f   GuCookingTetrahedronMesh.obj
 0001:00192d70       ?computeBarycentric@physx@@YAXAEBV?$PxVec3T@M@1@0000AEAV?$PxVec4T@M@1@@Z 0000000180193d70 f i GuCookingTetrahedronMesh.obj
 0001:00193020       ?computeCollisionData@TetrahedronMeshBuilder@physx@@SA_NAEBVPxTetrahedronMeshDesc@2@AEAVTetrahedronMeshData@Gu@2@AEAVSoftBodyCollisionData@52@AEBUPxCookingParams@2@_N@Z 0000000180194020 f   GuCookingTetrahedronMesh.obj
 0001:00193250       ?computeGridModelTetrahedronPartitions@@YAPEAIAEBVTetrahedronMeshData@Gu@physx@@AEAVSoftBodySimulationData@23@@Z 0000000180194250 f   GuCookingTetrahedronMesh.obj
 0001:001936e0       ?computeModelsMapping@TetrahedronMeshBuilder@physx@@SAXAEAVTetrahedronMeshData@Gu@2@AEBV342@AEBVSoftBodyCollisionData@42@AEAVCollisionMeshMappingData@42@_NPEBUPxBoundedData@2@@Z 00000001801946e0 f   GuCookingTetrahedronMesh.obj
 0001:001942d0       ?computeRestPoseAndPointMass@@YAXPEAU?$TetrahedronT@I@Gu@physx@@IPEBV?$PxVec3T@M@3@PEAMPEAV?$PxMat33T@M@3@@Z 00000001801952d0 f   GuCookingTetrahedronMesh.obj
 0001:00194710       ?computeSimData@TetrahedronMeshBuilder@physx@@SAXAEBVPxTetrahedronMeshDesc@2@AEAVTetrahedronMeshData@Gu@2@AEAVSoftBodySimulationData@52@AEBUPxCookingParams@2@@Z 0000000180195710 f   GuCookingTetrahedronMesh.obj
 0001:00194de0       ?computeTetData@TetrahedronMeshBuilder@physx@@SAXAEBVPxTetrahedronMeshDesc@2@AEAVTetrahedronMeshData@Gu@2@@Z 0000000180195de0 f   GuCookingTetrahedronMesh.obj
 0001:00194ec0       ?computeTetrahedronPartition@@YAIPEBU?$TetrahedronT@I@Gu@physx@@IPEAII@Z 0000000180195ec0 f   GuCookingTetrahedronMesh.obj
 0001:00194fb0       ?createCollisionModelMapping@TetrahedronMeshBuilder@physx@@SAXAEBVTetrahedronMeshData@Gu@2@AEBVSoftBodyCollisionData@42@AEAVCollisionMeshMappingData@42@@Z 0000000180195fb0 f   GuCookingTetrahedronMesh.obj
 0001:00195570       ?createGRBMidPhaseAndData@TetrahedronMeshBuilder@physx@@SAXIAEAVTetrahedronMeshData@Gu@2@AEAVSoftBodyCollisionData@42@AEBUPxCookingParams@2@@Z 0000000180196570 f   GuCookingTetrahedronMesh.obj
 0001:001962b0       ?createMidPhaseStructure@BV32TetrahedronMeshBuilder@physx@@SAXAEBUPxCookingParams@2@AEAVTetrahedronMeshData@Gu@2@AEAVBV32Tree@52@AEAVSoftBodyCollisionData@52@@Z 00000001801972b0 f   GuCookingTetrahedronMesh.obj
 0001:00196580       ?createMidPhaseStructure@TetrahedronMeshBuilder@physx@@SAXAEAVTetrahedronMeshData@Gu@2@AEAVSoftBodyCollisionData@42@AEBUPxCookingParams@2@@Z 0000000180197580 f   GuCookingTetrahedronMesh.obj
 0001:00197240       ?getData@CollisionTetrahedronMeshData@Gu@physx@@UEAAPEAVPxSoftBodyCollisionData@3@XZ 0000000180198240 f i GuCookingTetrahedronMesh.obj
 0001:00197240       ?getData@CollisionTetrahedronMeshData@Gu@physx@@UEBAPEBVPxSoftBodyCollisionData@3@XZ 0000000180198240 f i GuCookingTetrahedronMesh.obj
 0001:00197240       ?getData@SimulationTetrahedronMeshData@Gu@physx@@UEAAPEAVPxSoftBodySimulationData@3@XZ 0000000180198240 f i GuCookingTetrahedronMesh.obj
 0001:00197260       ?importMesh@TetrahedronMeshBuilder@physx@@SA_NAEBVPxTetrahedronMeshDesc@2@AEBUPxCookingParams@2@AEAVTetrahedronMeshData@Gu@2@AEAVSoftBodyCollisionData@62@_N@Z 0000000180198260 f   GuCookingTetrahedronMesh.obj
 0001:00197620       ?isValid@PxTetrahedronMeshDesc@physx@@QEBA_NXZ 0000000180198620 f i GuCookingTetrahedronMesh.obj
 0001:00197690       ?loadFromDesc@TetrahedronMeshBuilder@physx@@SA_NAEBVPxTetrahedronMeshDesc@2@0VPxSoftBodySimulationDataDesc@2@AEAVTetrahedronMeshData@Gu@2@AEAVSoftBodySimulationData@62@2AEAVSoftBodyCollisionData@62@AEAVCollisionMeshMappingData@62@AEBUPxCookingParams@2@_N@Z 0000000180198690 f   GuCookingTetrahedronMesh.obj
 0001:00197800       ?release@CollisionTetrahedronMeshData@Gu@physx@@UEAAXXZ 0000000180198800 f i GuCookingTetrahedronMesh.obj
 0001:00197820       ?reserveInternal@?$PxHashBase@V?$PxPair@$$CBVSortedTriangleInds@@I@physx@@VSortedTriangleInds@@USortedTriangleIndsHash@@UGetKey@?$PxHashMapBase@VSortedTriangleInds@@IUSortedTriangleIndsHash@@VPxAllocator@physx@@@2@VPxAllocator@2@$00@physx@@AEAAXI@Z 0000000180198820 f i GuCookingTetrahedronMesh.obj
 0001:00197a60       ?saveSoftBodyMeshData@TetrahedronMeshBuilder@physx@@SA_NAEAVPxOutputStream@2@_NAEBUPxCookingParams@2@AEBVTetrahedronMeshData@Gu@2@AEBVSoftBodySimulationData@62@3AEBVSoftBodyCollisionData@62@AEBVCollisionMeshMappingData@62@@Z 0000000180198a60 f   GuCookingTetrahedronMesh.obj
 0001:00198170       ?saveTetrahedronMeshData@TetrahedronMeshBuilder@physx@@SA_NAEAVPxOutputStream@2@_NAEBUPxCookingParams@2@AEBVTetrahedronMeshData@Gu@2@@Z 0000000180199170 f   GuCookingTetrahedronMesh.obj
 0001:00198320       ?smoothMassRatiosWhilePreservingTotalMass@@YAXPEAMIPEBIHMM@Z 0000000180199320 f   GuCookingTetrahedronMesh.obj
 0001:001987c0       ?support@?$LocalConvex@VTetrahedronV@Gu@physx@@@Gu@physx@@UEBA?AT__m128@@AEBT4@@Z 00000001801997c0 f i GuCookingTetrahedronMesh.obj
 0001:00198880       ?support@?$LocalConvex@VTetrahedronV@Gu@physx@@@Gu@physx@@UEBA?AT__m128@@AEBT4@AEAH@Z 0000000180199880 f i GuCookingTetrahedronMesh.obj
 0001:00198a30       assembleSoftBodyMesh       0000000180199a30 f   GuCookingTetrahedronMesh.obj
 0001:00198a90       assembleSoftBodyMesh_Sim   0000000180199a90 f   GuCookingTetrahedronMesh.obj
 0001:00198b40       computeCollisionData       0000000180199b40 f   GuCookingTetrahedronMesh.obj
 0001:00198d50       computeModelsMapping       0000000180199d50 f   GuCookingTetrahedronMesh.obj
 0001:00198e60       computeSimulationData      0000000180199e60 f   GuCookingTetrahedronMesh.obj
 0001:00199060       cookSoftBodyMesh           000000018019a060 f   GuCookingTetrahedronMesh.obj
 0001:00199640       cookTetrahedronMesh        000000018019a640 f   GuCookingTetrahedronMesh.obj
 0001:00199730       createSoftBodyMesh         000000018019a730 f   GuCookingTetrahedronMesh.obj
 0001:00199d90       createTetrahedronMesh      000000018019ad90 f   GuCookingTetrahedronMesh.obj
 0001:0019ba80       ?computeVolumeIntegrals@physx@@YA_NAEBVPxSimpleTriangleMesh@1@MAEAUPxIntegrals@1@@Z 000000018019ca80 f   GuCookingVolumeIntegration.obj
 0001:0019bac0       ?computeVolumeIntegralsEberly@physx@@YA_NAEBVPxConvexMeshDesc@1@MAEAUPxIntegrals@1@AEBV?$PxVec3T@M@1@_N@Z 000000018019cac0 f   GuCookingVolumeIntegration.obj
 0001:0019c120       ??0QuickHull@local@@QEAA@AEBUPxCookingParams@physx@@AEBVPxConvexMeshDesc@3@@Z 000000018019d120 f   GuCookingQuickHullConvexHullLib.obj
 0001:0019c1d0       ??0QuickHullConvexHullLib@physx@@QEAA@AEBVPxConvexMeshDesc@1@AEBUPxCookingParams@1@@Z 000000018019d1d0 f   GuCookingQuickHullConvexHullLib.obj
 0001:0019c2c0       ??1?$MemBlock@UQuickHullFace@local@@$00@local@@QEAA@XZ 000000018019d2c0 f i GuCookingQuickHullConvexHullLib.obj
 0001:0019c2c0       ??1?$MemBlock@UQuickHullHalfEdge@local@@$0A@@local@@QEAA@XZ 000000018019d2c0 f i GuCookingQuickHullConvexHullLib.obj
 0001:0019c380       ??1QuickHull@local@@QEAA@XZ 000000018019d380 f   GuCookingQuickHullConvexHullLib.obj
 0001:0019c4d0       ??_GConvexHull@physx@@QEAAPEAXI@Z 000000018019d4d0 f i GuCookingQuickHullConvexHullLib.obj
 0001:0019c5b0       ??_EConvexHullLib@physx@@UEAAPEAXI@Z 000000018019d5b0 f i GuCookingQuickHullConvexHullLib.obj
 0001:0019c5b0       ??_GConvexHullLib@physx@@UEAAPEAXI@Z 000000018019d5b0 f i GuCookingQuickHullConvexHullLib.obj
 0001:0019c5f0       ??_EQuickHullConvexHullLib@physx@@UEAAPEAXI@Z 000000018019d5f0 f i GuCookingQuickHullConvexHullLib.obj
 0001:0019c5f0       ??_GQuickHullConvexHullLib@physx@@UEAAPEAXI@Z 000000018019d5f0 f i GuCookingQuickHullConvexHullLib.obj
 0001:0019c700       ?addPointToHull@QuickHull@local@@IEAA_NPEBUQuickHullVertex@2@AEAUQuickHullFace@2@AEA_N@Z 000000018019d700 f   GuCookingQuickHullConvexHullLib.obj
 0001:0019c9d0       ?addSimplex@QuickHull@local@@IEAAXPEAUQuickHullVertex@2@_N@Z 000000018019d9d0 f   GuCookingQuickHullConvexHullLib.obj
 0001:0019cea0       ?allocate@?$PxArray@PEAUQuickHullFace@local@@V?$PxReflectionAllocator@PEAUQuickHullFace@local@@@physx@@@physx@@IEAAPEAPEAUQuickHullFace@local@@I@Z 000000018019dea0 f i GuCookingQuickHullConvexHullLib.obj
 0001:0019cf50       ?allocate@?$PxArray@PEAUQuickHullHalfEdge@local@@V?$PxReflectionAllocator@PEAUQuickHullHalfEdge@local@@@physx@@@physx@@IEAAPEAPEAUQuickHullHalfEdge@local@@I@Z 000000018019df50 f i GuCookingQuickHullConvexHullLib.obj
 0001:0019d000       ?allocate@?$PxArray@PEAUQuickHullVertex@local@@V?$PxReflectionAllocator@PEAUQuickHullVertex@local@@@physx@@@physx@@IEAAPEAPEAUQuickHullVertex@local@@I@Z 000000018019e000 f i GuCookingQuickHullConvexHullLib.obj
 0001:0019d0b0       ?allocate@?$PxArray@UExpandPoint@local@@V?$PxReflectionAllocator@UExpandPoint@local@@@physx@@@physx@@IEAAPEAUExpandPoint@local@@I@Z 000000018019e0b0 f i GuCookingQuickHullConvexHullLib.obj
 0001:0019d160       ?allocate@?$PxArray@VPxPlane@physx@@V?$PxReflectionAllocator@VPxPlane@physx@@@2@@physx@@IEAAPEAVPxPlane@2@I@Z 000000018019e160 f i GuCookingQuickHullConvexHullLib.obj
 0001:0019d210       ?buildHull@QuickHull@local@@QEAA?AW4Enum@QuickHullResult@2@XZ 000000018019e210 f   GuCookingQuickHullConvexHullLib.obj
 0001:0019d450       ?calculateHorizon@QuickHull@local@@IEAAXAEBV?$PxVec3T@M@physx@@PEAUQuickHullHalfEdge@2@AEAUQuickHullFace@2@AEAV?$PxArray@PEAUQuickHullHalfEdge@local@@V?$PxReflectionAllocator@PEAUQuickHullHalfEdge@local@@@physx@@@4@AEAV?$PxArray@PEAUQuickHullFace@local@@V?$PxReflectionAllocator@PEAUQuickHullFace@local@@@physx@@@4@@Z 000000018019e450 f   GuCookingQuickHullConvexHullLib.obj
 0001:0019d600       ?canMergeFaces@QuickHull@local@@IEAA_NAEBUQuickHullHalfEdge@2@@Z 000000018019e600 f   GuCookingQuickHullConvexHullLib.obj
 0001:0019de30       ?cleanupForSimplex@QuickHullConvexHullLib@physx@@IEAA_NPEAV?$PxVec3T@M@2@IPEAUQuickHullVertex@local@@1AEAM2@Z 000000018019ee30 f   GuCookingQuickHullConvexHullLib.obj
 0001:0019ea40       ?computeMinMaxVerts@QuickHull@local@@IEAAXXZ 000000018019fa40 f   GuCookingQuickHullConvexHullLib.obj
 0001:0019ee10       ?connectHalfEdges@QuickHullFace@local@@AEAAPEAU12@PEAUQuickHullHalfEdge@2@0@Z 000000018019fe10 f   GuCookingQuickHullConvexHullLib.obj
 0001:0019f180       ?copy@?$PxArray@UExpandPoint@local@@V?$PxReflectionAllocator@UExpandPoint@local@@@physx@@@physx@@KAXPEAUExpandPoint@local@@0PEBU34@@Z 00000001801a0180 f i GuCookingQuickHullConvexHullLib.obj
 0001:0019f230       ?copy@?$PxArray@VPxPlane@physx@@V?$PxReflectionAllocator@VPxPlane@physx@@@2@@physx@@KAXPEAVPxPlane@2@0PEBV32@@Z 00000001801a0230 f i GuCookingQuickHullConvexHullLib.obj
 0001:0019f330       ?createConvexHull@QuickHullConvexHullLib@physx@@UEAA?AW4Enum@PxConvexMeshCookingResult@2@XZ 00000001801a0330 f   GuCookingQuickHullConvexHullLib.obj
 0001:0019f720       ?createEdgeList@QuickHullConvexHullLib@physx@@UEAA_NIPEBEPEAPEAEPEAPEAG2@Z 00000001801a0720 f   GuCookingQuickHullConvexHullLib.obj
 0001:0019f940       ?createTriangle@QuickHull@local@@IEAAPEAUQuickHullFace@2@AEBUQuickHullVertex@2@00@Z 00000001801a0940 f   GuCookingQuickHullConvexHullLib.obj
 0001:0019fd20       ?doAdjacentMerge@QuickHull@local@@IEAA_NAEAUQuickHullFace@2@_NAEA_N@Z 00000001801a0d20 f   GuCookingQuickHullConvexHullLib.obj
 0001:001a0070       ?expandHull@QuickHullConvexHullLib@physx@@IEAA?AW4Enum@PxConvexMeshCookingResult@2@XZ 00000001801a1070 f   GuCookingQuickHullConvexHullLib.obj
 0001:001a09a0       ?expandHullOBB@QuickHullConvexHullLib@physx@@IEAA?AW4Enum@PxConvexMeshCookingResult@2@XZ 00000001801a19a0 f   GuCookingQuickHullConvexHullLib.obj
 0001:001a0dd0       ?fillConvexMeshDesc@QuickHullConvexHullLib@physx@@UEAAXAEAVPxConvexMeshDesc@2@@Z 00000001801a1dd0 f   GuCookingQuickHullConvexHullLib.obj
 0001:001a0e20       ?fillConvexMeshDescFromCroppedHull@QuickHullConvexHullLib@physx@@IEAAXAEAVPxConvexMeshDesc@2@@Z 00000001801a1e20 f   GuCookingQuickHullConvexHullLib.obj
 0001:001a1010       ?fillConvexMeshDescFromQuickHull@QuickHullConvexHullLib@physx@@IEAAXAEAVPxConvexMeshDesc@2@@Z 00000001801a2010 f   GuCookingQuickHullConvexHullLib.obj
 0001:001a1380       ?findSimplex@QuickHull@local@@IEAA_NXZ 00000001801a2380 f   GuCookingQuickHullConvexHullLib.obj
 0001:001a2000       ?getFreeItem@?$MemBlock@UQuickHullFace@local@@$00@local@@QEAAPEAUQuickHullFace@2@XZ 00000001801a3000 f i GuCookingQuickHullConvexHullLib.obj
 0001:001a2130       ?getFreeItem@?$MemBlock@UQuickHullHalfEdge@local@@$0A@@local@@QEAAPEAUQuickHullHalfEdge@2@XZ 00000001801a3130 f i GuCookingQuickHullConvexHullLib.obj
 0001:001a2200       ?growAndPushBack@?$PxArray@PEAUQuickHullFace@local@@V?$PxReflectionAllocator@PEAUQuickHullFace@local@@@physx@@@physx@@IEAAAEAPEAUQuickHullFace@local@@AEBQEAU34@@Z 00000001801a3200 f i GuCookingQuickHullConvexHullLib.obj
 0001:001a22c0       ?growAndPushBack@?$PxArray@PEAUQuickHullHalfEdge@local@@V?$PxReflectionAllocator@PEAUQuickHullHalfEdge@local@@@physx@@@physx@@IEAAAEAPEAUQuickHullHalfEdge@local@@AEBQEAU34@@Z 00000001801a32c0 f i GuCookingQuickHullConvexHullLib.obj
 0001:001a2380       ?growAndPushBack@?$PxArray@PEAUQuickHullVertex@local@@V?$PxReflectionAllocator@PEAUQuickHullVertex@local@@@physx@@@physx@@IEAAAEAPEAUQuickHullVertex@local@@AEBQEAU34@@Z 00000001801a3380 f i GuCookingQuickHullConvexHullLib.obj
 0001:001a2440       ?growAndPushBack@?$PxArray@UExpandPoint@local@@V?$PxReflectionAllocator@UExpandPoint@local@@@physx@@@physx@@IEAAAEAUExpandPoint@local@@AEBU34@@Z 00000001801a3440 f i GuCookingQuickHullConvexHullLib.obj
 0001:001a2540       ?growAndPushBack@?$PxArray@VPxPlane@physx@@V?$PxReflectionAllocator@VPxPlane@physx@@@2@@physx@@IEAAAEAVPxPlane@2@AEBV32@@Z 00000001801a3540 f i GuCookingQuickHullConvexHullLib.obj
 0001:001a2600       ?init@?$MemBlock@UQuickHullFace@local@@$00@local@@QEAAXI@Z 00000001801a3600 f i GuCookingQuickHullConvexHullLib.obj
 0001:001a2700       ?init@?$MemBlock@UQuickHullHalfEdge@local@@$0A@@local@@QEAAXI@Z 00000001801a3700 f i GuCookingQuickHullConvexHullLib.obj
 0001:001a2790       ?mergeAdjacentFace@QuickHullFace@local@@QEAA_NPEAUQuickHullHalfEdge@2@AEAV?$PxArray@PEAUQuickHullFace@local@@V?$PxReflectionAllocator@PEAUQuickHullFace@local@@@physx@@@physx@@@Z 00000001801a3790 f   GuCookingQuickHullConvexHullLib.obj
 0001:001a2be0       ?nextPointToAdd@QuickHull@local@@IEAAPEAUQuickHullVertex@2@AEAPEAUQuickHullFace@2@@Z 00000001801a3be0 f   GuCookingQuickHullConvexHullLib.obj
 0001:001a2d60       ?parseInputVertices@QuickHull@local@@QEAAXPEBV?$PxVec3T@M@physx@@I@Z 00000001801a3d60 f   GuCookingQuickHullConvexHullLib.obj
 0001:001a2ee0       ?postMergeHull@QuickHull@local@@IEAAXXZ 00000001801a3ee0 f   GuCookingQuickHullConvexHullLib.obj
 0001:001a3140       ?preallocate@QuickHull@local@@QEAAXI@Z 00000001801a4140 f   GuCookingQuickHullConvexHullLib.obj
 0001:001a3280       ?recreate@?$PxArray@PEAUQuickHullFace@local@@V?$PxReflectionAllocator@PEAUQuickHullFace@local@@@physx@@@physx@@IEAAXI@Z 00000001801a4280 f i GuCookingQuickHullConvexHullLib.obj
 0001:001a3320       ?recreate@?$PxArray@PEAUQuickHullHalfEdge@local@@V?$PxReflectionAllocator@PEAUQuickHullHalfEdge@local@@@physx@@@physx@@IEAAXI@Z 00000001801a4320 f i GuCookingQuickHullConvexHullLib.obj
 0001:001a33c0       ?recreate@?$PxArray@PEAUQuickHullVertex@local@@V?$PxReflectionAllocator@PEAUQuickHullVertex@local@@@physx@@@physx@@IEAAXI@Z 00000001801a43c0 f i GuCookingQuickHullConvexHullLib.obj
 0001:001a3460       ?recreate@?$PxArray@UExpandPoint@local@@V?$PxReflectionAllocator@UExpandPoint@local@@@physx@@@physx@@IEAAXI@Z 00000001801a4460 f i GuCookingQuickHullConvexHullLib.obj
 0001:001a34f0       ?recreate@?$PxArray@VPxPlane@physx@@V?$PxReflectionAllocator@VPxPlane@physx@@@2@@physx@@IEAAXI@Z 00000001801a44f0 f i GuCookingQuickHullConvexHullLib.obj
 0001:001a3580       ?resolveUnclaimedPoints@QuickHull@local@@IEAAXAEBV?$PxArray@PEAUQuickHullFace@local@@V?$PxReflectionAllocator@PEAUQuickHullFace@local@@@physx@@@physx@@@Z 00000001801a4580 f   GuCookingQuickHullConvexHullLib.obj
 0001:001a3800       ??$copy@V?$PxReflectionAllocator@VPair@@@physx@@@?$PxArray@VPair@@V?$PxReflectionAllocator@VPair@@@physx@@@physx@@IEAAXAEBV01@@Z 00000001801a4800 f i GuCookingConvexPolygonsBuilder.obj
 0001:001a3880       ??0ConvexPolygonsBuilder@physx@@QEAA@PEAUConvexHullData@Gu@1@_N@Z 00000001801a4880 f   GuCookingConvexPolygonsBuilder.obj
 0001:001a38a0       ??1ConvexPolygonsBuilder@physx@@QEAA@XZ 00000001801a48a0 f   GuCookingConvexPolygonsBuilder.obj
 0001:001a40f0       ?allocate@?$PxArray@VPair@@V?$PxReflectionAllocator@VPair@@@physx@@@physx@@IEAAPEAVPair@@I@Z 00000001801a50f0 f i GuCookingConvexPolygonsBuilder.obj
 0001:001a4be0       ?computeHullPolygons@ConvexPolygonsBuilder@physx@@QEAA_NAEBIPEBV?$PxVec3T@M@2@0PEBI@Z 00000001801a5be0 f   GuCookingConvexPolygonsBuilder.obj
 0001:001a5ea0       ?createPolygonData@ConvexPolygonsBuilder@physx@@AEAA_NXZ 00000001801a6ea0 f   GuCookingConvexPolygonsBuilder.obj
 0001:001a68d0       ?createTrianglesFromPolygons@ConvexPolygonsBuilder@physx@@AEAA_NXZ 00000001801a78d0 f   GuCookingConvexPolygonsBuilder.obj
 0001:001a7f40       ?growAndPushBack@?$PxArray@VPair@@V?$PxReflectionAllocator@VPair@@@physx@@@physx@@IEAAAEAVPair@@AEBV3@@Z 00000001801a8f40 f i GuCookingConvexPolygonsBuilder.obj
 0001:001a80d0       ??0ConvexMeshBuilder@physx@@QEAA@_N@Z 00000001801a90d0 f   GuCookingConvexMeshBuilder.obj
 0001:001a8140       ??1ConvexMeshBuilder@physx@@QEAA@XZ 00000001801a9140 f   GuCookingConvexMeshBuilder.obj
 0001:001a85d0       ?build@ConvexMeshBuilder@physx@@QEAA_NAEBVPxConvexMeshDesc@2@I_NPEAVConvexHullLib@2@@Z 00000001801a95d0 f   GuCookingConvexMeshBuilder.obj
 0001:001a8970       ?computeHullPolygons@ConvexMeshBuilder@physx@@QEAA_NAEBIPEBV?$PxVec3T@M@2@0PEBIAEAVPxAllocatorCallback@2@AEAIAEAPEAV32@4AEAPEAI4AEAPEAUPxHullPolygon@2@@Z 00000001801a9970 f   GuCookingConvexMeshBuilder.obj
 0001:001a8b80       ?computeMassInfo@ConvexMeshBuilder@physx@@QEAAX_N@Z 00000001801a9b80 f   GuCookingConvexMeshBuilder.obj
 0001:001a8f10       ?computeSDF@ConvexMeshBuilder@physx@@QEAAXAEBVPxConvexMeshDesc@2@@Z 00000001801a9f10 f   GuCookingConvexMeshBuilder.obj
 0001:001a9330       ?copy@ConvexMeshBuilder@physx@@QEAA_NAEAUConvexHullInitData@Gu@2@@Z 00000001801aa330 f   GuCookingConvexMeshBuilder.obj
 0001:001a9490       ?loadConvexHull@ConvexMeshBuilder@physx@@QEAA_NAEBVPxConvexMeshDesc@2@PEAVConvexHullLib@2@@Z 00000001801aa490 f   GuCookingConvexMeshBuilder.obj
 0001:001a96e0       ?save@ConvexMeshBuilder@physx@@QEBA_NAEAVPxOutputStream@2@_N@Z 00000001801aa6e0 f   GuCookingConvexMeshBuilder.obj
 0001:001a9b00       ??0ConvexHull@physx@@QEAA@AEBV?$PxVec3T@M@1@AEBV?$PxTransformT@M@1@AEBV?$PxArray@VPxPlane@physx@@V?$PxReflectionAllocator@VPxPlane@physx@@@2@@1@@Z 00000001801aab00 f   GuCookingConvexHullUtils.obj
 0001:001aac20       ?allocate@?$PxArray@VHalfEdge@ConvexHull@physx@@V?$PxReflectionAllocator@VHalfEdge@ConvexHull@physx@@@3@@physx@@IEAAPEAVHalfEdge@ConvexHull@2@I@Z 00000001801abc20 f i GuCookingConvexHullUtils.obj
 0001:001aacd0       ?assertIntact@ConvexHull@physx@@QEBA_NM@Z 00000001801abcd0 f   GuCookingConvexHullUtils.obj
 0001:001aaff0       ?computeOBBFromConvex@physx@@YA_NAEBVPxConvexMeshDesc@1@AEAV?$PxVec3T@M@1@AEAV?$PxTransformT@M@1@@Z 00000001801abff0 f   GuCookingConvexHullUtils.obj
 0001:001ab640       ?computeOBBSIMD@local@@YAXIPEBT__m128@@AEAT2@AEBT2@1@Z 00000001801ac640 f   GuCookingConvexHullUtils.obj
 0001:001ab9f0       ?convexHullCrop@physx@@YAPEAVConvexHull@1@AEBV21@AEBVPxPlane@1@M@Z 00000001801ac9f0 f   GuCookingConvexHullUtils.obj
 0001:001ac7f0       ?findCandidatePlane@ConvexHull@physx@@QEBAHMM@Z 00000001801ad7f0 f   GuCookingConvexHullUtils.obj
 0001:001acc40       ?growAndPushBack@?$PxArray@VHalfEdge@ConvexHull@physx@@V?$PxReflectionAllocator@VHalfEdge@ConvexHull@physx@@@3@@physx@@IEAAAEAVHalfEdge@ConvexHull@2@AEBV342@@Z 00000001801adc40 f i GuCookingConvexHullUtils.obj
 0001:001acd00       ?maxNumVertsPerFace@ConvexHull@physx@@QEBAIXZ 00000001801add00 f   GuCookingConvexHullUtils.obj
 0001:001acd70       ?recreate@?$PxArray@VHalfEdge@ConvexHull@physx@@V?$PxReflectionAllocator@VHalfEdge@ConvexHull@physx@@@3@@physx@@IEAAXI@Z 00000001801add70 f i GuCookingConvexHullUtils.obj
 0001:001ace10       ?resize@?$PxArray@VHalfEdge@ConvexHull@physx@@V?$PxReflectionAllocator@VHalfEdge@ConvexHull@physx@@@3@@physx@@QEAAXIAEBVHalfEdge@ConvexHull@2@@Z 00000001801ade10 f i GuCookingConvexHullUtils.obj
 0001:001aced0       ?resize@?$PxArray@VPxPlane@physx@@V?$PxReflectionAllocator@VPxPlane@physx@@@2@@physx@@QEAAXIAEBVPxPlane@2@@Z 00000001801aded0 f i GuCookingConvexHullUtils.obj
 0001:001acff0       ??1ConvexHullLib@physx@@UEAA@XZ 00000001801adff0 f   GuCookingConvexHullLib.obj
 0001:001ad5e0       ?cleanupVertices@ConvexHullLib@physx@@IEAA_NIPEBV?$PxVec3T@M@2@IAEAIPEAV32@@Z 00000001801ae5e0 f   GuCookingConvexHullLib.obj
 0001:001ad720       ?shiftAndcleanupVertices@ConvexHullLib@physx@@IEAA_NIPEBV?$PxVec3T@M@2@IAEAIPEAV32@@Z 00000001801ae720 f   GuCookingConvexHullLib.obj
 0001:001add00       ?shiftConvexMeshDesc@ConvexHullLib@physx@@IEAAXAEAVPxConvexMeshDesc@2@@Z 00000001801aed00 f   GuCookingConvexHullLib.obj
 0001:001addc0       ?swapLargestFace@ConvexHullLib@physx@@IEAAXAEAVPxConvexMeshDesc@2@@Z 00000001801aedc0 f   GuCookingConvexHullLib.obj
 0001:001adff0       ??0ConvexHullBuilder@physx@@QEAA@PEAUConvexHullData@Gu@1@_N@Z 00000001801aeff0 f   GuCookingConvexHullBuilder.obj
 0001:001ae020       ??1ConvexHullBuilder@physx@@QEAA@XZ 00000001801af020 f   GuCookingConvexHullBuilder.obj
 0001:001ae130       ?calculateVertexMapTable@ConvexHullBuilder@physx@@QEAA_NI_N@Z 00000001801af130 f   GuCookingConvexHullBuilder.obj
 0001:001ae2f0       ?checkHullPolygons@ConvexHullBuilder@physx@@QEBA_NXZ 00000001801af2f0 f   GuCookingConvexHullBuilder.obj
 0001:001ae8b0       ?copy@ConvexHullBuilder@physx@@QEAA_NAEAUConvexHullData@Gu@2@AEAI@Z 00000001801af8b0 f   GuCookingConvexHullBuilder.obj
 0001:001aeb20       ?createEdgeList@ConvexHullBuilder@physx@@QEAA_N_NI@Z 00000001801afb20 f   GuCookingConvexHullBuilder.obj
 0001:001af260       ?init@ConvexHullBuilder@physx@@QEAA_NIPEBV?$PxVec3T@M@2@PEBIIIPEBUPxHullPolygon@2@_NPEAVConvexHullLib@2@@Z 00000001801b0260 f   GuCookingConvexHullBuilder.obj
 0001:001afb90       ?save@ConvexHullBuilder@physx@@QEBA_NAEAVPxOutputStream@2@_N@Z 00000001801b0b90 f   GuCookingConvexHullBuilder.obj
 0001:001afeb0       ??0BigConvexDataBuilder@physx@@QEAA@PEBUConvexHullData@Gu@1@PEAVBigConvexData@1@PEBV?$PxVec3T@M@1@@Z 00000001801b0eb0 f   GuCookingBigConvexDataBuilder.obj
 0001:001afec0       ?computeValencies@BigConvexDataBuilder@physx@@QEAA_NAEBVConvexHullBuilder@2@@Z 00000001801b0ec0 f   GuCookingBigConvexDataBuilder.obj
 0001:001b02b0       ?precompute@BigConvexDataBuilder@physx@@QEAA_NI@Z 00000001801b12b0 f   GuCookingBigConvexDataBuilder.obj
 0001:001b0ea0       ?save@BigConvexDataBuilder@physx@@QEBA_NAEAVPxOutputStream@2@_N@Z 00000001801b1ea0 f   GuCookingBigConvexDataBuilder.obj
 0001:001b108c       __imp_load_PxGetFoundation 00000001801b208c f   PhysXFoundation_64:PhysXFoundation_64.dll
 0001:001b1098       __tailMerge_physxfoundation_64_dll 00000001801b2098     PhysXFoundation_64:PhysXFoundation_64.dll
 0001:001b1111       __imp_load_PxGetBroadcastAllocator 00000001801b2111 f   PhysXFoundation_64:PhysXFoundation_64.dll
 0001:001b111d       __imp_load_?PxAtomicIncrement@physx@@YAHPECH@Z 00000001801b211d f   PhysXFoundation_64:PhysXFoundation_64.dll
 0001:001b1129       __imp_load_??0PxMutexImpl@physx@@QEAA@XZ 00000001801b2129 f   PhysXFoundation_64:PhysXFoundation_64.dll
 0001:001b1135       __imp_load_??1PxMutexImpl@physx@@QEAA@XZ 00000001801b2135 f   PhysXFoundation_64:PhysXFoundation_64.dll
 0001:001b1141       __imp_load_?lock@PxMutexImpl@physx@@QEAAXXZ 00000001801b2141 f   PhysXFoundation_64:PhysXFoundation_64.dll
 0001:001b114d       __imp_load_?unlock@PxMutexImpl@physx@@QEAAXXZ 00000001801b214d f   PhysXFoundation_64:PhysXFoundation_64.dll
 0001:001b1159       __imp_load_?getSize@PxMutexImpl@physx@@SAIXZ 00000001801b2159 f   PhysXFoundation_64:PhysXFoundation_64.dll
 0001:001b1165       __imp_load_?PxAtomicDecrement@physx@@YAHPECH@Z 00000001801b2165 f   PhysXFoundation_64:PhysXFoundation_64.dll
 0001:001b1171       __imp_load_?PxTransformFromSegment@physx@@YA?AV?$PxTransformT@M@1@AEBV?$PxVec3T@M@1@0PEAM@Z 00000001801b2171 f   PhysXFoundation_64:PhysXFoundation_64.dll
 0001:001b117d       __imp_load_?PxAtomicAdd@physx@@YAHPECHH@Z 00000001801b217d f   PhysXFoundation_64:PhysXFoundation_64.dll
 0001:001b1189       __imp_load_?getDefaultStackSize@PxThreadImpl@physx@@SAIXZ 00000001801b2189 f   PhysXFoundation_64:PhysXFoundation_64.dll
 0001:001b1195       __imp_load_??0PxThreadImpl@physx@@QEAA@P6APEAXPEAX@Z0PEBD@Z 00000001801b2195 f   PhysXFoundation_64:PhysXFoundation_64.dll
 0001:001b11a1       __imp_load_??1PxThreadImpl@physx@@QEAA@XZ 00000001801b21a1 f   PhysXFoundation_64:PhysXFoundation_64.dll
 0001:001b11ad       __imp_load_?start@PxThreadImpl@physx@@QEAAXIPEAVPxRunnable@2@@Z 00000001801b21ad f   PhysXFoundation_64:PhysXFoundation_64.dll
 0001:001b11b9       __imp_load_?waitForQuit@PxThreadImpl@physx@@QEAA_NXZ 00000001801b21b9 f   PhysXFoundation_64:PhysXFoundation_64.dll
 0001:001b11c5       __imp_load_?getSize@PxThreadImpl@physx@@SAIXZ 00000001801b21c5 f   PhysXFoundation_64:PhysXFoundation_64.dll
 0001:001b11d1       __imp_load_?PxOptimizeBoundingBox@physx@@YA?AV?$PxVec3T@M@1@AEAV?$PxMat33T@M@1@@Z 00000001801b21d1 f   PhysXFoundation_64:PhysXFoundation_64.dll
 0001:001b11dd       __imp_load_?allocate@PxTempAllocator@physx@@QEAAPEAX_KPEBDH@Z 00000001801b21dd f   PhysXFoundation_64:PhysXFoundation_64.dll
 0001:001b11e9       __imp_load_?deallocate@PxTempAllocator@physx@@QEAAXPEAX@Z 00000001801b21e9 f   PhysXFoundation_64:PhysXFoundation_64.dll
 0001:001b11f5       __imp_load_PxGetProfilerCallback 00000001801b21f5 f   PhysXFoundation_64:PhysXFoundation_64.dll
 0001:001b1201       __imp_load_??0PxFPUGuard@physx@@QEAA@XZ 00000001801b2201 f   PhysXFoundation_64:PhysXFoundation_64.dll
 0001:001b120d       __imp_load_??1PxFPUGuard@physx@@QEAA@XZ 00000001801b220d f   PhysXFoundation_64:PhysXFoundation_64.dll
 0001:001b1219       __imp_load_?PxDiagonalize@physx@@YA?AV?$PxVec3T@M@1@AEBV?$PxMat33T@M@1@AEAV?$PxQuatT@M@1@@Z 00000001801b2219 f   PhysXFoundation_64:PhysXFoundation_64.dll
 0001:001b1228       ?DloadAcquireSectionWriteAccess@@YAXXZ 00000001801b2228 f i Delayimp:delayhlp.obj
 0001:001b12d4       ?DloadGetSRWLockFunctionPointers@@YAEXZ 00000001801b22d4 f i Delayimp:delayhlp.obj
 0001:001b1374       ?DloadMakePermanentImageCommit@@YAXPEAX_K@Z 00000001801b2374 f i Delayimp:delayhlp.obj
 0001:001b140c       ?DloadObtainSection@@YAPEAXPEAK0@Z 00000001801b240c f i Delayimp:delayhlp.obj
 0001:001b14a8       ?DloadProtectSection@@YAXKPEAK@Z 00000001801b24a8 f i Delayimp:delayhlp.obj
 0001:001b1538       ?DloadReleaseSectionWriteAccess@@YAXXZ 00000001801b2538 f i Delayimp:delayhlp.obj
 0001:001b15cc       __delayLoadHelper2         00000001801b25cc f   Delayimp:delayhlp.obj
 0001:001b18a4       ??3@YAXPEAX_K@Z            00000001801b28a4 f   LIBCMT:delete_scalar_size.obj
 0001:001b18a4       ??_V@YAXPEAX@Z             00000001801b28a4 f   LIBCMT:delete_array.obj
 0001:001b18ac       ??_Etype_info@@UEAAPEAXI@Z 00000001801b28ac f i LIBCMT:std_type_info_static.obj
 0001:001b18ac       ??_Gtype_info@@UEAAPEAXI@Z 00000001801b28ac f i LIBCMT:std_type_info_static.obj
 0001:001b18d8       ?__scrt_initialize_type_info@@YAXXZ 00000001801b28d8 f   LIBCMT:tncleanup.obj
 0001:001b18e8       ?__scrt_uninitialize_type_info@@YAXXZ 00000001801b28e8 f   LIBCMT:tncleanup.obj
 0001:001b1910       __chkstk                   00000001801b2910 f   LIBCMT:chkstk.obj
 0001:001b1910       _alloca_probe              00000001801b2910 f   LIBCMT:chkstk.obj
 0001:001b1960       __vdecl_sinf4              00000001801b2960 f   LIBCMT:svml_ssinf4_dispatch.obj
 0001:001b1980       __libm_sse2_sincosf_       00000001801b2980 f   LIBCMT:svml_ssinf4_dispatch.obj
 0001:001b19c3       __libm_sse2_sincosf4_      00000001801b29c3 f   LIBCMT:svml_ssinf4_dispatch.obj
 0001:001b19d0       ??3@YAXPEAX@Z              00000001801b29d0 f   LIBCMT:delete_scalar.obj
 0001:001b19d8       __scrt_acquire_startup_lock 00000001801b29d8 f   LIBCMT:utility.obj
 0001:001b1a14       __scrt_dllmain_after_initialize_c 00000001801b2a14 f   LIBCMT:utility.obj
 0001:001b1a48       __scrt_dllmain_before_initialize_c 00000001801b2a48 f   LIBCMT:utility.obj
 0001:001b1a60       __scrt_dllmain_crt_thread_attach 00000001801b2a60 f   LIBCMT:utility.obj
 0001:001b1a88       __scrt_dllmain_crt_thread_detach 00000001801b2a88 f   LIBCMT:utility.obj
 0001:001b1aa0       __scrt_dllmain_exception_filter 00000001801b2aa0 f   LIBCMT:utility.obj
 0001:001b1b00       __scrt_dllmain_uninitialize_c 00000001801b2b00 f   LIBCMT:utility.obj
 0001:001b1b30       __scrt_dllmain_uninitialize_critical 00000001801b2b30 f   LIBCMT:utility.obj
 0001:001b1b44       __scrt_initialize_crt      00000001801b2b44 f   LIBCMT:utility.obj
 0001:001b1b90       __scrt_initialize_onexit_tables 00000001801b2b90 f   LIBCMT:utility.obj
 0001:001b1c1c       __scrt_is_nonwritable_in_current_image 00000001801b2c1c f   LIBCMT:utility.obj
 0001:001b1cb4       __scrt_release_startup_lock 00000001801b2cb4 f   LIBCMT:utility.obj
 0001:001b1cd8       __scrt_uninitialize_crt    00000001801b2cd8 f   LIBCMT:utility.obj
 0001:001b1d04       _onexit                    00000001801b2d04 f   LIBCMT:utility.obj
 0001:001b1d40       atexit                     00000001801b2d40 f   LIBCMT:utility.obj
 0001:001b2078       _DllMainCRTStartup         00000001801b3078 f   LIBCMT:dll_dllmain.obj
 0001:001b20b8       __isa_available_init       00000001801b30b8 f   LIBCMT:cpu_disp.obj
 0001:001b2270       __sse2_sinf4@@16           00000001801b3270 f   LIBCMT:svml_ssinf4_sse2.obj
 0001:001b2bb0       __sse4_sinf4@@16           00000001801b3bb0 f   LIBCMT:svml_ssinf4_sse4.obj
 0001:001b3324       __scrt_is_ucrt_dll_in_use  00000001801b4324 f   LIBCMT:ucrt_detection.obj
 0001:001b3330       __crt_debugger_hook        00000001801b4330 f   LIBCMT:utility_desktop.obj
 0001:001b3338       __scrt_fastfail            00000001801b4338 f   LIBCMT:utility_desktop.obj
 0001:001b3484       __security_init_cookie     00000001801b4484 f   LIBCMT:gs_support.obj
 0001:001b3530       __local_stdio_scanf_options 00000001801b4530 f i LIBCMT:default_local_stdio_options.obj
 0001:001b3538       __scrt_initialize_default_local_stdio_options 00000001801b4538 f   LIBCMT:default_local_stdio_options.obj
 0001:001b3554       __scrt_get_dyn_tls_init_callback 00000001801b4554 f   LIBCMT:dyn_tls_init.obj
 0001:001b355c       _RTC_Initialize            00000001801b455c f   LIBCMT:initsect.obj
 0001:001b3598       _RTC_Terminate             00000001801b4598 f   LIBCMT:initsect.obj
 0001:001b35e0       __common_ssin_cout_rare    00000001801b45e0 f   LIBCMT:svml_s_sin_cout.obj
 0001:001b3660       memcpy_repmovs             00000001801b4660 f   libvcruntime:memcpy.obj
 0001:001b3680       memcpy                     00000001801b4680 f   libvcruntime:memcpy.obj
 0001:001b3680       memmove                    00000001801b4680 f   libvcruntime:memcpy.obj
 0001:001b3cf8       _get_purecall_handler      00000001801b4cf8 f   libvcruntime:purevirt.obj
 0001:001b3d04       _purecall                  00000001801b4d04 f   libvcruntime:purevirt.obj
 0001:001b3d28       __std_type_info_compare    00000001801b4d28 f   libvcruntime:std_type_info.obj
 0001:001b3d50       __std_type_info_destroy_list 00000001801b4d50 f   libvcruntime:std_type_info.obj
 0001:001b3d7c       __std_type_info_name       00000001801b4d7c f   libvcruntime:std_type_info.obj
 0001:001b3eb0       memset_repstos             00000001801b4eb0 f   libvcruntime:memset.obj
 0001:001b3ed0       memset                     00000001801b4ed0 f   libvcruntime:memset.obj
 0001:001b4258       strstr                     00000001801b5258 f   libvcruntime:strstr.obj
 0001:001b4450       __vcrt_initialize          00000001801b5450 f   libvcruntime:initialization.obj
 0001:001b4478       __vcrt_thread_attach       00000001801b5478 f   libvcruntime:initialization.obj
 0001:001b448c       __vcrt_thread_detach       00000001801b548c f   libvcruntime:initialization.obj
 0001:001b44a0       __vcrt_uninitialize        00000001801b54a0 f   libvcruntime:initialization.obj
 0001:001b44bc       __vcrt_uninitialize_critical 00000001801b54bc f   libvcruntime:initialization.obj
 0001:001b44cc       __C_specific_handler       00000001801b54cc f   libvcruntime:riscchandler.obj
 0001:001b46c4       __DestructExceptionObject  00000001801b56c4 f   libvcruntime:ehhelpers.obj
 0001:001b4734       ?_CallMemberFunction0@@YAXQEAX0@Z 00000001801b5734 f i libvcruntime:ehhelpers.obj
 0001:001b4738       _IsExceptionObjectToBeDestroyed 00000001801b5738 f   libvcruntime:ehhelpers.obj
 0001:001b4768       __AdjustPointer            00000001801b5768 f   libvcruntime:ehhelpers.obj
 0001:001b478c       __FrameUnwindFilter        00000001801b578c f   libvcruntime:ehhelpers.obj
 0001:001b47f4       ??$?0$00@DName@@QEAA@PEBDU?$StringLifeSelector@$00@@@Z 00000001801b57f4 f i libvcruntime:undname.obj
 0001:001b4834       ??$?0$01@DName@@QEAA@PEBDU?$StringLifeSelector@$01@@@Z 00000001801b5834 f i libvcruntime:undname.obj
 0001:001b4834       ??$?0$0A@@DName@@QEAA@PEBDU?$StringLifeSelector@$0A@@@@Z 00000001801b5834 f i libvcruntime:undname.obj
 0001:001b4874       ??$?0$01@pcharNode@@QEAA@PEBDHU?$StringLifeSelector@$01@@@Z 00000001801b5874 f i libvcruntime:undname.obj
 0001:001b4874       ??$?0$0A@@pcharNode@@QEAA@PEBDHU?$StringLifeSelector@$0A@@@@Z 00000001801b5874 f i libvcruntime:undname.obj
 0001:001b48e8       ??$append@VDNameNode@@@DName@@AEAAXPEBVDNameNode@@@Z 00000001801b58e8 f i libvcruntime:undname.obj
 0001:001b48e8       ??$append@VDNameStatusNode@@@DName@@AEAAXPEBVDNameStatusNode@@@Z 00000001801b58e8 f i libvcruntime:undname.obj
 0001:001b48e8       ??$append@VcharNode@@@DName@@AEAAXPEBVcharNode@@@Z 00000001801b58e8 f i libvcruntime:undname.obj
 0001:001b48e8       ??$append@VpcharNode@@@DName@@AEAAXPEBVpcharNode@@@Z 00000001801b58e8 f i libvcruntime:undname.obj
 0001:001b494c       ??$doPchar@$00@DName@@AEAAXPEBDH@Z 00000001801b594c f i libvcruntime:undname.obj
 0001:001b49f0       ??$doPchar@$01@DName@@AEAAXPEBDH@Z 00000001801b59f0 f i libvcruntime:undname.obj
 0001:001b49f0       ??$doPchar@$0A@@DName@@AEAAXPEBDH@Z 00000001801b59f0 f i libvcruntime:undname.obj
 0001:001b4a88       ??0DName@@QEAA@AEAPEBDD@Z  00000001801b5a88 f   libvcruntime:undname.obj
 0001:001b4b38       ??0DName@@QEAA@AEBUStringLiteral@@@Z 00000001801b5b38 f   libvcruntime:undname.obj
 0001:001b4b64       ??0DName@@QEAA@PEAV0@@Z    00000001801b5b64 f   libvcruntime:undname.obj
 0001:001b4be8       ??0DName@@QEAA@_J@Z        00000001801b5be8 f   libvcruntime:undname.obj
 0001:001b4c90       ??0DName@@QEAA@_K@Z        00000001801b5c90 f   libvcruntime:undname.obj
 0001:001b4d20       ??2@YAPEAX_KAEAV_HeapManager@@H@Z 00000001801b5d20 f   libvcruntime:undname.obj
 0001:001b4d4c       ??4DName@@QEAAAEAV0@W4DNameStatus@@@Z 00000001801b5d4c f   libvcruntime:undname.obj
 0001:001b4d7c       ??AReplicator@@QEBA?AVDName@@H@Z 00000001801b5d7c f   libvcruntime:undname.obj
 0001:001b4dbc       ??HDName@@QEBA?AV0@AEBUStringLiteral@@@Z 00000001801b5dbc f   libvcruntime:undname.obj
 0001:001b4de8       ??HDName@@QEBA?AV0@AEBV0@@Z 00000001801b5de8 f   libvcruntime:undname.obj
 0001:001b4e14       ??HDName@@QEBA?AV0@D@Z     00000001801b5e14 f   libvcruntime:undname.obj
 0001:001b4e40       ??HDName@@QEBA?AV0@W4DNameStatus@@@Z 00000001801b5e40 f   libvcruntime:undname.obj
 0001:001b4e6c       ??YDName@@QEAAAEAV0@AEBUStringLiteral@@@Z 00000001801b5e6c f   libvcruntime:undname.obj
 0001:001b4eec       ??YDName@@QEAAAEAV0@AEBV0@@Z 00000001801b5eec f   libvcruntime:undname.obj
 0001:001b4f44       ??YDName@@QEAAAEAV0@D@Z    00000001801b5f44 f   libvcruntime:undname.obj
 0001:001b4fb0       ??YDName@@QEAAAEAV0@W4DNameStatus@@@Z 00000001801b5fb0 f   libvcruntime:undname.obj
 0001:001b5008       ??YReplicator@@QEAAAEAV0@AEBVDName@@@Z 00000001801b6008 f   libvcruntime:undname.obj
 0001:001b5060       ?UScore@UnDecorator@@SA?AUStringLiteral@@W4Tokens@@@Z 00000001801b6060 f   libvcruntime:undname.obj
 0001:001b50ac       ?composeDeclaration@UnDecorator@@CA?AVDName@@AEBV2@@Z 00000001801b60ac f i libvcruntime:undname.obj
 0001:001b5fa0       ?doPchar@DName@@AEAAXD@Z   00000001801b6fa0 f   libvcruntime:undname.obj
 0001:001b5ff0       ?getAddressOf@UnDecorator@@CA?AVDName@@XZ 00000001801b6ff0 f   libvcruntime:undname.obj
 0001:001b6080       ?getArgumentList@UnDecorator@@CA?AVDName@@XZ 00000001801b7080 f   libvcruntime:undname.obj
 0001:001b6234       ?getArgumentTypes@UnDecorator@@CA?AVDName@@XZ 00000001801b7234 f   libvcruntime:undname.obj
 0001:001b6380       ?getArrayAccess@UnDecorator@@CA?AVDName@@XZ 00000001801b7380 f   libvcruntime:undname.obj
 0001:001b641c       ?getArrayObject@UnDecorator@@CA?AVDName@@XZ 00000001801b741c f   libvcruntime:undname.obj
 0001:001b64d8       ?getArrayType@UnDecorator@@CA?AVDName@@AEBV2@@Z 00000001801b74d8 f i libvcruntime:undname.obj
 0001:001b6720       ?getBasedType@UnDecorator@@CA?AVDName@@XZ 00000001801b7720 f   libvcruntime:undname.obj
 0001:001b6818       ?getBasicDataType@UnDecorator@@CA?AVDName@@AEBV2@@Z 00000001801b7818 f   libvcruntime:undname.obj
 0001:001b6e1c       ?getCallingConvention@UnDecorator@@CA?AVDName@@XZ 00000001801b7e1c f   libvcruntime:undname.obj
 0001:001b6f54       ?getDataIndirectType@UnDecorator@@CA?AVDName@@AEBV2@W4IndirectionKind@@0H@Z 00000001801b7f54 f   libvcruntime:undname.obj
 0001:001b7878       ?getDataType@UnDecorator@@CA?AVDName@@PEAV2@@Z 00000001801b8878 f   libvcruntime:undname.obj
 0001:001b798c       ?getDecoratedName@UnDecorator@@CA?AVDName@@XZ 00000001801b898c f   libvcruntime:undname.obj
 0001:001b7c74       ?getDimension@UnDecorator@@CA?AVDName@@_N@Z 00000001801b8c74 f   libvcruntime:undname.obj
 0001:001b7dbc       ?getDispatchTarget@UnDecorator@@CA?AVDName@@XZ 00000001801b8dbc f   libvcruntime:undname.obj
 0001:001b7e1c       ?getECSUDataType@UnDecorator@@CA?AVDName@@XZ 00000001801b8e1c f   libvcruntime:undname.obj
 0001:001b8018       ?getEnumType@UnDecorator@@CA?AVDName@@XZ 00000001801b9018 f i libvcruntime:undname.obj
 0001:001b8148       ?getExtendedDataIndirectType@UnDecorator@@CA?AVDName@@AEAW4IndirectionKind@@AEA_NH@Z 00000001801b9148 f   libvcruntime:undname.obj
 0001:001b834c       ?getExternalDataType@UnDecorator@@CA?AVDName@@AEBV2@@Z 00000001801b934c f i libvcruntime:undname.obj
 0001:001b840c       ?getFloatingPoint@UnDecorator@@CA?AVDName@@H@Z 00000001801b940c f   libvcruntime:undname.obj
 0001:001b8574       ?getFunctionIndirectType@UnDecorator@@CA?AVDName@@AEBV2@@Z 00000001801b9574 f   libvcruntime:undname.obj
 0001:001b8aa8       ?getLastChar@DNameStatusNode@@UEBADXZ 00000001801b9aa8 f i libvcruntime:undname.obj
 0001:001b8ab4       ?getLastChar@charNode@@UEBADXZ 00000001801b9ab4 f i libvcruntime:undname.obj
 0001:001b8ab8       ?getLastChar@pDNameNode@@UEBADXZ 00000001801b9ab8 f i libvcruntime:undname.obj
 0001:001b8ae4       ?getLastChar@pairNode@@UEBADXZ 00000001801b9ae4 f i libvcruntime:undname.obj
 0001:001b8b1c       ?getLastChar@pcharNode@@UEBADXZ 00000001801b9b1c f i libvcruntime:undname.obj
 0001:001b8b30       ?getLexicalFrame@UnDecorator@@CA?AVDName@@XZ 00000001801b9b30 f i libvcruntime:undname.obj
 0001:001b8b94       ?getMemberAccess@UnDecorator@@CA?AVDName@@XZ 00000001801b9b94 f   libvcruntime:undname.obj
 0001:001b8c28       ?getMemoryWithBuffer@_HeapManager@@QEAAPEAX_K@Z 00000001801b9c28 f   libvcruntime:undname.obj
 0001:001b8cb8       ?getNoexcept@UnDecorator@@CA?AVDName@@XZ 00000001801b9cb8 f   libvcruntime:undname.obj
 0001:001b8d1c       ?getNumberOfDimensions@UnDecorator@@CAHXZ 00000001801b9d1c f   libvcruntime:undname.obj
 0001:001b8d84       ?getOperatorName@UnDecorator@@CA?AVDName@@_NPEA_N@Z 00000001801b9d84 f i libvcruntime:undname.obj
 0001:001b9734       ?getPointerToMember@UnDecorator@@CA?AVDName@@XZ 00000001801ba734 f   libvcruntime:undname.obj
 0001:001b982c       ?getPrimaryDataType@UnDecorator@@CA?AVDName@@AEBV2@@Z 00000001801ba82c f   libvcruntime:undname.obj
 0001:001b9ae4       ?getPtrRefDataType@UnDecorator@@CA?AVDName@@AEBV2@H@Z 00000001801baae4 f   libvcruntime:undname.obj
 0001:001b9cb0       ?getPtrRefType@UnDecorator@@CA?AVDName@@AEBV2@0W4IndirectionKind@@@Z 00000001801bacb0 f   libvcruntime:undname.obj
 0001:001b9e88       ?getRestrictionSpec@UnDecorator@@CA?AVDName@@XZ 00000001801bae88 f   libvcruntime:undname.obj
 0001:001ba064       ?getReturnType@UnDecorator@@CA?AVDName@@PEAV2@@Z 00000001801bb064 f   libvcruntime:undname.obj
 0001:001ba098       ?getScope@UnDecorator@@CA?AVDName@@XZ 00000001801bb098 f   libvcruntime:undname.obj
 0001:001ba554       ?getScopedName@UnDecorator@@CA?AVDName@@XZ 00000001801bb554 f   libvcruntime:undname.obj
 0001:001ba694       ?getSignedDimension@UnDecorator@@CA?AVDName@@XZ 00000001801bb694 f   libvcruntime:undname.obj
 0001:001ba71c       ?getString@DNameStatusNode@@UEBAPEADPEAD0@Z 00000001801bb71c f i libvcruntime:undname.obj
 0001:001ba764       ?getString@charNode@@UEBAPEADPEAD0@Z 00000001801bb764 f i libvcruntime:undname.obj
 0001:001ba778       ?getString@pDNameNode@@UEBAPEADPEAD0@Z 00000001801bb778 f i libvcruntime:undname.obj
 0001:001ba7a8       ?getString@pairNode@@UEBAPEADPEAD0@Z 00000001801bb7a8 f i libvcruntime:undname.obj
 0001:001ba7f4       ?getString@pcharNode@@UEBAPEADPEAD0@Z 00000001801bb7f4 f i libvcruntime:undname.obj
 0001:001ba82c       ?getStringEncoding@UnDecorator@@CA?AVDName@@W4PrefixKind@@H@Z 00000001801bb82c f   libvcruntime:undname.obj
 0001:001ba93c       ?getStringObject@UnDecorator@@CA?AVDName@@XZ 00000001801bb93c f   libvcruntime:undname.obj
 0001:001ba9a4       ?getSymbolName@UnDecorator@@CA?AVDName@@XZ 00000001801bb9a4 f i libvcruntime:undname.obj
 0001:001ba9f0       ?getTemplateArgumentList@UnDecorator@@CA?AVDName@@XZ 00000001801bb9f0 f   libvcruntime:undname.obj
 0001:001bac0c       ?getTemplateName@UnDecorator@@CA?AVDName@@_N@Z 00000001801bbc0c f   libvcruntime:undname.obj
 0001:001baea0       ?getTemplateNonTypeArgument@UnDecorator@@CA?AVDName@@XZ 00000001801bbea0 f   libvcruntime:undname.obj
 0001:001bb3f0       ?getTemplateTypeArgument@UnDecorator@@CA?AVDName@@XZ 00000001801bc3f0 f   libvcruntime:undname.obj
 0001:001bb558       ?getThrowTypes@UnDecorator@@CA?AVDName@@XZ 00000001801bc558 f   libvcruntime:undname.obj
 0001:001bb57c       ?getTypeEncoding@UnDecorator@@CAHXZ 00000001801bc57c f i libvcruntime:undname.obj
 0001:001bb938       ?getUndecoratedName@UnDecorator@@QEAAPEADPEADH@Z 00000001801bc938 f i libvcruntime:undname.obj
 0001:001bba8c       ?getUnionObject@UnDecorator@@CA?AVDName@@XZ 00000001801bca8c f   libvcruntime:undname.obj
 0001:001bbb64       ?getVCallThunkType@UnDecorator@@CA?AVDName@@XZ 00000001801bcb64 f i libvcruntime:undname.obj
 0001:001bbbdc       ?getValue@UnDecorator@@CA?AV?$optional@_K@std@@XZ 00000001801bcbdc f   libvcruntime:undname.obj
 0001:001bbc50       ?getValueObject@UnDecorator@@CA?AVDName@@XZ 00000001801bcc50 f   libvcruntime:undname.obj
 0001:001bbd90       ?getVdispMapType@UnDecorator@@CA?AVDName@@AEBV2@@Z 00000001801bcd90 f i libvcruntime:undname.obj
 0001:001bbe0c       ?getVfTableType@UnDecorator@@CA?AVDName@@AEBV2@@Z 00000001801bce0c f i libvcruntime:undname.obj
 0001:001bc018       ?getZName@UnDecorator@@CA?AVDName@@_N0@Z 00000001801bd018 f   libvcruntime:undname.obj
 0001:001bc2ec       ?length@pDNameNode@@UEBAHXZ 00000001801bd2ec f i libvcruntime:undname.obj
 0001:001bc314       ?length@pairNode@@UEBAHXZ  00000001801bd314 f i libvcruntime:undname.obj
 0001:001bc35c       ?parseDecoratedName@UnDecorator@@CA?AVDName@@XZ 00000001801bd35c f   libvcruntime:undname.obj
 0001:001bc474       ?raw_length@pDNameNode@@UEBAHXZ 00000001801bd474 f i libvcruntime:undname.obj
 0001:001bc478       ?raw_length@pairNode@@UEBAHXZ 00000001801bd478 f i libvcruntime:undname.obj
 0001:001bc47c       __unDName                  00000001801bd47c f   libvcruntime:undname.obj
 0001:001bc4a4       __unDNameEx                00000001801bd4a4 f   libvcruntime:undname.obj
 0001:001bc5d8       snprintf                   00000001801bd5d8 f i libvcruntime:undname.obj
 0001:001bc630       sprintf_s                  00000001801bd630 f i libvcruntime:undname.obj
 0001:001bc684       __vcrt_freefls             00000001801bd684 f   libvcruntime:per_thread_data.obj
 0001:001bc6a4       __vcrt_freeptd             00000001801bd6a4 f   libvcruntime:per_thread_data.obj
 0001:001bc6f4       __vcrt_getptd              00000001801bd6f4 f   libvcruntime:per_thread_data.obj
 0001:001bc710       __vcrt_getptd_noexit       00000001801bd710 f   libvcruntime:per_thread_data.obj
 0001:001bc7d0       __vcrt_initialize_ptd      00000001801bd7d0 f   libvcruntime:per_thread_data.obj
 0001:001bc818       __vcrt_uninitialize_ptd    00000001801bd818 f   libvcruntime:per_thread_data.obj
 0001:001bc83c       __vcrt_initialize_locks    00000001801bd83c f   libvcruntime:locks.obj
 0001:001bc884       __vcrt_lock                00000001801bd884 f   libvcruntime:locks.obj
 0001:001bc8a0       __vcrt_uninitialize_locks  00000001801bd8a0 f   libvcruntime:locks.obj
 0001:001bc8d8       __vcrt_unlock              00000001801bd8d8 f   libvcruntime:locks.obj
 0001:001bc910       _NLG_Notify                00000001801bd910 f   libvcruntime:notify.obj
 0001:001bc930       __NLG_Dispatch2            00000001801bd930 f   libvcruntime:notify.obj
 0001:001bc940       __NLG_Return2              00000001801bd940 f   libvcruntime:notify.obj
 0001:001bc944       __except_validate_context_record 00000001801bd944 f   libvcruntime:jbcxrval.obj
 0001:001bc97c       ??$_CallSETranslator@V__FrameHandler4@@@@YAHPEAUEHExceptionRecord@@PEA_KPEAU_CONTEXT@@PEAU_xDISPATCHER_CONTEXT@@PEAUFuncInfo4@FH4@@K1H@Z 00000001801bd97c f i libvcruntime:risctrnsctrl.obj
 0001:001bc9d0       ?DecompFuncInfo@FH4@@YA_JPEAEAEAUFuncInfo4@1@_KH_N@Z 00000001801bd9d0 f i libvcruntime:risctrnsctrl.obj
 0001:001bcaf4       ?ExecutionInCatch@__FrameHandler4@@SA_NPEAU_xDISPATCHER_CONTEXT@@PEAUFuncInfo4@FH4@@@Z 00000001801bdaf4 f   libvcruntime:risctrnsctrl.obj
 0001:001bcafc       ?FrameUnwindToEmptyState@__FrameHandler4@@SAXPEA_KPEAU_xDISPATCHER_CONTEXT@@PEAUFuncInfo4@FH4@@@Z 00000001801bdafc f   libvcruntime:risctrnsctrl.obj
 0001:001bcb30       ?GetEstablisherFrame@__FrameHandler4@@SAPEA_KPEA_KPEAU_xDISPATCHER_CONTEXT@@PEAUFuncInfo4@FH4@@0@Z 00000001801bdb30 f   libvcruntime:risctrnsctrl.obj
 0001:001bcb54       ?GetRangeOfTrysToCheck@__FrameHandler4@@SA?AU?$pair@Viterator@TryBlockMap4@FH4@@V123@@std@@AEAVTryBlockMap4@FH4@@HPEAU_xDISPATCHER_CONTEXT@@PEAUFuncInfo4@5@H@Z 00000001801bdb54 f   libvcruntime:risctrnsctrl.obj
 0001:001bccc0       ?UnwindNestedFrames@__FrameHandler4@@SAXPEA_KPEAUEHExceptionRecord@@PEAU_CONTEXT@@0PEAXPEAUFuncInfo4@FH4@@HHPEAUHandlerType4@5@PEAU_xDISPATCHER_CONTEXT@@E@Z 00000001801bdcc0 f   libvcruntime:risctrnsctrl.obj
 0001:001bcde0       ?setBuffer@TryBlockMap4@FH4@@QEAAXViterator@12@@Z 00000001801bdde0 f i libvcruntime:risctrnsctrl.obj
 0001:001bcfa4       _CreateFrameInfo           00000001801bdfa4 f   libvcruntime:risctrnsctrl.obj
 0001:001bcfe0       _FindAndUnlinkFrame        00000001801bdfe0 f   libvcruntime:risctrnsctrl.obj
 0001:001bd034       _GetImageBase              00000001801be034 f   libvcruntime:risctrnsctrl.obj
 0001:001bd048       _GetThrowImageBase         00000001801be048 f   libvcruntime:risctrnsctrl.obj
 0001:001bd05c       _SetImageBase              00000001801be05c f   libvcruntime:risctrnsctrl.obj
 0001:001bd074       _SetThrowImageBase         00000001801be074 f   libvcruntime:risctrnsctrl.obj
 0001:001bd08c       __CxxFrameHandler4         00000001801be08c f   libvcruntime:risctrnsctrl.obj
 0001:001bd29c       __vcrt_FlsAlloc            00000001801be29c f   libvcruntime:winapi_downlevel.obj
 0001:001bd2e4       __vcrt_FlsFree             00000001801be2e4 f   libvcruntime:winapi_downlevel.obj
 0001:001bd32c       __vcrt_FlsGetValue         00000001801be32c f   libvcruntime:winapi_downlevel.obj
 0001:001bd374       __vcrt_FlsSetValue         00000001801be374 f   libvcruntime:winapi_downlevel.obj
 0001:001bd3c8       __vcrt_InitializeCriticalSectionEx 00000001801be3c8 f   libvcruntime:winapi_downlevel.obj
 0001:001bd42c       ?StateFromControlPc@__FrameHandler4@@SAHPEAUFuncInfo4@FH4@@PEAU_xDISPATCHER_CONTEXT@@@Z 00000001801be42c f   libvcruntime:ehstate.obj
 0001:001bd434       ?StateFromIp@__FrameHandler4@@SAHPEAUFuncInfo4@FH4@@PEAU_xDISPATCHER_CONTEXT@@_K@Z 00000001801be434 f   libvcruntime:ehstate.obj
 0001:001be0ac       ??$TypeMatchHelper@V__FrameHandler3@@@@YAHPEBU_s_HandlerType@@PEBU_s_CatchableType@@PEBU_s_ThrowInfo@@@Z 00000001801bf0ac f i libvcruntime:frame.obj
 0001:001be1ec       ??$TypeMatchHelper@V__FrameHandler4@@@@YAHPEAUHandlerType4@FH4@@PEBU_s_CatchableType@@PEBU_s_ThrowInfo@@@Z 00000001801bf1ec f i libvcruntime:frame.obj
 0001:001be330       ??$__InternalCxxFrameHandler@V__FrameHandler4@@@@YA?AW4_EXCEPTION_DISPOSITION@@PEAUEHExceptionRecord@@PEA_KPEAU_CONTEXT@@PEAU_xDISPATCHER_CONTEXT@@PEAUFuncInfo4@FH4@@H1E@Z 00000001801bf330 f i libvcruntime:frame.obj
 0001:001be5c4       ??$__InternalCxxFrameHandlerWrapper@V__FrameHandler4@@@@YA?AW4_EXCEPTION_DISPOSITION@@PEAUEHExceptionRecord@@PEA_KPEAU_CONTEXT@@PEAU_xDISPATCHER_CONTEXT@@PEAUFuncInfo4@FH4@@H1E@Z 00000001801bf5c4 f i libvcruntime:frame.obj
 0001:001be620       ??0HandlerMap4@FH4@@QEAA@PEBUTryBlockMapEntry4@1@_KH@Z 00000001801bf620 f i libvcruntime:frame.obj
 0001:001be69c       ??0TryBlockMap4@FH4@@QEAA@PEBUFuncInfo4@1@_K@Z 00000001801bf69c f i libvcruntime:frame.obj
 0001:001be774       ??0bad_exception@std@@QEAA@AEBV01@@Z 00000001801bf774 f i libvcruntime:frame.obj
 0001:001be7b0       ??0bad_exception@std@@QEAA@XZ 00000001801bf7b0 f i libvcruntime:frame.obj
 0001:001be7d0       ??0exception@std@@QEAA@AEBV01@@Z 00000001801bf7d0 f i libvcruntime:frame.obj
 0001:001be804       ??1bad_exception@std@@UEAA@XZ 00000001801bf804 f i libvcruntime:frame.obj
 0001:001be818       ??_Ebad_exception@std@@UEAAPEAXI@Z 00000001801bf818 f i libvcruntime:frame.obj
 0001:001be818       ??_Eexception@std@@UEAAPEAXI@Z 00000001801bf818 f i libvcruntime:frame.obj
 0001:001be818       ??_Gbad_exception@std@@UEAAPEAXI@Z 00000001801bf818 f i libvcruntime:frame.obj
 0001:001be818       ??_Gexception@std@@UEAAPEAXI@Z 00000001801bf818 f i libvcruntime:frame.obj
 0001:001be85c       ?CxxCallCatchBlock@__FrameHandler4@@SAPEAXPEAU_EXCEPTION_RECORD@@@Z 00000001801bf85c f   libvcruntime:frame.obj
 0001:001beaac       ?DecompHandler@HandlerMap4@FH4@@AEAAXXZ 00000001801bfaac f i libvcruntime:frame.obj
 0001:001becf8       ?FrameUnwindToState@__FrameHandler4@@SAXPEA_KPEAU_xDISPATCHER_CONTEXT@@PEAUFuncInfo4@FH4@@H@Z 00000001801bfcf8 f   libvcruntime:frame.obj
 0001:001bf16c       ?ReadEntry@UWMap4@FH4@@AEAAXPEAPEAE@Z 00000001801c016c f i libvcruntime:frame.obj
 0001:001bf208       ?_CallMemberFunction1@@YAXQEAX00@Z 00000001801c0208 f i libvcruntime:frame.obj
 0001:001bf214       ?_CallMemberFunction2@@YAXQEAX00H@Z 00000001801c0214 f i libvcruntime:frame.obj
 0001:001bf224       ?getStartStop@UWMap4@FH4@@QEAAXHHAEAViterator@12@0@Z 00000001801c0224 f i libvcruntime:frame.obj
 0001:001bf2f4       ?getStateFromIterators@UWMap4@FH4@@SAHAEBViterator@12@H0H0@Z 00000001801c02f4 f i libvcruntime:frame.obj
 0001:001bf3a4       ?what@exception@std@@UEBAPEBDXZ 00000001801c03a4 f i libvcruntime:frame.obj
 0001:001bf3d0       _CallSettingFrame          00000001801c03d0 f   libvcruntime:handlers.obj
 0001:001bf420       _CallSettingFrame_LookupContinuationIndex 00000001801c0420 f   libvcruntime:handlers.obj
 0001:001bf450       _CallSettingFrame_NotifyContinuationAddr 00000001801c0450 f   libvcruntime:handlers.obj
 0001:001bf480       _CallSettingFrameEncoded   00000001801c0480 f   libvcruntime:handlers.obj
 0001:001bf4c8       __std_exception_copy       00000001801c04c8 f   libvcruntime:std_exception.obj
 0001:001bf558       __std_exception_destroy    00000001801c0558 f   libvcruntime:std_exception.obj
 0001:001bf580       _CxxThrowException         00000001801c0580 f   libvcruntime:throw.obj
 0001:001bf620       _local_unwind              00000001801c0620 f   libvcruntime:jmpuwind.obj
 0001:001bf650       cosf                       00000001801c0650 f   libucrt:cosf.obj
 0001:001bfb50       sinf                       00000001801c0b50 f   libucrt:sinf.obj
 0001:001c0250       tanf                       00000001801c1250 f   libucrt:tanf.obj
 0001:001c08c4       __acrt_initialize_stdio    00000001801c18c4 f   libucrt:_file.obj
 0001:001c09e4       __acrt_iob_func            00000001801c19e4 f   libucrt:_file.obj
 0001:001c09f8       __acrt_uninitialize_stdio  00000001801c19f8 f   libucrt:_file.obj
 0001:001c0a54       _lock_file                 00000001801c1a54 f   libucrt:_file.obj
 0001:001c0a60       _unlock_file               00000001801c1a60 f   libucrt:_file.obj
 0001:001c0e44       ??$ensure_buffer_is_big_enough@D@formatting_buffer@__crt_stdio_output@@QEAA_N_K@Z 00000001801c1e44 f i libucrt:output.obj
 0001:001c0eec       ??$type_case_integer_parse_into_buffer@I@?$output_processor@DV?$stream_output_adapter@D@__crt_stdio_output@@V?$standard_base@DV?$stream_output_adapter@D@__crt_stdio_output@@@2@@__crt_stdio_output@@AEAAXII_N@Z 00000001801c1eec f i libucrt:output.obj
 0001:001c0eec       ??$type_case_integer_parse_into_buffer@I@?$output_processor@DV?$string_output_adapter@D@__crt_stdio_output@@V?$format_validation_base@DV?$string_output_adapter@D@__crt_stdio_output@@@2@@__crt_stdio_output@@AEAAXII_N@Z 00000001801c1eec f i libucrt:output.obj
 0001:001c0eec       ??$type_case_integer_parse_into_buffer@I@?$output_processor@DV?$string_output_adapter@D@__crt_stdio_output@@V?$standard_base@DV?$string_output_adapter@D@__crt_stdio_output@@@2@@__crt_stdio_output@@AEAAXII_N@Z 00000001801c1eec f i libucrt:output.obj
 0001:001c0f74       ??$type_case_integer_parse_into_buffer@_K@?$output_processor@DV?$stream_output_adapter@D@__crt_stdio_output@@V?$standard_base@DV?$stream_output_adapter@D@__crt_stdio_output@@@2@@__crt_stdio_output@@AEAAX_KI_N@Z 00000001801c1f74 f i libucrt:output.obj
 0001:001c0f74       ??$type_case_integer_parse_into_buffer@_K@?$output_processor@DV?$string_output_adapter@D@__crt_stdio_output@@V?$format_validation_base@DV?$string_output_adapter@D@__crt_stdio_output@@@2@@__crt_stdio_output@@AEAAX_KI_N@Z 00000001801c1f74 f i libucrt:output.obj
 0001:001c0f74       ??$type_case_integer_parse_into_buffer@_K@?$output_processor@DV?$string_output_adapter@D@__crt_stdio_output@@V?$standard_base@DV?$string_output_adapter@D@__crt_stdio_output@@@2@@__crt_stdio_output@@AEAAX_KI_N@Z 00000001801c1f74 f i libucrt:output.obj
 0001:001c1004       ??$write_multiple_characters@V?$stream_output_adapter@D@__crt_stdio_output@@D@__crt_stdio_output@@YAXAEBV?$stream_output_adapter@D@0@DHQEAH@Z 00000001801c2004 f i libucrt:output.obj
 0001:001c1090       ??$write_multiple_characters@V?$string_output_adapter@D@__crt_stdio_output@@D@__crt_stdio_output@@YAXAEBV?$string_output_adapter@D@0@DHQEAH@Z 00000001801c2090 f i libucrt:output.obj
 0001:001c1108       ??0_LocaleUpdate@@QEAA@QEAU__crt_locale_pointers@@@Z 00000001801c2108 f i libucrt:output.obj
 0001:001c12e0       ?crop_zeroes@__crt_stdio_output@@YAXPEADQEAU__crt_locale_pointers@@@Z 00000001801c22e0 f i libucrt:output.obj
 0001:001c1380       ?force_decimal_point@__crt_stdio_output@@YAXPEADQEAU__crt_locale_pointers@@@Z 00000001801c2380 f i libucrt:output.obj
 0001:001c13f8       ?parse_int_from_format_string@?$output_processor@DV?$stream_output_adapter@D@__crt_stdio_output@@V?$standard_base@DV?$stream_output_adapter@D@__crt_stdio_output@@@2@@__crt_stdio_output@@AEAA_NQEAH@Z 00000001801c23f8 f i libucrt:output.obj
 0001:001c13f8       ?parse_int_from_format_string@?$output_processor@DV?$string_output_adapter@D@__crt_stdio_output@@V?$format_validation_base@DV?$string_output_adapter@D@__crt_stdio_output@@@2@@__crt_stdio_output@@AEAA_NQEAH@Z 00000001801c23f8 f i libucrt:output.obj
 0001:001c13f8       ?parse_int_from_format_string@?$output_processor@DV?$string_output_adapter@D@__crt_stdio_output@@V?$standard_base@DV?$string_output_adapter@D@__crt_stdio_output@@@2@@__crt_stdio_output@@AEAA_NQEAH@Z 00000001801c23f8 f i libucrt:output.obj
 0001:001c149c       ?process@?$output_processor@DV?$stream_output_adapter@D@__crt_stdio_output@@V?$standard_base@DV?$stream_output_adapter@D@__crt_stdio_output@@@2@@__crt_stdio_output@@QEAAHXZ 00000001801c249c f i libucrt:output.obj
 0001:001c16b0       ?process@?$output_processor@DV?$string_output_adapter@D@__crt_stdio_output@@V?$format_validation_base@DV?$string_output_adapter@D@__crt_stdio_output@@@2@@__crt_stdio_output@@QEAAHXZ 00000001801c26b0 f i libucrt:output.obj
 0001:001c18c4       ?process@?$output_processor@DV?$string_output_adapter@D@__crt_stdio_output@@V?$standard_base@DV?$string_output_adapter@D@__crt_stdio_output@@@2@@__crt_stdio_output@@QEAAHXZ 00000001801c28c4 f i libucrt:output.obj
 0001:001c1acc       ?state_case_normal@?$output_processor@DV?$stream_output_adapter@D@__crt_stdio_output@@V?$standard_base@DV?$stream_output_adapter@D@__crt_stdio_output@@@2@@__crt_stdio_output@@AEAA_NXZ 00000001801c2acc f i libucrt:output.obj
 0001:001c1b3c       ?state_case_normal@?$output_processor@DV?$string_output_adapter@D@__crt_stdio_output@@V?$format_validation_base@DV?$string_output_adapter@D@__crt_stdio_output@@@2@@__crt_stdio_output@@AEAA_NXZ 00000001801c2b3c f i libucrt:output.obj
 0001:001c1b3c       ?state_case_normal@?$output_processor@DV?$string_output_adapter@D@__crt_stdio_output@@V?$standard_base@DV?$string_output_adapter@D@__crt_stdio_output@@@2@@__crt_stdio_output@@AEAA_NXZ 00000001801c2b3c f i libucrt:output.obj
 0001:001c1bb0       ?state_case_normal_tchar@?$output_processor@DV?$stream_output_adapter@D@__crt_stdio_output@@V?$standard_base@DV?$stream_output_adapter@D@__crt_stdio_output@@@2@@__crt_stdio_output@@AEAA_ND@Z 00000001801c2bb0 f i libucrt:output.obj
 0001:001c1c54       ?state_case_normal_tchar@?$output_processor@DV?$string_output_adapter@D@__crt_stdio_output@@V?$format_validation_base@DV?$string_output_adapter@D@__crt_stdio_output@@@2@@__crt_stdio_output@@AEAA_ND@Z 00000001801c2c54 f i libucrt:output.obj
 0001:001c1c54       ?state_case_normal_tchar@?$output_processor@DV?$string_output_adapter@D@__crt_stdio_output@@V?$standard_base@DV?$string_output_adapter@D@__crt_stdio_output@@@2@@__crt_stdio_output@@AEAA_ND@Z 00000001801c2c54 f i libucrt:output.obj
 0001:001c1cfc       ?state_case_size@?$output_processor@DV?$stream_output_adapter@D@__crt_stdio_output@@V?$standard_base@DV?$stream_output_adapter@D@__crt_stdio_output@@@2@@__crt_stdio_output@@AEAA_NXZ 00000001801c2cfc f i libucrt:output.obj
 0001:001c1e6c       ?state_case_size@?$output_processor@DV?$string_output_adapter@D@__crt_stdio_output@@V?$format_validation_base@DV?$string_output_adapter@D@__crt_stdio_output@@@2@@__crt_stdio_output@@AEAA_NXZ 00000001801c2e6c f i libucrt:output.obj
 0001:001c1e6c       ?state_case_size@?$output_processor@DV?$string_output_adapter@D@__crt_stdio_output@@V?$standard_base@DV?$string_output_adapter@D@__crt_stdio_output@@@2@@__crt_stdio_output@@AEAA_NXZ 00000001801c2e6c f i libucrt:output.obj
 0001:001c1fdc       ?state_case_type@?$output_processor@DV?$stream_output_adapter@D@__crt_stdio_output@@V?$standard_base@DV?$stream_output_adapter@D@__crt_stdio_output@@@2@@__crt_stdio_output@@AEAA_NXZ 00000001801c2fdc f i libucrt:output.obj
 0001:001c2260       ?state_case_type@?$output_processor@DV?$string_output_adapter@D@__crt_stdio_output@@V?$format_validation_base@DV?$string_output_adapter@D@__crt_stdio_output@@@2@@__crt_stdio_output@@AEAA_NXZ 00000001801c3260 f i libucrt:output.obj
 0001:001c2260       ?state_case_type@?$output_processor@DV?$string_output_adapter@D@__crt_stdio_output@@V?$standard_base@DV?$string_output_adapter@D@__crt_stdio_output@@@2@@__crt_stdio_output@@AEAA_NXZ 00000001801c3260 f i libucrt:output.obj
 0001:001c24d0       ?to_integer_size@__crt_stdio_output@@YA_KW4length_modifier@1@@Z 00000001801c34d0 f i libucrt:output.obj
 0001:001c2538       ?type_case_Z@?$output_processor@DV?$stream_output_adapter@D@__crt_stdio_output@@V?$standard_base@DV?$stream_output_adapter@D@__crt_stdio_output@@@2@@__crt_stdio_output@@AEAA_NXZ 00000001801c3538 f i libucrt:output.obj
 0001:001c2538       ?type_case_Z@?$output_processor@DV?$string_output_adapter@D@__crt_stdio_output@@V?$format_validation_base@DV?$string_output_adapter@D@__crt_stdio_output@@@2@@__crt_stdio_output@@AEAA_NXZ 00000001801c3538 f i libucrt:output.obj
 0001:001c2538       ?type_case_Z@?$output_processor@DV?$string_output_adapter@D@__crt_stdio_output@@V?$standard_base@DV?$string_output_adapter@D@__crt_stdio_output@@@2@@__crt_stdio_output@@AEAA_NXZ 00000001801c3538 f i libucrt:output.obj
 0001:001c25ac       ?type_case_a@?$output_processor@DV?$stream_output_adapter@D@__crt_stdio_output@@V?$standard_base@DV?$stream_output_adapter@D@__crt_stdio_output@@@2@@__crt_stdio_output@@AEAA_NXZ 00000001801c35ac f i libucrt:output.obj
 0001:001c25ac       ?type_case_a@?$output_processor@DV?$string_output_adapter@D@__crt_stdio_output@@V?$format_validation_base@DV?$string_output_adapter@D@__crt_stdio_output@@@2@@__crt_stdio_output@@AEAA_NXZ 00000001801c35ac f i libucrt:output.obj
 0001:001c25ac       ?type_case_a@?$output_processor@DV?$string_output_adapter@D@__crt_stdio_output@@V?$standard_base@DV?$string_output_adapter@D@__crt_stdio_output@@@2@@__crt_stdio_output@@AEAA_NXZ 00000001801c35ac f i libucrt:output.obj
 0001:001c2768       ?type_case_c_tchar@?$output_processor@DV?$stream_output_adapter@D@__crt_stdio_output@@V?$standard_base@DV?$stream_output_adapter@D@__crt_stdio_output@@@2@@__crt_stdio_output@@AEAA_ND@Z 00000001801c3768 f i libucrt:output.obj
 0001:001c2768       ?type_case_c_tchar@?$output_processor@DV?$string_output_adapter@D@__crt_stdio_output@@V?$format_validation_base@DV?$string_output_adapter@D@__crt_stdio_output@@@2@@__crt_stdio_output@@AEAA_ND@Z 00000001801c3768 f i libucrt:output.obj
 0001:001c2768       ?type_case_c_tchar@?$output_processor@DV?$string_output_adapter@D@__crt_stdio_output@@V?$standard_base@DV?$string_output_adapter@D@__crt_stdio_output@@@2@@__crt_stdio_output@@AEAA_ND@Z 00000001801c3768 f i libucrt:output.obj
 0001:001c2830       ?type_case_integer@?$output_processor@DV?$stream_output_adapter@D@__crt_stdio_output@@V?$standard_base@DV?$stream_output_adapter@D@__crt_stdio_output@@@2@@__crt_stdio_output@@AEAA_NI_N@Z 00000001801c3830 f i libucrt:output.obj
 0001:001c2830       ?type_case_integer@?$output_processor@DV?$string_output_adapter@D@__crt_stdio_output@@V?$format_validation_base@DV?$string_output_adapter@D@__crt_stdio_output@@@2@@__crt_stdio_output@@AEAA_NI_N@Z 00000001801c3830 f i libucrt:output.obj
 0001:001c2830       ?type_case_integer@?$output_processor@DV?$string_output_adapter@D@__crt_stdio_output@@V?$standard_base@DV?$string_output_adapter@D@__crt_stdio_output@@@2@@__crt_stdio_output@@AEAA_NI_N@Z 00000001801c3830 f i libucrt:output.obj
 0001:001c29b0       ?type_case_n@?$output_processor@DV?$stream_output_adapter@D@__crt_stdio_output@@V?$standard_base@DV?$stream_output_adapter@D@__crt_stdio_output@@@2@@__crt_stdio_output@@AEAA_NXZ 00000001801c39b0 f i libucrt:output.obj
 0001:001c29b0       ?type_case_n@?$output_processor@DV?$string_output_adapter@D@__crt_stdio_output@@V?$format_validation_base@DV?$string_output_adapter@D@__crt_stdio_output@@@2@@__crt_stdio_output@@AEAA_NXZ 00000001801c39b0 f i libucrt:output.obj
 0001:001c29b0       ?type_case_n@?$output_processor@DV?$string_output_adapter@D@__crt_stdio_output@@V?$standard_base@DV?$string_output_adapter@D@__crt_stdio_output@@@2@@__crt_stdio_output@@AEAA_NXZ 00000001801c39b0 f i libucrt:output.obj
 0001:001c2a38       ?type_case_s@?$output_processor@DV?$stream_output_adapter@D@__crt_stdio_output@@V?$standard_base@DV?$stream_output_adapter@D@__crt_stdio_output@@@2@@__crt_stdio_output@@AEAA_NXZ 00000001801c3a38 f i libucrt:output.obj
 0001:001c2a38       ?type_case_s@?$output_processor@DV?$string_output_adapter@D@__crt_stdio_output@@V?$format_validation_base@DV?$string_output_adapter@D@__crt_stdio_output@@@2@@__crt_stdio_output@@AEAA_NXZ 00000001801c3a38 f i libucrt:output.obj
 0001:001c2a38       ?type_case_s@?$output_processor@DV?$string_output_adapter@D@__crt_stdio_output@@V?$standard_base@DV?$string_output_adapter@D@__crt_stdio_output@@@2@@__crt_stdio_output@@AEAA_NXZ 00000001801c3a38 f i libucrt:output.obj
 0001:001c2ad0       ?validate_stream_is_ansi_if_required@?$__acrt_stdio_char_traits@D@@SA_NQEAU_iobuf@@@Z 00000001801c3ad0 f i libucrt:output.obj
 0001:001c2b6c       ?write_stored_string_tchar@?$output_processor@DV?$stream_output_adapter@D@__crt_stdio_output@@V?$standard_base@DV?$stream_output_adapter@D@__crt_stdio_output@@@2@@__crt_stdio_output@@AEAA_ND@Z 00000001801c3b6c f i libucrt:output.obj
 0001:001c2c90       ?write_stored_string_tchar@?$output_processor@DV?$string_output_adapter@D@__crt_stdio_output@@V?$format_validation_base@DV?$string_output_adapter@D@__crt_stdio_output@@@2@@__crt_stdio_output@@AEAA_ND@Z 00000001801c3c90 f i libucrt:output.obj
 0001:001c2c90       ?write_stored_string_tchar@?$output_processor@DV?$string_output_adapter@D@__crt_stdio_output@@V?$standard_base@DV?$string_output_adapter@D@__crt_stdio_output@@@2@@__crt_stdio_output@@AEAA_ND@Z 00000001801c3c90 f i libucrt:output.obj
 0001:001c2d6c       ?write_string@?$string_output_adapter@D@__crt_stdio_output@@QEBAXQEBDHQEAHAEAV__crt_deferred_errno_cache@@@Z 00000001801c3d6c f i libucrt:output.obj
 0001:001c2e10       ?write_string_impl@?$output_adapter_common@DV?$stream_output_adapter@D@__crt_stdio_output@@@__crt_stdio_output@@IEBAXQEBDHQEAHAEAV__crt_deferred_errno_cache@@@Z 00000001801c3e10 f i libucrt:output.obj
 0001:001c2f08       __stdio_common_vfprintf    00000001801c3f08 f   libucrt:output.obj
 0001:001c2f94       __stdio_common_vsprintf    00000001801c3f94 f   libucrt:output.obj
 0001:001c2f9c       __stdio_common_vsprintf_s  00000001801c3f9c f   libucrt:output.obj
 0001:001c3000       _fpclass                   00000001801c4000 f   libucrt:ieeemisc.obj
 0001:001c3090       powf                       00000001801c4090 f   libucrt:powf.obj
 0001:001c3f58       atan2f                     00000001801c4f58 f   libucrt:atan2f.obj
 0001:001c4360       strcmp                     00000001801c5360 f   libucrt:strcmp.obj
 0001:001c43c8       acosf                      00000001801c53c8 f   libucrt:acosf.obj
 0001:001c45f4       free                       00000001801c55f4 f   libucrt:free.obj
 0001:001c4608       _seh_filter_dll            00000001801c5608 f   libucrt:exception_filter.obj
 0001:001c461c       _seh_filter_exe            00000001801c561c f   libucrt:exception_filter.obj
 0001:001c4a0c       __acrt_initialize_thread_local_exit_callback 00000001801c5a0c f   libucrt:exit.obj
 0001:001c4a14       _cexit                     00000001801c5a14 f   libucrt:exit.obj
 0001:001c4a24       _exit                      00000001801c5a24 f   libucrt:exit.obj
 0001:001c4a30       _is_c_termination_complete 00000001801c5a30 f   libucrt:exit.obj
 0001:001c4bf8       __acrt_allocate_buffer_for_argv 00000001801c5bf8 f   libucrt:argv_parsing.obj
 0001:001c4c58       _configure_narrow_argv     00000001801c5c58 f   libucrt:argv_parsing.obj
 0001:001c4fd0       __dcrt_uninitialize_environments_nolock 00000001801c5fd0 f   libucrt:environment_initialization.obj
 0001:001c5008       _initialize_narrow_environment 00000001801c6008 f   libucrt:environment_initialization.obj
 0001:001c5350       _crt_atexit                00000001801c6350 f   libucrt:onexit.obj
 0001:001c5360       _execute_onexit_table      00000001801c6360 f   libucrt:onexit.obj
 0001:001c539c       _initialize_onexit_table   00000001801c639c f   libucrt:onexit.obj
 0001:001c53c4       _register_onexit_function  00000001801c63c4 f   libucrt:onexit.obj
 0001:001c5444       __acrt_uninitialize_command_line 00000001801c6444 f   libucrt:argv_data.obj
 0001:001c553c       __acrt_initialize          00000001801c653c f   libucrt:initialization.obj
 0001:001c5550       __acrt_thread_attach       00000001801c6550 f   libucrt:initialization.obj
 0001:001c5564       __acrt_thread_detach       00000001801c6564 f   libucrt:initialization.obj
 0001:001c5574       __acrt_uninitialize        00000001801c6574 f   libucrt:initialization.obj
 0001:001c55ac       __acrt_uninitialize_critical 00000001801c65ac f   libucrt:initialization.obj
 0001:001c55bc       _initterm                  00000001801c65bc f   libucrt:initterm.obj
 0001:001c5620       _initterm_e                00000001801c6620 f   libucrt:initterm.obj
 0001:001c5660       terminate                  00000001801c6660 f   libucrt:terminate.obj
 0001:001c5680       abort                      00000001801c6680 f   libucrt:abort.obj
 0001:001c56d8       malloc                     00000001801c66d8 f   libucrt:malloc.obj
 0001:001c56e0       strcpy_s                   00000001801c66e0 f   libucrt:strcpy_s.obj
 0001:001c5740       ??$parse_integer@KV?$c_string_character_source@D@__crt_strtox@@@__crt_strtox@@YAKQEAU__crt_locale_pointers@@V?$c_string_character_source@D@0@H_N@Z 00000001801c6740 f i libucrt:atox.obj
 0001:001c5a44       _ischartype_l              00000001801c6a44 f i libucrt:atox.obj
 0001:001c5abc       atol                       00000001801c6abc f   libucrt:atox.obj
 0001:001c5b00       strncmp                    00000001801c6b00 f   libucrt:strncmp.obj
 0001:001c5b80       calloc                     00000001801c6b80 f   libucrt:calloc.obj
 0001:001c5b88       wcsncmp                    00000001801c6b88 f   libucrt:wcsncmp.obj
 0001:001c5bc0       __remainder_piby2d2f_forAsm 00000001801c6bc0 f   libucrt:remainder_piby2f_forasm.obj
 0001:001c5d10       __remainder_piby2_fma3     00000001801c6d10 f   libucrt:remainder_piby2_forfma3.obj
 0001:001c5f00       __remainder_piby2_fma3_bdl 00000001801c6f00 f   libucrt:remainder_piby2_forfma3.obj
 0001:001c5f78       _cosf_special              00000001801c6f78 f   libucrt:sincos_special.obj
 0001:001c6018       _sinf_special              00000001801c7018 f   libucrt:sincos_special.obj
 0001:001c602c       _tanf_special              00000001801c702c f   libucrt:sincos_special.obj
 0001:001c6040       _clrfp                     00000001801c7040 f   libucrt:fpctrl.obj
 0001:001c6060       _ctrlfp                    00000001801c7060 f   libucrt:fpctrl.obj
 0001:001c60dc       _set_statfp                00000001801c70dc f   libucrt:fpctrl.obj
 0001:001c60fc       _statfp                    00000001801c70fc f   libucrt:fpctrl.obj
 0001:001c6110       __acrt_initialize_fma3     00000001801c7110 f   libucrt:fma3_available.obj
 0001:001c6180       __remainder_piby2d2f_forC  00000001801c7180 f   libucrt:remainder_piby2f_forc.obj
 0001:001c630c       __acrt_call_reportfault    00000001801c730c f   libucrt:invalid_parameter.obj
 0001:001c6468       __acrt_initialize_invalid_parameter_handler 00000001801c7468 f   libucrt:invalid_parameter.obj
 0001:001c6470       _invalid_parameter         00000001801c7470 f   libucrt:invalid_parameter.obj
 0001:001c6520       _invalid_parameter_noinfo  00000001801c7520 f   libucrt:invalid_parameter.obj
 0001:001c6540       _invoke_watson             00000001801c7540 f   libucrt:invalid_parameter.obj
 0001:001c6588       __acrt_errno_from_os_error 00000001801c7588 f   libucrt:errno.obj
 0001:001c65d0       __acrt_errno_map_os_error  00000001801c75d0 f   libucrt:errno.obj
 0001:001c6620       __doserrno                 00000001801c7620 f   libucrt:errno.obj
 0001:001c6640       _errno                     00000001801c7640 f   libucrt:errno.obj
 0001:001c6660       _calloc_base               00000001801c7660 f   libucrt:calloc_base.obj
 0001:001c66d8       _free_base                 00000001801c76d8 f   libucrt:free_base.obj
 0001:001c68f0       __acrt_AppPolicyGetProcessTerminationMethodInternal 00000001801c78f0 f   libucrt:winapi_thunks.obj
 0001:001c6940       __acrt_AreFileApisANSI     00000001801c7940 f   libucrt:winapi_thunks.obj
 0001:001c697c       __acrt_FlsAlloc            00000001801c797c f   libucrt:winapi_thunks.obj
 0001:001c69c4       __acrt_FlsFree             00000001801c79c4 f   libucrt:winapi_thunks.obj
 0001:001c6a0c       __acrt_FlsGetValue         00000001801c7a0c f   libucrt:winapi_thunks.obj
 0001:001c6a54       __acrt_FlsSetValue         00000001801c7a54 f   libucrt:winapi_thunks.obj
 0001:001c6aa8       __acrt_InitializeCriticalSectionEx 00000001801c7aa8 f   libucrt:winapi_thunks.obj
 0001:001c6b0c       __acrt_LCMapStringEx       00000001801c7b0c f   libucrt:winapi_thunks.obj
 0001:001c6be8       __acrt_LocaleNameToLCID    00000001801c7be8 f   libucrt:winapi_thunks.obj
 0001:001c6c38       __acrt_initialize_winapi_thunks 00000001801c7c38 f   libucrt:winapi_thunks.obj
 0001:001c6c6c       __acrt_uninitialize_winapi_thunks 00000001801c7c6c f   libucrt:winapi_thunks.obj
 0001:001c6cb0       _fcloseall                 00000001801c7cb0 f   libucrt:closeall.obj
 0001:001c6f40       __acrt_stdio_flush_nolock  00000001801c7f40 f   libucrt:fflush.obj
 0001:001c6fbc       _fflush_nolock             00000001801c7fbc f   libucrt:fflush.obj
 0001:001c7008       _flushall                  00000001801c8008 f   libucrt:fflush.obj
 0001:001c7010       __acrt_stdio_free_buffer_nolock 00000001801c8010 f   libucrt:_freebuf.obj
 0001:001c724c       __acrt_initialize_lowio    00000001801c824c f   libucrt:ioinit.obj
 0001:001c7288       __acrt_uninitialize_lowio  00000001801c8288 f   libucrt:ioinit.obj
 0001:001c72c8       _malloc_base               00000001801c82c8 f   libucrt:malloc_base.obj
 0001:001c7328       strtol                     00000001801c8328 f   libucrt:strtox.obj
 0001:001c7354       _mbtowc_l                  00000001801c8354 f   libucrt:mbtowc.obj
 0001:001c74d4       mbtowc                     00000001801c84d4 f   libucrt:mbtowc.obj
 0001:001c74dc       _wctomb_s_l                00000001801c84dc f   libucrt:wctomb.obj
 0001:001c7678       strnlen                    00000001801c8678 f   libucrt:strnlen.obj
 0001:001c77c8       wcsnlen                    00000001801c87c8 f   libucrt:strnlen.obj
 0001:001c7d18       __acrt_freeptd             00000001801c8d18 f   libucrt:per_thread_data.obj
 0001:001c7d5c       __acrt_getptd              00000001801c8d5c f   libucrt:per_thread_data.obj
 0001:001c7e30       __acrt_getptd_head         00000001801c8e30 f   libucrt:per_thread_data.obj
 0001:001c7ed8       __acrt_getptd_noexit       00000001801c8ed8 f   libucrt:per_thread_data.obj
 0001:001c7fa4       __acrt_initialize_ptd      00000001801c8fa4 f   libucrt:per_thread_data.obj
 0001:001c7fe0       __acrt_uninitialize_ptd    00000001801c8fe0 f   libucrt:per_thread_data.obj
 0001:001c8004       __acrt_update_locale_info  00000001801c9004 f   libucrt:locale_update.obj
 0001:001c8038       __acrt_update_multibyte_info 00000001801c9038 f   libucrt:locale_update.obj
 0001:001c8a78       __acrt_fp_format           00000001801c9a78 f   libucrt:cvt.obj
 0001:001c8db0       _fileno                    00000001801c9db0 f   libucrt:fileno.obj
 0001:001c8dd8       _fputc_nolock              00000001801c9dd8 f   libucrt:fputc.obj
 0001:001c8df0       _get_printf_count_output   00000001801c9df0 f   libucrt:printf_count_output.obj
 0001:001c8e08       __acrt_should_use_temporary_buffer 00000001801c9e08 f   libucrt:_sftbuf.obj
 0001:001c8e50       __acrt_stdio_begin_temporary_buffering_nolock 00000001801c9e50 f   libucrt:_sftbuf.obj
 0001:001c8f18       __acrt_stdio_end_temporary_buffering_nolock 00000001801c9f18 f   libucrt:_sftbuf.obj
 0001:001c8fc4       __acrt_set_locale_changed  00000001801c9fc4 f   libucrt:wsetlocale.obj
 0001:001c8fd0       __acrt_uninitialize_locale 00000001801c9fd0 f   libucrt:wsetlocale.obj
 0001:001c9124       _handle_error              00000001801ca124 f   libucrt:libm_error.obj
 0001:001c924c       _handle_errorf             00000001801ca24c f   libucrt:libm_error.obj
 0001:001c9380       _handle_nan                00000001801ca380 f   libucrt:libm_error.obj
 0001:001c939c       _handle_nanf               00000001801ca39c f   libucrt:libm_error.obj
 0001:001c93b0       _powf_special              00000001801ca3b0 f   libucrt:pow_special.obj
 0001:001c953c       __acrt_initialize_locks    00000001801ca53c f   libucrt:locks.obj
 0001:001c9584       __acrt_lock                00000001801ca584 f   libucrt:locks.obj
 0001:001c95a0       __acrt_uninitialize_locks  00000001801ca5a0 f   libucrt:locks.obj
 0001:001c95d8       __acrt_unlock              00000001801ca5d8 f   libucrt:locks.obj
 0001:001c95f4       __acrt_get_process_end_policy 00000001801ca5f4 f   libucrt:win_policies.obj
 0001:001c9644       ??$__acrt_mbs_to_wcs_cp@U__crt_win32_buffer_internal_dynamic_resizing@@@@YAHQEBDAEAV?$__crt_win32_buffer@_WU__crt_win32_buffer_internal_dynamic_resizing@@@@I@Z 00000001801ca644 f i libucrt:argv_wildcards.obj
 0001:001c97bc       ??$__acrt_wcs_to_mbs_cp@U__crt_win32_buffer_internal_dynamic_resizing@@@@YAHQEB_WAEAV?$__crt_win32_buffer@DU__crt_win32_buffer_internal_dynamic_resizing@@@@I@Z 00000001801ca7bc f i libucrt:argv_wildcards.obj
 0001:001c9fec       __acrt_expand_narrow_argv_wildcards 00000001801cafec f   libucrt:argv_wildcards.obj
 0001:001c9ff4       ??$__acrt_wcs_to_mbs_cp@U__crt_win32_buffer_no_resizing@@@@YAHQEB_WAEAV?$__crt_win32_buffer@DU__crt_win32_buffer_no_resizing@@@@I@Z 00000001801caff4 f i libucrt:getmodulefilenamea.obj
 0001:001ca108       __acrt_GetModuleFileNameA  00000001801cb108 f   libucrt:getmodulefilenamea.obj
 0001:001ca950       __acrt_initialize_multibyte 00000001801cb950 f   libucrt:mbctype.obj
 0001:001ca9b0       __acrt_update_thread_multibyte_data 00000001801cb9b0 f   libucrt:mbctype.obj
 0001:001ca9cc       _setmbcp_nolock            00000001801cb9cc f   libucrt:mbctype.obj
 0001:001cad00       _ismbblead                 00000001801cbd00 f   libucrt:ismbbyte.obj
 0001:001cad14       __acrt_initialize_command_line 00000001801cbd14 f   libucrt:argv_data.obj
 0001:001cad3c       __acrt_MultiByteToWideChar 00000001801cbd3c f   libucrt:multibytetowidechar.obj
 0001:001cad98       __acrt_WideCharToMultiByte 00000001801cbd98 f   libucrt:widechartomultibyte.obj
 0001:001cae48       __dcrt_get_narrow_environment_from_os 00000001801cbe48 f   libucrt:get_environment_from_os.obj
 0001:001caf4c       _recalloc_base             00000001801cbf4c f   libucrt:recalloc.obj
 0001:001cafe4       __acrt_initialize_heap     00000001801cbfe4 f   libucrt:heap_handle.obj
 0001:001cb000       __acrt_uninitialize_heap   00000001801cc000 f   libucrt:heap_handle.obj
 0001:001cb00c       __acrt_execute_initializers 00000001801cc00c f   libucrt:shared_initialization.obj
 0001:001cb08c       __acrt_execute_uninitializers 00000001801cc08c f   libucrt:shared_initialization.obj
 0001:001cb0c8       __acrt_initialize_new_handler 00000001801cc0c8 f   libucrt:new_handler.obj
 0001:001cb0d0       _callnewh                  00000001801cc0d0 f   libucrt:new_handler.obj
 0001:001cb100       _query_new_handler         00000001801cc100 f   libucrt:new_handler.obj
 0001:001cb17c       __acrt_get_sigabrt_handler 00000001801cc17c f   libucrt:signal.obj
 0001:001cb1ac       __acrt_initialize_signal_handlers 00000001801cc1ac f   libucrt:signal.obj
 0001:001cb1cc       raise                      00000001801cc1cc f   libucrt:signal.obj
 0001:001cb438       __acrt_has_user_matherr    00000001801cc438 f   libucrt:matherr.obj
 0001:001cb458       __acrt_initialize_user_matherr 00000001801cc458 f   libucrt:matherr.obj
 0001:001cb460       __acrt_invoke_user_matherr 00000001801cc460 f   libucrt:matherr.obj
 0001:001cb490       __pctype_func              00000001801cc490 f   libucrt:ctype.obj
 0001:001cb4c0       _isctype_l                 00000001801cc4c0 f   libucrt:isctype.obj
 0001:001cb5e0       _get_fpsr                  00000001801cc5e0 f   libucrt:fpsr.obj
 0001:001cb5f0       _set_fpsr                  00000001801cc5f0 f   libucrt:fpsr.obj
 0001:001cb5fa       _fclrf                     00000001801cc5fa f   libucrt:fpsr.obj
 0001:001cb60e       _frnd                      00000001801cc60e f   libucrt:fpsr.obj
 0001:001cb630       _query_new_mode            00000001801cc630 f   libucrt:new_mode.obj
 0001:001cb638       __acrt_DownlevelLocaleNameToLCID 00000001801cc638 f   libucrt:lcidtoname_downlevel.obj
 0001:001cb6e8       _fclose_nolock             00000001801cc6e8 f   libucrt:fclose.obj
 0001:001cb76c       fclose                     00000001801cc76c f   libucrt:fclose.obj
 0001:001cb85c       _commit                    00000001801cc85c f   libucrt:commit.obj
 0001:001cc16c       _write                     00000001801cd16c f   libucrt:write.obj
 0001:001cc258       _write_nolock              00000001801cd258 f   libucrt:write.obj
 0001:001cc53c       __acrt_lowio_create_handle_array 00000001801cd53c f   libucrt:osfinfo.obj
 0001:001cc5e4       __acrt_lowio_destroy_handle_array 00000001801cd5e4 f   libucrt:osfinfo.obj
 0001:001cc634       __acrt_lowio_ensure_fh_exists 00000001801cd634 f   libucrt:osfinfo.obj
 0001:001cc6dc       __acrt_lowio_lock_fh       00000001801cd6dc f   libucrt:osfinfo.obj
 0001:001cc704       __acrt_lowio_unlock_fh     00000001801cd704 f   libucrt:osfinfo.obj
 0001:001cc72c       _free_osfhnd               00000001801cd72c f   libucrt:osfinfo.obj
 0001:001cc7e8       _get_osfhandle             00000001801cd7e8 f   libucrt:osfinfo.obj
 0001:001cc860       _isleadbyte_l              00000001801cd860 f i libucrt:_wctype.obj
 0001:001cc8ac       ?__mbrtowc_utf8@__crt_mbstring@@YA_KPEA_WPEBD_KPEAU_Mbstatet@@@Z 00000001801cd8ac f   libucrt:mbrtowc.obj
 0001:001cc8e8       ?__mbsrtowcs_utf8@__crt_mbstring@@YA_KPEA_WPEAPEBD_KPEAU_Mbstatet@@@Z 00000001801cd8e8 f   libucrt:mbrtowc.obj
 0001:001cca60       ?__c32rtomb_utf8@__crt_mbstring@@YA_KPEAD_UPEAU_Mbstatet@@@Z 00000001801cda60 f   libucrt:c32rtomb.obj
 0001:001ccb14       __acrt_add_locale_ref      00000001801cdb14 f   libucrt:locale_refcounting.obj
 0001:001ccba0       __acrt_free_locale         00000001801cdba0 f   libucrt:locale_refcounting.obj
 0001:001ccd18       __acrt_locale_add_lc_time_reference 00000001801cdd18 f   libucrt:locale_refcounting.obj
 0001:001ccd40       __acrt_locale_free_lc_time_if_unreferenced 00000001801cdd40 f   libucrt:locale_refcounting.obj
 0001:001ccd78       __acrt_locale_release_lc_time_reference 00000001801cdd78 f   libucrt:locale_refcounting.obj
 0001:001ccda0       __acrt_release_locale_ref  00000001801cdda0 f   libucrt:locale_refcounting.obj
 0001:001cce48       __acrt_update_thread_locale_data 00000001801cde48 f   libucrt:locale_refcounting.obj
 0001:001cceb8       _updatetlocinfoEx_nolock   00000001801cdeb8 f   libucrt:locale_refcounting.obj
 0001:001ccf20       __acrt_fp_strflt_to_string 00000001801cdf20 f   libucrt:_fptostr.obj
 0001:001cd080       ?divide@__crt_strtox@@YA_KAEAUbig_integer@1@AEBU21@@Z 00000001801ce080 f i libucrt:cfout.obj
 0001:001cd4ac       __acrt_fltout              00000001801ce4ac f   libucrt:cfout.obj
 0001:001ce778       fegetround                 00000001801cf778 f   libucrt:fegetround.obj
 0001:001ce8ec       __acrt_stdio_flush_and_write_narrow_nolock 00000001801cf8ec f   libucrt:_flsbuf.obj
 0001:001ce9a4       _isatty                    00000001801cf9a4 f   libucrt:isatty.obj
 0001:001cea04       __acrt_locale_free_monetary 00000001801cfa04 f   libucrt:initmon.obj
 0001:001ceb10       __acrt_locale_free_numeric 00000001801cfb10 f   libucrt:initnum.obj
 0001:001cebd4       __acrt_locale_free_time    00000001801cfbd4 f   libucrt:inittime.obj
 0001:001cecdc       __acrt_GetStringTypeA      00000001801cfcdc f   libucrt:getstringtypea.obj
 0001:001cee6c       _raise_exc                 00000001801cfe6c f   libucrt:fpexcept.obj
 0001:001cee94       _raise_exc_ex              00000001801cfe94 f   libucrt:fpexcept.obj
 0001:001cf1a4       _raise_excf                00000001801d01a4 f   libucrt:fpexcept.obj
 0001:001cf1d0       _set_errno_from_matherr    00000001801d01d0 f   libucrt:fpexcept.obj
 0001:001cf200       qsort                      00000001801d0200 f   libucrt:qsort.obj
 0001:001cf5a0       strncpy_s                  00000001801d05a0 f   libucrt:strncpy_s.obj
 0001:001cf720       strpbrk                    00000001801d0720 f   libucrt:strpbrk.obj
 0001:001cfae8       _mbsdec                    00000001801d0ae8 f   libucrt:mbsdec.obj
 0001:001cfaf0       _mbsdec_l                  00000001801d0af0 f   libucrt:mbsdec.obj
 0001:001cfe9c       __acrt_LCMapStringA        00000001801d0e9c f   libucrt:lcmapstringa.obj
 0001:001cff4c       _msize_base                00000001801d0f4c f   libucrt:msize.obj
 0001:001cff88       _realloc_base              00000001801d0f88 f   libucrt:realloc_base.obj
 0001:001d0004       __ascii_wcsnicmp           00000001801d1004 f   libucrt:wcsnicmp.obj
 0001:001d00c4       _close                     00000001801d10c4 f   libucrt:close.obj
 0001:001d0168       _close_nolock              00000001801d1168 f   libucrt:close.obj
 0001:001d0228       ?__acrt_stdio_free_stream@@YAXV__crt_stdio_stream@@@Z 00000001801d1228 f   libucrt:stream.obj
 0001:001d03d0       _lseeki64                  00000001801d13d0 f   libucrt:lseek.obj
 0001:001d03d8       _lseeki64_nolock           00000001801d13d8 f   libucrt:lseek.obj
 0001:001d03e0       _putwch_nolock             00000001801d13e0 f   libucrt:putwch.obj
 0001:001d041c       _query_app_type            00000001801d141c f   libucrt:report_runtime_error.obj
 0001:001d0424       ?__mbrtoc32_utf8@__crt_mbstring@@YA_KPEA_UPEBD_KPEAU_Mbstatet@@@Z 00000001801d1424 f   libucrt:mbrtoc32.obj
 0001:001d05fc       _controlfp_s               00000001801d15fc f   libucrt:contrlfp.obj
 0001:001d0660       fegetenv                   00000001801d1660 f   libucrt:fegetenv.obj
 0001:001d0680       fesetenv                   00000001801d1680 f   libucrt:fesetenv.obj
 0001:001d06cc       feholdexcept               00000001801d16cc f   libucrt:feholdexcept.obj
 0001:001d071c       ceil                       00000001801d171c f   libucrt:ceil.obj
 0001:001d07e0       log10                      00000001801d17e0 f   libucrt:log10.obj
 0001:001d0d8c       __acrt_fenv_get_common_round_control 00000001801d1d8c f   libucrt:_fenvutils.obj
 0001:001d0d98       __acrt_fenv_get_control    00000001801d1d98 f   libucrt:_fenvutils.obj
 0001:001d0e8c       __acrt_fenv_get_status     00000001801d1e8c f   libucrt:_fenvutils.obj
 0001:001d0ee0       __acrt_fenv_set_control    00000001801d1ee0 f   libucrt:_fenvutils.obj
 0001:001d1028       __acrt_fenv_set_status     00000001801d2028 f   libucrt:_fenvutils.obj
 0001:001d10ac       __acrt_stdio_allocate_buffer_nolock 00000001801d20ac f   libucrt:_getbuf.obj
 0001:001d1118       __strncnt                  00000001801d2118 f   libucrt:strncnt.obj
 0001:001d1130       __dcrt_lowio_ensure_console_output_initialized 00000001801d2130 f   libucrt:initcon.obj
 0001:001d1184       __dcrt_terminate_console_output 00000001801d2184 f   libucrt:initcon.obj
 0001:001d11a0       __dcrt_write_console       00000001801d21a0 f   libucrt:initcon.obj
 0001:001d1260       _clearfp                   00000001801d2260 f   libucrt:ieee.obj
 0001:001d12d0       _control87                 00000001801d22d0 f   libucrt:ieee.obj
 0001:001d15a0       _log10_special             00000001801d25a0 f   libucrt:log_special.obj
 0001:001d1660       _FindPESection             00000001801d2660 f   LIBCMT:pesect.obj
 0001:001d16b0       _IsNonwritableInCurrentImage 00000001801d26b0 f   LIBCMT:pesect.obj
 0001:001d1700       _ValidateImageBase         00000001801d2700 f   LIBCMT:pesect.obj
 0001:001d172c       __GSHandlerCheck           00000001801d272c f   LIBCMT:gshandler.obj
 0001:001d174c       __GSHandlerCheckCommon     00000001801d274c f   LIBCMT:gshandler.obj
 0001:001d17c0       __security_check_cookie    00000001801d27c0 f   LIBCMT:amdsecgs.obj
 0001:001d17e0       __GSHandlerCheck_SEH       00000001801d27e0 f   LIBCMT:gshandlerseh.obj
 0001:001d1868       __raise_securityfailure    00000001801d2868 f   LIBCMT:gs_report.obj
 0001:001d189c       __report_gsfailure         00000001801d289c f   LIBCMT:gs_report.obj
 0001:001d1970       __report_rangecheckfailure 00000001801d2970 f   LIBCMT:gs_report.obj
 0001:001d1984       __report_securityfailure   00000001801d2984 f   LIBCMT:gs_report.obj
 0001:001d1b04       strrchr                    00000001801d2b04 f   libvcruntime:strrchr.obj
 0001:001d1c50       memcmp                     00000001801d2c50 f   libvcruntime:memcmp.obj
 0001:001d1d30       _guard_dispatch_icall_nop  00000001801d2d30 f   LIBCMT:guard_dispatch.obj
 0001:001d1d50       _guard_xfg_dispatch_icall_nop 00000001801d2d50 f   LIBCMT:guard_xfg_dispatch.obj
 0002:00000000       __imp_GetLastError         00000001801d4000     kernel32:KERNEL32.dll
 0002:00000008       __imp_FreeLibrary          00000001801d4008     kernel32:KERNEL32.dll
 0002:00000010       __imp_GetProcAddress       00000001801d4010     kernel32:KERNEL32.dll
 0002:00000018       __imp_LoadLibraryA         00000001801d4018     kernel32:KERNEL32.dll
 0002:00000020       __imp_WriteConsoleW        00000001801d4020     kernel32:KERNEL32.dll
 0002:00000028       __imp_RaiseException       00000001801d4028     kernel32:KERNEL32.dll
 0002:00000030       __imp_GetSystemInfo        00000001801d4030     kernel32:KERNEL32.dll
 0002:00000038       __imp_VirtualProtect       00000001801d4038     kernel32:KERNEL32.dll
 0002:00000040       __imp_VirtualQuery         00000001801d4040     kernel32:KERNEL32.dll
 0002:00000048       __imp_GetModuleHandleW     00000001801d4048     kernel32:KERNEL32.dll
 0002:00000050       __imp_LoadLibraryExA       00000001801d4050     kernel32:KERNEL32.dll
 0002:00000058       __imp_InitializeSListHead  00000001801d4058     kernel32:KERNEL32.dll
 0002:00000060       __imp_RtlCaptureContext    00000001801d4060     kernel32:KERNEL32.dll
 0002:00000068       __imp_RtlLookupFunctionEntry 00000001801d4068     kernel32:KERNEL32.dll
 0002:00000070       __imp_RtlVirtualUnwind     00000001801d4070     kernel32:KERNEL32.dll
 0002:00000078       __imp_IsDebuggerPresent    00000001801d4078     kernel32:KERNEL32.dll
 0002:00000080       __imp_UnhandledExceptionFilter 00000001801d4080     kernel32:KERNEL32.dll
 0002:00000088       __imp_SetUnhandledExceptionFilter 00000001801d4088     kernel32:KERNEL32.dll
 0002:00000090       __imp_GetStartupInfoW      00000001801d4090     kernel32:KERNEL32.dll
 0002:00000098       __imp_IsProcessorFeaturePresent 00000001801d4098     kernel32:KERNEL32.dll
 0002:000000a0       __imp_QueryPerformanceCounter 00000001801d40a0     kernel32:KERNEL32.dll
 0002:000000a8       __imp_GetCurrentProcessId  00000001801d40a8     kernel32:KERNEL32.dll
 0002:000000b0       __imp_GetCurrentThreadId   00000001801d40b0     kernel32:KERNEL32.dll
 0002:000000b8       __imp_GetSystemTimeAsFileTime 00000001801d40b8     kernel32:KERNEL32.dll
 0002:000000c0       __imp_InterlockedPushEntrySList 00000001801d40c0     kernel32:KERNEL32.dll
 0002:000000c8       __imp_InterlockedFlushSList 00000001801d40c8     kernel32:KERNEL32.dll
 0002:000000d0       __imp_RtlUnwindEx          00000001801d40d0     kernel32:KERNEL32.dll
 0002:000000d8       __imp_SetLastError         00000001801d40d8     kernel32:KERNEL32.dll
 0002:000000e0       __imp_EnterCriticalSection 00000001801d40e0     kernel32:KERNEL32.dll
 0002:000000e8       __imp_LeaveCriticalSection 00000001801d40e8     kernel32:KERNEL32.dll
 0002:000000f0       __imp_DeleteCriticalSection 00000001801d40f0     kernel32:KERNEL32.dll
 0002:000000f8       __imp_InitializeCriticalSectionAndSpinCount 00000001801d40f8     kernel32:KERNEL32.dll
 0002:00000100       __imp_TlsAlloc             00000001801d4100     kernel32:KERNEL32.dll
 0002:00000108       __imp_TlsGetValue          00000001801d4108     kernel32:KERNEL32.dll
 0002:00000110       __imp_TlsSetValue          00000001801d4110     kernel32:KERNEL32.dll
 0002:00000118       __imp_TlsFree              00000001801d4118     kernel32:KERNEL32.dll
 0002:00000120       __imp_LoadLibraryExW       00000001801d4120     kernel32:KERNEL32.dll
 0002:00000128       __imp_EncodePointer        00000001801d4128     kernel32:KERNEL32.dll
 0002:00000130       __imp_RtlPcToFileHeader    00000001801d4130     kernel32:KERNEL32.dll
 0002:00000138       __imp_RtlUnwind            00000001801d4138     kernel32:KERNEL32.dll
 0002:00000140       __imp_GetCurrentProcess    00000001801d4140     kernel32:KERNEL32.dll
 0002:00000148       __imp_ExitProcess          00000001801d4148     kernel32:KERNEL32.dll
 0002:00000150       __imp_TerminateProcess     00000001801d4150     kernel32:KERNEL32.dll
 0002:00000158       __imp_GetModuleHandleExW   00000001801d4158     kernel32:KERNEL32.dll
 0002:00000160       __imp_GetModuleFileNameW   00000001801d4160     kernel32:KERNEL32.dll
 0002:00000168       __imp_HeapAlloc            00000001801d4168     kernel32:KERNEL32.dll
 0002:00000170       __imp_HeapFree             00000001801d4170     kernel32:KERNEL32.dll
 0002:00000178       __imp_LCMapStringW         00000001801d4178     kernel32:KERNEL32.dll
 0002:00000180       __imp_GetStdHandle         00000001801d4180     kernel32:KERNEL32.dll
 0002:00000188       __imp_GetFileType          00000001801d4188     kernel32:KERNEL32.dll
 0002:00000190       __imp_FindClose            00000001801d4190     kernel32:KERNEL32.dll
 0002:00000198       __imp_FindFirstFileExW     00000001801d4198     kernel32:KERNEL32.dll
 0002:000001a0       __imp_FindNextFileW        00000001801d41a0     kernel32:KERNEL32.dll
 0002:000001a8       __imp_IsValidCodePage      00000001801d41a8     kernel32:KERNEL32.dll
 0002:000001b0       __imp_GetACP               00000001801d41b0     kernel32:KERNEL32.dll
 0002:000001b8       __imp_GetOEMCP             00000001801d41b8     kernel32:KERNEL32.dll
 0002:000001c0       __imp_GetCPInfo            00000001801d41c0     kernel32:KERNEL32.dll
 0002:000001c8       __imp_GetCommandLineA      00000001801d41c8     kernel32:KERNEL32.dll
 0002:000001d0       __imp_GetCommandLineW      00000001801d41d0     kernel32:KERNEL32.dll
 0002:000001d8       __imp_MultiByteToWideChar  00000001801d41d8     kernel32:KERNEL32.dll
 0002:000001e0       __imp_WideCharToMultiByte  00000001801d41e0     kernel32:KERNEL32.dll
 0002:000001e8       __imp_GetEnvironmentStringsW 00000001801d41e8     kernel32:KERNEL32.dll
 0002:000001f0       __imp_FreeEnvironmentStringsW 00000001801d41f0     kernel32:KERNEL32.dll
 0002:000001f8       __imp_GetProcessHeap       00000001801d41f8     kernel32:KERNEL32.dll
 0002:00000200       __imp_FlushFileBuffers     00000001801d4200     kernel32:KERNEL32.dll
 0002:00000208       __imp_WriteFile            00000001801d4208     kernel32:KERNEL32.dll
 0002:00000210       __imp_GetConsoleOutputCP   00000001801d4210     kernel32:KERNEL32.dll
 0002:00000218       __imp_GetConsoleMode       00000001801d4218     kernel32:KERNEL32.dll
 0002:00000220       __imp_SetStdHandle         00000001801d4220     kernel32:KERNEL32.dll
 0002:00000228       __imp_GetFileSizeEx        00000001801d4228     kernel32:KERNEL32.dll
 0002:00000230       __imp_SetFilePointerEx     00000001801d4230     kernel32:KERNEL32.dll
 0002:00000238       __imp_GetStringTypeW       00000001801d4238     kernel32:KERNEL32.dll
 0002:00000240       __imp_HeapSize             00000001801d4240     kernel32:KERNEL32.dll
 0002:00000248       __imp_HeapReAlloc          00000001801d4248     kernel32:KERNEL32.dll
 0002:00000250       __imp_CloseHandle          00000001801d4250     kernel32:KERNEL32.dll
 0002:00000258       __imp_CreateFileW          00000001801d4258     kernel32:KERNEL32.dll
 0002:00000260       \177KERNEL32_NULL_THUNK_DATA 00000001801d4260     kernel32:KERNEL32.dll
 0002:00000268       __guard_check_icall_fptr   00000001801d4268     LIBCMT:guard_support.obj
 0002:00000270       __guard_xfg_check_icall_fptr 00000001801d4270     LIBCMT:guard_support.obj
 0002:00000278       __guard_dispatch_icall_fptr 00000001801d4278     LIBCMT:guard_support.obj
 0002:00000280       __guard_xfg_dispatch_icall_fptr 00000001801d4280     LIBCMT:guard_support.obj
 0002:00000288       __guard_xfg_table_dispatch_icall_fptr 00000001801d4288     LIBCMT:guard_support.obj
 0002:00000290       __castguard_check_failure_os_handled_fptr 00000001801d4290     LIBCMT:guard_support.obj
 0002:00000298       __guard_memcpy_fptr        00000001801d4298     libvcruntime:softmemtag.obj
 0002:000002a0       __xc_a                     00000001801d42a0     LIBCMT:initializers.obj
 0002:00001b58       __xc_z                     00000001801d5b58     LIBCMT:initializers.obj
 0002:00001b60       __xi_a                     00000001801d5b60     LIBCMT:initializers.obj
 0002:00001b68       __acrt_stdio_initializer   00000001801d5b68     libucrt:stdio_initializer.obj
 0002:00001b70       __acrt_tran_fma3_initializer 00000001801d5b70     libucrt:fma3_initializer.obj
 0002:00001b78       __acrt_multibyte_initializer 00000001801d5b78     libucrt:multibyte_initializer.obj
 0002:00001b80       __xi_z                     00000001801d5b80     LIBCMT:initializers.obj
 0002:00001b88       __xp_a                     00000001801d5b88     LIBCMT:initializers.obj
 0002:00001b90       __acrt_locale_terminator   00000001801d5b90     libucrt:locale_initializer.obj
 0002:00001b98       __dcrt_console_output_terminator 00000001801d5b98     libucrt:console_output_initializer.obj
 0002:00001ba0       __acrt_stdio_terminator    00000001801d5ba0     libucrt:stdio_initializer.obj
 0002:00001ba8       __xp_z                     00000001801d5ba8     LIBCMT:initializers.obj
 0002:00001bb0       __xt_a                     00000001801d5bb0     LIBCMT:initializers.obj
 0002:00001bb8       __xt_z                     00000001801d5bb8     LIBCMT:initializers.obj
 0002:00001bc0       ??_C@_08MDGMHCHN@PtrTable@ 00000001801d5bc0     CmPtrTable.obj
 0002:00001bcc       ??_C@_04GKJNKENE@void@     00000001801d5bcc     CmPtrTable.obj
 0002:00001bd8       ??_C@_07DFEBJDHE@mSingle@  00000001801d5bd8     CmPtrTable.obj
 0002:00001be0       ??_C@_05NLHHBMOH@PxU16@    00000001801d5be0     CmPtrTable.obj
 0002:00001be8       ??_C@_06EPKHJPIM@mCount@   00000001801d5be8     CmPtrTable.obj
 0002:00001bf0       ??_C@_04DDKJGDCM@bool@     00000001801d5bf0     CmPtrTable.obj
 0002:00001bf8       ??_C@_0M@DAGELID@mOwnsMemory@ 00000001801d5bf8     CmPtrTable.obj
 0002:00001c08       ??_C@_0M@MMPOMMLP@mBufferUsed@ 00000001801d5c08     CmPtrTable.obj
 0002:00001c14       ??_C@_05LMJPANIN@PxU32@    00000001801d5c14     CmPtrTable.obj
 0002:00001c20       ??_C@_09PMLNMEMN@mFreeSlot@ 00000001801d5c20     CmPtrTable.obj
 0002:00001c30       ??_7PxCollection@physx@@6B@ 00000001801d5c30     CmCollection.obj
 0002:00001cb0       ??_C@_00CNPNBAHC@@         00000001801d5cb0     CmCollection.obj
 0002:00001cb8       ??_7Collection@Cm@physx@@6B@ 00000001801d5cb8     CmCollection.obj
 0002:00001d40       ??_C@_0GE@GBACBMOC@PxCollection?3?3add?5called?5for?5an@ 00000001801d5d40     CmCollection.obj
 0002:00001db0       ??_C@_0ED@ECJNNOBB@C?3?2Programming?2Libs?2PhysX?2physx@ 00000001801d5db0     CmCollection.obj
 0002:00001e00       ??_C@_0EM@OMMGDOMK@PxCollection?3?3add?5called?5with?5a@ 00000001801d5e00     CmCollection.obj
 0002:00001e50       ??_C@_0EL@CBFFIHFG@PxCollection?3?3remove?5called?5for@ 00000001801d5e50     CmCollection.obj
 0002:00001ea0       ??_C@_0EP@DBNENNLL@PxCollection?3?3addId?5called?5for?5@ 00000001801d5ea0     CmCollection.obj
 0002:00001ef0       ??_C@_0FL@DACPFKDD@PxCollection?3?3addId?5called?5with@ 00000001801d5ef0     CmCollection.obj
 0002:00001f50       ??_C@_0EP@GMPAMDKI@PxCollection?3?3addId?5called?5with@ 00000001801d5f50     CmCollection.obj
 0002:00001fa0       ??_C@_0FO@DIHIGAFD@PxCollection?3?3removeId?5called?5w@ 00000001801d5fa0     CmCollection.obj
 0002:00002000       ??_C@_0FF@MENHIPMD@PxCollection?3?3removeId?5called?5w@ 00000001801d6000     CmCollection.obj
 0002:00002060       ??_C@_0FK@BAFICJEM@PxCollection?3?3find?5called?5with?5@ 00000001801d6060     CmCollection.obj
 0002:000020c0       ??_C@_0DF@CLGAFPLL@PxCollection?3?3add?$CIPxCollection?$CG@ 00000001801d60c0     CmCollection.obj
 0002:000020f8       ??_C@_0DN@DMJACFO@PxCollection?3?3add?$CIPxCollection?$CG@ 00000001801d60f8     CmCollection.obj
 0002:00002138       ??_C@_0DI@DICAIAPC@PxCollection?3?3remove?$CIPxCollecti@ 00000001801d6138     CmCollection.obj
 0002:00002170       ??_C@_0DG@LOILDLGN@PxCollection?3?3getObjects?5called@ 00000001801d6170     CmCollection.obj
 0002:000021a8       ??_C@_0DD@GMICJLDJ@PxCollection?3?3getObjects?5called@ 00000001801d61a8     CmCollection.obj
 0002:000021e0       ??_C@_0DC@GILGGBAI@PxCollection?3?3getIds?5called?5wit@ 00000001801d61e0     CmCollection.obj
 0002:00002218       ??_C@_0CP@LFEKADKN@PxCollection?3?3getIds?5called?5wit@ 00000001801d6218     CmCollection.obj
 0002:00002250       ??_C@_0EF@KMHCOFBI@C?3?2Programming?2Libs?2PhysX?2physx@ 00000001801d6250     CmCollection.obj
 0002:00002298       ??_C@_0BM@OIFKLHDN@?$DMallocation?5names?5disabled?$DO@ 00000001801d6298     CmCollection.obj
 0002:000022b8       ??_7RadixSort@Cm@physx@@6B@ 00000001801d62b8     CmRadixSort.obj
 0002:000022c0       ??_7RadixSortBuffered@Cm@physx@@6B@ 00000001801d62c0     CmRadixSort.obj
 0002:000022d0       ??_C@_0EC@PHNGBPBI@C?3?2Programming?2Libs?2PhysX?2physx@ 00000001801d62d0     CmRadixSort.obj
 0002:00002320       __xmm@00000001000000010000000100000001 00000001801d6320     CmRadixSort.obj
 0002:00002330       __xmm@00000003000000020000000100000000 00000001801d6330     CmRadixSort.obj
 0002:00002340       __real@343bbd2e            00000001801d6340     CmVisualization.obj
 0002:00002344       __real@3d00adfd            00000001801d6344     CmVisualization.obj
 0002:00002348       __real@3d4ccccd            00000001801d6348     CmVisualization.obj
 0002:0000234c       __real@3d80adfd            00000001801d634c     CmVisualization.obj
 0002:00002350       __real@3e19999a            00000001801d6350     CmVisualization.obj
 0002:00002354       __real@3e490fdb            00000001801d6354     CmVisualization.obj
 0002:00002358       __real@3e800000            00000001801d6358     CmVisualization.obj
 0002:0000235c       __real@3e99999a            00000001801d635c     CmVisualization.obj
 0002:00002360       __real@3ea0d97c            00000001801d6360     CmVisualization.obj
 0002:00002364       __real@3eddb3d7            00000001801d6364     CmVisualization.obj
 0002:00002368       __real@3f3504f3            00000001801d6368     CmVisualization.obj
 0002:0000236c       __real@3f800000            00000001801d636c     CmVisualization.obj
 0002:00002370       __real@3fc00000            00000001801d6370     CmVisualization.obj
 0002:00002374       __real@3fddb3d7            00000001801d6374     CmVisualization.obj
 0002:00002378       __real@40100000            00000001801d6378     CmVisualization.obj
 0002:0000237c       __real@40490fdb            00000001801d637c     CmVisualization.obj
 0002:00002380       __real@40c90fdb            00000001801d6380     CmVisualization.obj
 0002:00002384       __real@b3bbbd2e            00000001801d6384     CmVisualization.obj
 0002:00002388       __real@bfddb3d7            00000001801d6388     CmVisualization.obj
 0002:0000238c       __real@c0000000            00000001801d638c     CmVisualization.obj
 0002:00002390       __xmm@3f800000000000000000000000000000 00000001801d6390     CmVisualization.obj
 0002:000023a0       __xmm@7fffffff7fffffff7fffffff7fffffff 00000001801d63a0     CmVisualization.obj
 0002:000023b0       __xmm@80000000800000008000000080000000 00000001801d63b0     CmVisualization.obj
 0002:000023c0       ??_C@_0BB@CPDDPFKD@GetUpdatedModule@ 00000001801d63c0     CmWindowsModuleUpdateLoader.obj
 0002:000023e0       ??_C@_0FK@FDENDHGL@C?3?2Programming?2Libs?2PhysX?2physx@ 00000001801d63e0     CmWindowsModuleUpdateLoader.obj
 0002:00002440       ??_C@_0CP@PGOIOJOO@?$CFs?3?$CFi?3?5loadLibrary?5error?5when?5l@ 00000001801d6440     CmWindowsModuleUpdateLoader.obj
 0002:00002470       ??_C@_0BA@EGLNOO@PhysXFoundation@ 00000001801d6470     CmWindowsDelayLoadHook.obj
 0002:00002480       ??_C@_0M@ILKNCJKN@PhysXCommon@ 00000001801d6480     CmWindowsDelayLoadHook.obj
 0002:000024b0       __real@3f000000            00000001801d64b0     GuBox.obj
 0002:000024b4       __real@3f7ff972            00000001801d64b4     GuBox.obj
 0002:000024c0       __xmm@000000003a83126f3a83126f3a83126f 00000001801d64c0     GuBox.obj
 0002:000024d0       __xmm@00000000ba83126fba83126fba83126f 00000001801d64d0     GuBox.obj
 0002:000024e0       __xmm@3a83126f3a83126f3a83126f3a83126f 00000001801d64e0     GuBox.obj
 0002:000024f0       __xmm@ba83126fba83126fba83126fba83126f 00000001801d64f0     GuBox.obj
 0002:00002520       ??_7EntityReport@Gu@physx@@6B@ 00000001801d6520     GuSweepsHF.obj
 0002:00002520       ??_7OverlapCallback@PxBVH@physx@@6B@ 00000001801d6520     GuQuerySystem.obj
 0002:00002520       ??_7OverlapReport@Gu@physx@@6B@ 00000001801d6520     GuCCTSweepTests.obj
 0002:00002520       ??_7RaycastCallback@PxBVH@physx@@6B@ 00000001801d6520     GuQuerySystem.obj
 0002:00002520       ??_7RemapCallback@RTreeCooker@physx@@6B@ 00000001801d6520     GuCookingTriangleMesh.obj
 0002:00002540       __real@3b03126f            00000001801d6540     GuCCTSweepTests.obj
 0002:00002544       __real@40000000            00000001801d6544     GuCCTSweepTests.obj
 0002:00002580       ??_C@_0CD@CGJJEFHC@Gu?3?3overlap?$CI?$CJ?3?5pose0?5is?5not?5val@ 00000001801d6580     GuGeometryQuery.obj
 0002:000025b0       ??_C@_0EK@FEOANLJK@C?3?2Programming?2Libs?2PhysX?2physx@ 00000001801d65b0     GuGeometryQuery.obj
 0002:00002600       ??_C@_0CD@IIPBNEOD@Gu?3?3overlap?$CI?$CJ?3?5pose1?5is?5not?5val@ 00000001801d6600     GuGeometryQuery.obj
 0002:00002628       ??_7SupportLocal@Gu@physx@@6B@ 00000001801d6628     GuGeometryQuery.obj
 0002:00002648       ??_C@_0CO@DGHGHPPJ@PxGeometryQuery?3?3sweep?$CI?$CJ?3?5pose0@ 00000001801d6648     GuGeometryQuery.obj
 0002:00002680       ??_C@_0EJ@EANICOCC@C?3?2Programming?2Libs?2PhysX?2physx@ 00000001801d6680     GuGeometryQuery.obj
 0002:000026d0       ??_C@_0CO@JIBOOOGI@PxGeometryQuery?3?3sweep?$CI?$CJ?3?5pose1@ 00000001801d66d0     GuGeometryQuery.obj
 0002:00002700       ??_C@_0DA@JEEBDBEM@PxGeometryQuery?3?3sweep?$CI?$CJ?3?5unitD@ 00000001801d6700     GuGeometryQuery.obj
 0002:00002730       ??_C@_0DB@KCEKJBPE@PxGeometryQuery?3?3sweep?$CI?$CJ?3?5dista@ 00000001801d6730     GuGeometryQuery.obj
 0002:00002770       ??_C@_0FM@HAJNNJNC@PxGeometryQuery?3?3sweep?$CI?$CJ?3?5sweep@ 00000001801d6770     GuGeometryQuery.obj
 0002:000027d0       ??_C@_0CB@JDDBKCNL@Provided?5geometry?50?5is?5not?5vali@ 00000001801d67d0     GuGeometryQuery.obj
 0002:000027f8       ??_C@_0CB@CKMKHJDD@Provided?5geometry?51?5is?5not?5vali@ 00000001801d67f8     GuGeometryQuery.obj
 0002:00002820       ??_C@_0GL@GJKJELMB@PxGeometryQuery?3?3sweep?$CI?$CJ?3?5first@ 00000001801d6820     GuGeometryQuery.obj
 0002:00002890       ??_C@_0DB@OMDGMOND@PxGeometryQuery?3?3raycast?$CI?$CJ?3?5ray@ 00000001801d6890     GuGeometryQuery.obj
 0002:000028c8       ??_C@_0DE@MGFNMBNA@PxGeometryQuery?3?3raycast?$CI?$CJ?3?5ray@ 00000001801d68c8     GuGeometryQuery.obj
 0002:00002900       ??_C@_0CP@NHLDPNEB@PxGeometryQuery?3?3raycast?$CI?$CJ?3?5pos@ 00000001801d6900     GuGeometryQuery.obj
 0002:00002930       ??_C@_0DB@HPNPNEMP@PxGeometryQuery?3?3raycast?$CI?$CJ?3?5max@ 00000001801d6930     GuGeometryQuery.obj
 0002:00002968       ??_C@_0DC@BLMIOBO@PxGeometryQuery?3?3raycast?$CI?$CJ?3?5max@ 00000001801d6968     GuGeometryQuery.obj
 0002:000029a0       ??_C@_0DP@IPJGHFJE@PxGeometryQuery?3?3raycast?$CI?$CJ?3?5ray@ 00000001801d69a0     GuGeometryQuery.obj
 0002:000029e0       ??_C@_0DF@BMEFDPAL@PxGeometryQuery?3?3pointDistance?$CI@ 00000001801d69e0     GuGeometryQuery.obj
 0002:00002a20       ??_C@_0HD@CIHHMJFE@PxGeometryQuery?3?3pointDistance?$CI@ 00000001801d6a20     GuGeometryQuery.obj
 0002:00002a98       ??_C@_0DJ@FHLFMELL@PxGeometryQuery?3?3computeGeomBou@ 00000001801d6a98     GuGeometryQuery.obj
 0002:00002ad8       ??_C@_0DG@IHHENNM@PxGeometryQuery?3?3getWorldBounds@ 00000001801d6ad8     GuGeometryQuery.obj
 0002:00002b10       ??_C@_0DL@LECAKFBF@PxGeometryQuery?3?3computePenetra@ 00000001801d6b10     GuGeometryQuery.obj
 0002:00002b50       ??_C@_0DL@BKEIDEIE@PxGeometryQuery?3?3computePenetra@ 00000001801d6b50     GuGeometryQuery.obj
 0002:00002b90       ??_7?$SupportLocalImpl@VBoxV@Gu@physx@@@Gu@physx@@6B@ 00000001801d6b90     GuGeometryQuery.obj
 0002:00002bb0       ??_7?$SupportLocalImpl@VConvexHullV@Gu@physx@@@Gu@physx@@6B@ 00000001801d6bb0     GuGeometryQuery.obj
 0002:00002bd0       ??_C@_0DN@EPNOAHHA@C?3?2Programming?2Libs?2PhysX?2physx@ 00000001801d6bd0     GuGeometryQuery.obj
 0002:00002c10       __real@30d1b7e9            00000001801d6c10     GuGeometryQuery.obj
 0002:00002c14       __real@322bcc77            00000001801d6c14     GuGeometryQuery.obj
 0002:00002c18       __real@358637bd            00000001801d6c18     GuGeometryQuery.obj
 0002:00002c1c       __real@38d1b717            00000001801d6c1c     GuGeometryQuery.obj
 0002:00002c20       __real@3a83126f            00000001801d6c20     GuGeometryQuery.obj
 0002:00002c24       __real@3ccccccd            00000001801d6c24     GuGeometryQuery.obj
 0002:00002c28       __real@3dcccccd            00000001801d6c28     GuGeometryQuery.obj
 0002:00002c2c       __real@49742400            00000001801d6c2c     GuGeometryQuery.obj
 0002:00002c30       __real@7f7fffff            00000001801d6c30     GuGeometryQuery.obj
 0002:00002c34       __real@bf800000            00000001801d6c34     GuGeometryQuery.obj
 0002:00002c40       __xmm@0000000000000000000000003f800000 00000001801d6c40     GuGeometryQuery.obj
 0002:00002c50       __xmm@00000000000000003f80000000000000 00000001801d6c50     GuGeometryQuery.obj
 0002:00002c60       __xmm@00000000000000003f8000003f800000 00000001801d6c60     GuGeometryQuery.obj
 0002:00002c70       __xmm@000000003f8000000000000000000000 00000001801d6c70     GuGeometryQuery.obj
 0002:00002c80       __xmm@000000003f8000003f8000003f800000 00000001801d6c80     GuGeometryQuery.obj
 0002:00002c90       __xmm@00000000ffffffffffffffffffffffff 00000001801d6c90     GuGeometryQuery.obj
 0002:00002ca0       __xmm@3d4ccccd3d4ccccd3d4ccccd3d4ccccd 00000001801d6ca0     GuGeometryQuery.obj
 0002:00002cb0       __xmm@3e19999a3e19999a3e19999a3e19999a 00000001801d6cb0     GuGeometryQuery.obj
 0002:00002cc0       __xmm@3e4ccccd3e4ccccd3e4ccccd3e4ccccd 00000001801d6cc0     GuGeometryQuery.obj
 0002:00002cd0       __xmm@3e8000003e8000003e8000003e800000 00000001801d6cd0     GuGeometryQuery.obj
 0002:00002ce0       __xmm@3f7ef9db3f7ef9db3f7ef9db3f7ef9db 00000001801d6ce0     GuGeometryQuery.obj
 0002:00002cf0       __xmm@3f7ff2e53f7ff2e53f7ff2e53f7ff2e5 00000001801d6cf0     GuGeometryQuery.obj
 0002:00002d00       __xmm@7f7fffff7f7fffff7f7fffff7f7fffff 00000001801d6d00     GuGeometryQuery.obj
 0002:00002d10       __xmm@bf000000bf000000bf000000bf000000 00000001801d6d10     GuGeometryQuery.obj
 0002:00002d40       ??_C@_0EH@NAANCAAO@C?3?2Programming?2Libs?2PhysX?2physx@ 00000001801d6d40     GuMeshFactory.obj
 0002:00002da0       ??_C@_0EM@BDFDGBD@Inserting?5object?5failed?3?5Object@ 00000001801d6da0     GuMeshFactory.obj
 0002:00002e10       ??_7CallbackRaycast@RTree@Gu@physx@@6B@ 00000001801d6e10     GuMidphaseRTree.obj
 0002:00002e10       ??_7CallbackRefit@RTree@Gu@physx@@6B@ 00000001801d6e10     GuTriangleMeshRTree.obj
 0002:00002e10       ??_7PxInsertionCallback@physx@@6B@ 00000001801d6e10     GuMeshFactory.obj
 0002:00002e20       ??_7PxCollisionMeshMappingData@physx@@6B@ 00000001801d6e20     GuMeshFactory.obj
 0002:00002e30       ??_7MeshFactory@Gu@physx@@6B@ 00000001801d6e30     GuMeshFactory.obj
 0002:00002e38       ??_7MeshDataBase@Gu@physx@@6B@ 00000001801d6e38     GuMeshFactory.obj
 0002:00002e40       ??_C@_0EH@DONLCOIJ@C?3?2Programming?2Libs?2PhysX?2physx@ 00000001801d6e40     GuMeshFactory.obj
 0002:00002e88       ??_7TriangleMeshData@Gu@physx@@6B@ 00000001801d6e88     GuMeshFactory.obj
 0002:00002e90       ??_7RTreeTriangleData@Gu@physx@@6B@ 00000001801d6e90     GuMeshFactory.obj
 0002:00002e98       ??_7BV4TriangleData@Gu@physx@@6B@ 00000001801d6e98     GuMeshFactory.obj
 0002:00002ea0       ??_7SoftBodyCollisionData@Gu@physx@@6B@ 00000001801d6ea0     GuMeshFactory.obj
 0002:00002ea8       ??_7CollisionMeshMappingData@Gu@physx@@6B@ 00000001801d6ea8     GuMeshFactory.obj
 0002:00002eb8       ??_7SoftBodySimulationData@Gu@physx@@6B@ 00000001801d6eb8     GuMeshFactory.obj
 0002:00002ec0       ??_C@_0GP@NHELMDAL@Loading?5triangle?5mesh?5failed?3?5D@ 00000001801d6ec0     GuMeshFactory.obj
 0002:00002f30       ??_C@_0BP@CDOKDACA@RTree?5binary?5image?5load?5error?4@ 00000001801d6f30     GuMeshFactory.obj
 0002:00002f50       ??_C@_0BN@MJPNIELF@BV4?5binary?5image?5load?5error?4@ 00000001801d6f50     GuMeshFactory.obj
 0002:00002f70       ??_C@_0BO@JDPABAOF@BV32?5binary?5image?5load?5error?4@ 00000001801d6f70     GuMeshFactory.obj
 0002:00002f90       ??_C@_0DN@EGLDAOAJ@C?3?2Programming?2Libs?2PhysX?2physx@ 00000001801d6f90     GuMeshFactory.obj
 0002:00002fd0       __xmm@cdcdcdcdcdcdcdcdcdcdcdcdcdcdcdcd 00000001801d6fd0     GuMeshFactory.obj
 0002:00002fe0       __xmm@fe7fffff7e7fffff7e7fffff7e7fffff 00000001801d6fe0     GuMeshFactory.obj
 0002:00003010       ??_C@_06EJKDJEDO@PxBase@   00000001801d7010     GuMetaData.obj
 0002:00003018       ??_C@_07GFCEJNGM@Valency@  00000001801d7018     GuMetaData.obj
 0002:00003020       ??_C@_07NHGKEEIN@mOffset@  00000001801d7020     GuMetaData.obj
 0002:00003028       ??_C@_0BB@BAGHBMNJ@BigConvexRawData@ 00000001801d7028     GuMetaData.obj
 0002:00003040       ??_C@_07PBDEJAAC@mSubdiv@  00000001801d7040     GuMetaData.obj
 0002:00003048       ??_C@_0L@HNPACPGH@mNbSamples@ 00000001801d7048     GuMetaData.obj
 0002:00003054       ??_C@_04NCKNBPPK@PxU8@     00000001801d7054     GuMetaData.obj
 0002:00003060       ??_C@_08DEPEKJNI@mSamples@ 00000001801d7060     GuMetaData.obj
 0002:00003070       ??_C@_08IJDNJBMI@mNbVerts@ 00000001801d7070     GuMetaData.obj
 0002:00003080       ??_C@_0M@MMKMIJAF@mNbAdjVerts@ 00000001801d7080     GuMetaData.obj
 0002:00003090       ??_C@_0L@EOKMNILC@mValencies@ 00000001801d7090     GuMetaData.obj
 0002:000030a0       ??_C@_0P@DLGEAMHJ@mAdjacentVerts@ 00000001801d70a0     GuMetaData.obj
 0002:000030b0       ??_C@_03NGLDENDA@SDF@      00000001801d70b0     GuMetaData.obj
 0002:000030b4       ??_C@_06KDGGGLIJ@PxVec3@   00000001801d70b4     GuMetaData.obj
 0002:000030bc       ??_C@_06GIEBFILM@PxReal@   00000001801d70bc     GuMetaData.obj
 0002:000030c8       ??_C@_0O@PFOPBKAM@BigConvexData@ 00000001801d70c8     GuMetaData.obj
 0002:000030d8       ??_C@_05PLKALGFN@mData@    00000001801d70d8     GuMetaData.obj
 0002:000030e0       ??_C@_08PEMCLHEM@mVBuffer@ 00000001801d70e0     GuMetaData.obj
 0002:000030f0       ??_C@_09FBMAGD@Alignment@  00000001801d70f0     GuMetaData.obj
 0002:00003100       ??_C@_0BE@KFHIBEEA@InternalObjectsData@ 00000001801d7100     GuMetaData.obj
 0002:00003118       ??_C@_07NKGFFIBH@mRadius@  00000001801d7118     GuMetaData.obj
 0002:00003120       ??_C@_08EHFCACAE@mExtents@ 00000001801d7120     GuMetaData.obj
 0002:00003130       ??_C@_0BA@LFMGGCBK@HullPolygonData@ 00000001801d7130     GuMetaData.obj
 0002:00003140       ??_C@_06BOHHGLB@mPlane@    00000001801d7140     GuMetaData.obj
 0002:00003148       ??_C@_06EHMLHGLN@mVRef8@   00000001801d7148     GuMetaData.obj
 0002:00003150       ??_C@_09BAHHHINI@mMinIndex@ 00000001801d7150     GuMetaData.obj
 0002:00003160       ??_C@_0P@GBLBPIPB@ConvexHullData@ 00000001801d7160     GuMetaData.obj
 0002:00003170       ??_C@_09JDCJAPKD@PxBounds3@ 00000001801d7170     GuMetaData.obj
 0002:0000317c       ??_C@_05NDNHIFA@mAABB@     00000001801d717c     GuMetaData.obj
 0002:00003188       ??_C@_0O@LNOGEMJI@mCenterOfMass@ 00000001801d7188     GuMetaData.obj
 0002:00003198       ??_C@_09CNMCBBKH@mPolygons@ 00000001801d7198     GuMetaData.obj
 0002:000031a8       ??_C@_0BC@KKPDCFJC@mBigConvexRawData@ 00000001801d71a8     GuMetaData.obj
 0002:000031c0       ??_C@_08MPNAAJLD@mSdfData@ 00000001801d71c0     GuMetaData.obj
 0002:000031d0       ??_C@_08ELDMKGKH@mNbEdges@ 00000001801d71d0     GuMetaData.obj
 0002:000031e0       ??_C@_0BA@CGLOHBAC@mNbHullVertices@ 00000001801d71e0     GuMetaData.obj
 0002:000031f0       ??_C@_0M@HGFFLLDM@mNbPolygons@ 00000001801d71f0     GuMetaData.obj
 0002:00003200       ??_C@_09BHJEMDGO@mInternal@ 00000001801d7200     GuMetaData.obj
 0002:00003210       ??_C@_0L@GMFHOMKA@ConvexMesh@ 00000001801d7210     GuMetaData.obj
 0002:00003220       ??_C@_09ILEBDLJH@mHullData@ 00000001801d7220     GuMetaData.obj
 0002:0000322c       ??_C@_03DKDIKGNC@mNb@      00000001801d722c     GuMetaData.obj
 0002:00003230       ??_C@_0P@ENLHFHMD@mBigConvexData@ 00000001801d7230     GuMetaData.obj
 0002:00003240       ??_C@_05ILALLCHK@mMass@    00000001801d7240     GuMetaData.obj
 0002:00003248       ??_C@_07DBPDADGB@PxMat33@  00000001801d7248     GuMetaData.obj
 0002:00003250       ??_C@_08FNBHNDBI@mInertia@ 00000001801d7250     GuMetaData.obj
 0002:00003260       ??_C@_0O@FCKNKLMJ@GuMeshFactory@ 00000001801d7260     GuMetaData.obj
 0002:00003270       ??_C@_0N@EGBCLMAK@mMeshFactory@ 00000001801d7270     GuMetaData.obj
 0002:00003280       ??_C@_0BE@CJJAMAMK@PxHeightFieldSample@ 00000001801d7280     GuMetaData.obj
 0002:00003294       ??_C@_05MBLIPEMA@PxI16@    00000001801d7294     GuMetaData.obj
 0002:0000329c       ??_C@_06LNLHEAAG@height@   00000001801d729c     GuMetaData.obj
 0002:000032a8       ??_C@_0N@HHDGHJN@PxBitAndByte@ 00000001801d72a8     GuMetaData.obj
 0002:000032b8       ??_C@_0P@MBBMLBO@materialIndex0@ 00000001801d72b8     GuMetaData.obj
 0002:000032c8       ??_C@_0P@BFAKPKFP@materialIndex1@ 00000001801d72c8     GuMetaData.obj
 0002:000032d8       ??_C@_0BD@EBLPJEOE@PxHeightFieldFlags@ 00000001801d72d8     GuMetaData.obj
 0002:000032f0       ??_C@_0BK@FNNCFFCN@PxHeightFieldFormat?3?3Enum@ 00000001801d72f0     GuMetaData.obj
 0002:00003310       ??_C@_0BA@CLNFMAAA@HeightFieldData@ 00000001801d7310     GuMetaData.obj
 0002:00003320       ??_C@_04IMCGAIPI@rows@     00000001801d7320     GuMetaData.obj
 0002:00003328       ??_C@_07HIFEPIJN@columns@  00000001801d7328     GuMetaData.obj
 0002:00003330       ??_C@_08MOAGOABI@rowLimit@ 00000001801d7330     GuMetaData.obj
 0002:00003340       ??_C@_08BAGEHOBO@colLimit@ 00000001801d7340     GuMetaData.obj
 0002:00003350       ??_C@_09LKDBLADF@nbColumns@ 00000001801d7350     GuMetaData.obj
 0002:00003360       ??_C@_07ODIFGGLK@samples@  00000001801d7360     GuMetaData.obj
 0002:00003368       ??_C@_0BE@POHEGOJG@convexEdgeThreshold@ 00000001801d7368     GuMetaData.obj
 0002:0000337c       ??_C@_05GECEPKB@flags@     00000001801d737c     GuMetaData.obj
 0002:00003384       ??_C@_06DLEPGFEF@format@   00000001801d7384     GuMetaData.obj
 0002:00003390       ??_C@_0BF@MOGDNMPL@PxMaterialTableIndex@ 00000001801d7390     GuMetaData.obj
 0002:000033a8       ??_C@_0M@JMJICJJO@HeightField@ 00000001801d73a8     GuMetaData.obj
 0002:000033b8       ??_C@_0O@ENGHMLJP@mSampleStride@ 00000001801d73b8     GuMetaData.obj
 0002:000033c8       ??_C@_0L@EBEEMFFB@mMinHeight@ 00000001801d73c8     GuMetaData.obj
 0002:000033d8       ??_C@_0L@EAEIFPOF@mMaxHeight@ 00000001801d73d8     GuMetaData.obj
 0002:000033e8       ??_C@_0N@FEFJOKKE@mModifyCount@ 00000001801d73e8     GuMetaData.obj
 0002:000033f8       ??_C@_09PHDKHCK@RTreePage@ 00000001801d73f8     GuMetaData.obj
 0002:00003404       ??_C@_04LLPOBGED@minx@     00000001801d7404     GuMetaData.obj
 0002:0000340c       ??_C@_04KCOFCHAC@miny@     00000001801d740c     GuMetaData.obj
 0002:00003414       ??_C@_04IJMIHEMB@minz@     00000001801d7414     GuMetaData.obj
 0002:0000341c       ??_C@_04GGOBOBGO@maxx@     00000001801d741c     GuMetaData.obj
 0002:00003424       ??_C@_04HPPKNACP@maxy@     00000001801d7424     GuMetaData.obj
 0002:0000342c       ??_C@_04FENHIDOM@maxz@     00000001801d742c     GuMetaData.obj
 0002:00003434       ??_C@_04HHDFEJON@ptrs@     00000001801d7434     GuMetaData.obj
 0002:0000343c       ??_C@_05FFEIGAJF@RTree@    00000001801d743c     GuMetaData.obj
 0002:00003444       ??_C@_06OMCHPNEO@PxVec4@   00000001801d7444     GuMetaData.obj
 0002:00003450       ??_C@_0L@NBIFEFLN@mBoundsMin@ 00000001801d7450     GuMetaData.obj
 0002:00003460       ??_C@_0L@MDAOKBNC@mBoundsMax@ 00000001801d7460     GuMetaData.obj
 0002:00003470       ??_C@_0N@NJEHLCOF@mInvDiagonal@ 00000001801d7470     GuMetaData.obj
 0002:00003480       ??_C@_0BA@BEFIGPFG@mDiagonalScaler@ 00000001801d7480     GuMetaData.obj
 0002:00003490       ??_C@_09DICGGKGO@mPageSize@ 00000001801d7490     GuMetaData.obj
 0002:000034a0       ??_C@_0O@BOFFCNOL@mNumRootPages@ 00000001801d74a0     GuMetaData.obj
 0002:000034b0       ??_C@_0L@JKLGBKAE@mNumLevels@ 00000001801d74b0     GuMetaData.obj
 0002:000034c0       ??_C@_0M@PHDOHJGK@mTotalNodes@ 00000001801d74c0     GuMetaData.obj
 0002:000034d0       ??_C@_0M@GDGHALAO@mTotalPages@ 00000001801d74d0     GuMetaData.obj
 0002:000034dc       ??_C@_06MHCBBJGP@mFlags@   00000001801d74dc     GuMetaData.obj
 0002:000034e4       ??_C@_06MMNBLHOK@mPages@   00000001801d74e4     GuMetaData.obj
 0002:000034f0       ??_C@_0P@JNLGHJNH@SourceMeshBase@ 00000001801d74f0     GuMetaData.obj
 0002:00003500       ??_C@_06JFCLJMNN@mVerts@   00000001801d7500     GuMetaData.obj
 0002:00003508       ??_C@_05GNIIDDHH@mType@    00000001801d7508     GuMetaData.obj
 0002:00003510       ??_C@_06DHAAKLFK@mRemap@   00000001801d7510     GuMetaData.obj
 0002:00003518       ??_C@_0L@LEOGNOEC@SourceMesh@ 00000001801d7518     GuMetaData.obj
 0002:00003528       ??_C@_07MPIKOOAP@mNbTris@  00000001801d7528     GuMetaData.obj
 0002:00003530       ??_C@_0N@FBMOMEHF@mTriangles32@ 00000001801d7530     GuMetaData.obj
 0002:00003540       ??_C@_0N@DGCGNFBP@mTriangles16@ 00000001801d7540     GuMetaData.obj
 0002:00003550       ??_C@_0O@NLNHFNO@QuantizedAABB@ 00000001801d7550     GuMetaData.obj
 0002:00003560       ??_C@_0BC@OOGBEMHH@mData?$FL0?$FN?4mExtents@ 00000001801d7560     GuMetaData.obj
 0002:00003578       ??_C@_0BB@OCEDKIEF@mData?$FL0?$FN?4mCenter@ 00000001801d7578     GuMetaData.obj
 0002:00003590       ??_C@_0BC@HFMEAABI@mData?$FL1?$FN?4mExtents@ 00000001801d7590     GuMetaData.obj
 0002:000035a8       ??_C@_0BB@CDMNHHIF@mData?$FL1?$FN?4mCenter@ 00000001801d75a8     GuMetaData.obj
 0002:000035c0       ??_C@_0BC@CFKNCOI@mData?$FL2?$FN?4mExtents@ 00000001801d75c0     GuMetaData.obj
 0002:000035d8       ??_C@_0BB@LKCPBBIE@mData?$FL2?$FN?4mCenter@ 00000001801d75d8     GuMetaData.obj
 0002:000035f0       ??_C@_0O@MJJKKPFN@BVDataPackedQ@ 00000001801d75f0     GuMetaData.obj
 0002:00003600       ??_C@_0O@JFMLAIPJ@CenterExtents@ 00000001801d7600     GuMetaData.obj
 0002:00003610       ??_C@_07GNKDIIKJ@mCenter@  00000001801d7610     GuMetaData.obj
 0002:00003618       ??_C@_0P@KBMJDPLO@BVDataPackedNQ@ 00000001801d7618     GuMetaData.obj
 0002:00003628       ??_C@_0M@PNCEBOG@LocalBounds@ 00000001801d7628     GuMetaData.obj
 0002:00003634       ??_C@_05KNFBNCOH@float@    00000001801d7634     GuMetaData.obj
 0002:00003640       ??_C@_0BC@LADJKHPL@mExtentsMagnitude@ 00000001801d7640     GuMetaData.obj
 0002:00003658       ??_C@_07HELIOLAF@BV4Tree@  00000001801d7658     GuMetaData.obj
 0002:00003660       ??_C@_0P@EMMDNPMH@mMeshInterface@ 00000001801d7660     GuMetaData.obj
 0002:00003670       ??_C@_0N@DCKMHLCL@mLocalBounds@ 00000001801d7670     GuMetaData.obj
 0002:00003680       ??_C@_08EEJOMIJL@mNbNodes@ 00000001801d7680     GuMetaData.obj
 0002:0000368c       ??_C@_06FIIIMFIO@mNodes@   00000001801d768c     GuMetaData.obj
 0002:00003698       ??_C@_09FGKNPI@mInitData@  00000001801d7698     GuMetaData.obj
 0002:000036a8       ??_C@_0BC@CLDEHKCO@mCenterOrMinCoeff@ 00000001801d76a8     GuMetaData.obj
 0002:000036c0       ??_C@_0BD@LAOLBNJ@mExtentsOrMaxCoeff@ 00000001801d76c0     GuMetaData.obj
 0002:000036d8       ??_C@_0P@JEECKKBL@mUserAllocated@ 00000001801d76d8     GuMetaData.obj
 0002:000036e8       ??_C@_0L@GLIMNECG@mQuantized@ 00000001801d76e8     GuMetaData.obj
 0002:000036f8       ??_C@_0L@CCOJDAID@mIsEdgeSet@ 00000001801d76f8     GuMetaData.obj
 0002:00003708       ??_C@_08BNDBAGDH@mPadding@ 00000001801d7708     GuMetaData.obj
 0002:00003718       ??_C@_0N@OJNNNLIB@TriangleMesh@ 00000001801d7718     GuMetaData.obj
 0002:00003728       ??_C@_0M@OGEDMEAL@mNbVertices@ 00000001801d7728     GuMetaData.obj
 0002:00003738       ??_C@_0N@MGGDNHNI@mNbTriangles@ 00000001801d7738     GuMetaData.obj
 0002:00003748       ??_C@_09LNNEGOJA@mVertices@ 00000001801d7748     GuMetaData.obj
 0002:00003758       ??_C@_0L@KBOFAKLO@mTriangles@ 00000001801d7758     GuMetaData.obj
 0002:00003768       ??_C@_0P@MHDFIHLD@mExtraTrigData@ 00000001801d7768     GuMetaData.obj
 0002:00003778       ??_C@_0N@MGIKKCI@mGeomEpsilon@ 00000001801d7778     GuMetaData.obj
 0002:00003788       ??_C@_0BB@IFLOOCNA@mMaterialIndices@ 00000001801d7788     GuMetaData.obj
 0002:000037a0       ??_C@_0L@OPJMBFMI@mFaceRemap@ 00000001801d77a0     GuMetaData.obj
 0002:000037b0       ??_C@_0N@BIOECAPM@mAdjacencies@ 00000001801d77b0     GuMetaData.obj
 0002:000037c0       ??_C@_09CICJHLPI@mEdgeList@ 00000001801d77c0     GuMetaData.obj
 0002:000037d0       ??_C@_0BD@IPKCNNIK@mLocalCenterOfMass@ 00000001801d77d0     GuMetaData.obj
 0002:000037e8       ??_C@_0BA@OCOIGPII@mGRB_triIndices@ 00000001801d77e8     GuMetaData.obj
 0002:000037f8       ??_C@_0BE@JPINNDAH@mGRB_triAdjacencies@ 00000001801d77f8     GuMetaData.obj
 0002:00003810       ??_C@_0P@EDFJJHEF@mGRB_faceRemap@ 00000001801d7810     GuMetaData.obj
 0002:00003820       ??_C@_0BG@EEALPPCP@mGRB_faceRemapInverse@ 00000001801d7820     GuMetaData.obj
 0002:00003838       ??_C@_0O@CKMBAIFN@mGRB_BV32Tree@ 00000001801d7838     GuMetaData.obj
 0002:00003848       ??_C@_0BE@MGIOIICI@mSdfData?4mMeshLower@ 00000001801d7848     GuMetaData.obj
 0002:00003860       ??_C@_0BC@NNEDELGI@mSdfData?4mSpacing@ 00000001801d7860     GuMetaData.obj
 0002:00003878       ??_C@_0BB@OHOFDAIL@mSdfData?4mDims?4x@ 00000001801d7878     GuMetaData.obj
 0002:00003890       ??_C@_0BB@POPOABMK@mSdfData?4mDims?4y@ 00000001801d7890     GuMetaData.obj
 0002:000038a8       ??_C@_0BB@NFNDFCAJ@mSdfData?4mDims?4z@ 00000001801d78a8     GuMetaData.obj
 0002:000038c0       ??_C@_0BC@GMPBGGPI@mSdfData?4mNumSdfs@ 00000001801d78c0     GuMetaData.obj
 0002:000038d8       ??_C@_0O@BCEBBLNE@mSdfData?4mSdf@ 00000001801d78d8     GuMetaData.obj
 0002:000038e8       ??_C@_0BG@HMHEFHIE@mSdfData?4mSubgridSize@ 00000001801d78e8     GuMetaData.obj
 0002:00003900       ??_C@_0BI@OFJBKPGB@mSdfData?4mNumStartSlots@ 00000001801d7900     GuMetaData.obj
 0002:00003918       ??_C@_0BM@MGEPBEON@mSdfData?4mSubgridStartSlots@ 00000001801d7918     GuMetaData.obj
 0002:00003938       ??_C@_0BJ@PKKGJLNM@mSdfData?4mNumSubgridSdfs@ 00000001801d7938     GuMetaData.obj
 0002:00003958       ??_C@_0BF@HLMPGIBH@mSdfData?4mSubgridSdf@ 00000001801d7958     GuMetaData.obj
 0002:00003970       ??_C@_0CF@GMJNHGOK@mSdfData?4mSdfSubgrids3DTexBlock@ 00000001801d7970     GuMetaData.obj
 0002:00003998       ??_C@_0CF@HFIGEHKL@mSdfData?4mSdfSubgrids3DTexBlock@ 00000001801d7998     GuMetaData.obj
 0002:000039c0       ??_C@_0CF@FOKLBEGI@mSdfData?4mSdfSubgrids3DTexBlock@ 00000001801d79c0     GuMetaData.obj
 0002:000039e8       ??_C@_0BO@EIPCIOJH@mSdfData?4mSubgridsMinSdfValue@ 00000001801d79e8     GuMetaData.obj
 0002:00003a08       ??_C@_0BO@NIIBJOHN@mSdfData?4mSubgridsMaxSdfValue@ 00000001801d7a08     GuMetaData.obj
 0002:00003a28       ??_C@_0BO@GKGODKFG@mSdfData?4mBytesPerSparsePixel@ 00000001801d7a28     GuMetaData.obj
 0002:00003a48       ??_C@_0BJ@LEBGJKBE@mAccumulatedTrianglesRef@ 00000001801d7a48     GuMetaData.obj
 0002:00003a68       ??_C@_0BF@OJMCNCDP@mTrianglesReferences@ 00000001801d7a68     GuMetaData.obj
 0002:00003a80       ??_C@_0BH@LDGPOFA@mNbTrianglesReferences@ 00000001801d7a80     GuMetaData.obj
 0002:00003a98       ??_C@_0BC@IFGECKF@RTreeTriangleMesh@ 00000001801d7a98     GuMetaData.obj
 0002:00003aac       ??_C@_06JDIHDDGN@mRTree@   00000001801d7aac     GuMetaData.obj
 0002:00003ab8       ??_C@_0BA@LNNFPOKA@BV4TriangleMesh@ 00000001801d7ab8     GuMetaData.obj
 0002:00003ac8       ??_C@_08FKLPEGDB@mBV4Tree@ 00000001801d7ac8     GuMetaData.obj
 0002:00003ad8       ??_7?$SupportLocalImpl@VConvexHullNoScaleV@Gu@physx@@@Gu@physx@@6B@ 00000001801d7ad8     GuMTD.obj
 0002:00003b20       ?absMask@?1??FAbs@aos@physx@@YA?AT__m128@@T4@@Z@4QBIB 00000001801d7b20     GuMTD.obj
 0002:00003b30       ??_7GjkConvex@Gu@physx@@6B@ 00000001801d7b30     GuMTD.obj
 0002:00003b60       ??_7?$LocalConvex@VCapsuleV@Gu@physx@@@Gu@physx@@6B@ 00000001801d7b60     GuMTD.obj
 0002:00003b90       ??_7?$LocalConvex@VConvexHullV@Gu@physx@@@Gu@physx@@6B@ 00000001801d7b90     GuMTD.obj
 0002:00003bc0       __real@2edbe6ff            00000001801d7bc0     GuMTD.obj
 0002:00003bc4       __real@34000000            00000001801d7bc4     GuMTD.obj
 0002:00003bc8       __real@ff7fffff            00000001801d7bc8     GuMTD.obj
 0002:00003bd0       __xmm@34000000340000003400000034000000 00000001801d7bd0     GuMTD.obj
 0002:00003be0       __xmm@358637bd358637bd358637bd358637bd 00000001801d7be0     GuMTD.obj
 0002:00003bf0       __xmm@3dcccccd3dcccccd3dcccccd3dcccccd 00000001801d7bf0     GuMTD.obj
 0002:00003c00       __xmm@3f7ff1413f7ff1413f7ff1413f7ff141 00000001801d7c00     GuMTD.obj
 0002:00003c10       __xmm@3f8000003f8000003f8000003f800000 00000001801d7c10     GuMTD.obj
 0002:00003c20       ??_7?$RelativeConvex@VBoxV@Gu@physx@@@Gu@physx@@6B@ 00000001801d7c20     GuOverlapTests.obj
 0002:00003c70       ??_7?$RelativeConvex@VConvexHullV@Gu@physx@@@Gu@physx@@6B@ 00000001801d7c70     GuOverlapTests.obj
 0002:00003ca0       ??_C@_0EC@MLIJOGHA@Height?5Field?5Overlap?5test?5calle@ 00000001801d7ca0     GuOverlapTests.obj
 0002:00003cf0       ??_C@_0EI@JKHNPGJJ@C?3?2Programming?2Libs?2PhysX?2physx@ 00000001801d7cf0     GuOverlapTests.obj
 0002:00003d40       ??_C@_0EC@GJLDADPE@Height?5Field?5Raycast?5test?5calle@ 00000001801d7d40     GuRaycastTests.obj
 0002:00003d90       ??_C@_0EI@GJLAIBDD@C?3?2Programming?2Libs?2PhysX?2physx@ 00000001801d7d90     GuRaycastTests.obj
 0002:00003e10       __real@1e3ce508            00000001801d7e10     GuRaycastTests.obj
 0002:00003e14       __real@28800000            00000001801d7e14     GuRaycastTests.obj
 0002:00003e18       __real@33d6bf95            00000001801d7e18     GuRaycastTests.obj
 0002:00003e1c       __real@3727c5ac            00000001801d7e1c     GuRaycastTests.obj
 0002:00003e20       __real@3f0147ae            00000001801d7e20     GuRaycastTests.obj
 0002:00003e24       __real@3f7ffffe            00000001801d7e24     GuRaycastTests.obj
 0002:00003e28       __real@3f800347            00000001801d7e28     GuRaycastTests.obj
 0002:00003e2c       __real@41200000            00000001801d7e2c     GuRaycastTests.obj
 0002:00003e30       __real@80000000            00000001801d7e30     GuRaycastTests.obj
 0002:00003e34       __real@b3d6bf95            00000001801d7e34     GuRaycastTests.obj
 0002:00003e38       __real@b8d1b717            00000001801d7e38     GuRaycastTests.obj
 0002:00003e3c       __real@c1200000            00000001801d7e3c     GuRaycastTests.obj
 0002:00003e70       ??_7?$MeshHitCallback@UPxGeomRaycastHit@physx@@@Gu@physx@@6B@ 00000001801d7e70     GuSweepMTD.obj
 0002:00003e80       ??_7MeshMTDGenerationCallback@@6B@ 00000001801d7e80     GuSweepMTD.obj
 0002:00003e90       ??_7MidPhaseQueryLocalReport@@6B@ 00000001801d7e90     GuSweepMTD.obj
 0002:00003ea0       __real@3f8147ae            00000001801d7ea0     GuSweepMTD.obj
 0002:00003ea4       __real@3f933333            00000001801d7ea4     GuSweepMTD.obj
 0002:00003ed0       __real@3c23d70a            00000001801d7ed0     GuSweepSharedTests.obj
 0002:00003ed4       __real@42c80000            00000001801d7ed4     GuSweepSharedTests.obj
 0002:00003ee0       __xmm@ffffffffffffffffffffffffffffffff 00000001801d7ee0     GuSweepSharedTests.obj
 0002:00003f10       ??_C@_0EA@GNDJNJGB@Height?5Field?5Sweep?5test?5called?5@ 00000001801d7f10     GuSweepTests.obj
 0002:00003f50       ??_C@_0EG@PNMBKCPI@C?3?2Programming?2Libs?2PhysX?2physx@ 00000001801d7f50     GuSweepTests.obj
 0002:00003f98       ??_7?$LocalConvex@VBoxV@Gu@physx@@@Gu@physx@@6B@ 00000001801d7f98     GuSweepTests.obj
 0002:00003fc8       ??_7?$LocalConvex@VTriangleV@Gu@physx@@@Gu@physx@@6B@ 00000001801d7fc8     GuSweepTests.obj
 0002:00003ff8       __real@00000000            00000001801d7ff8     GuSweepTests.obj
 0002:00004000       __xmm@00000002000000020000000200000002 00000001801d8000     GuSweepTests.obj
 0002:00004010       __xmm@3eaaaa9f3eaaaa9f3eaaaa9f3eaaaa9f 00000001801d8010     GuSweepTests.obj
 0002:000040c8       ??_7PxRunnable@physx@@6B@  00000001801d80c8     GuSDF.obj
 0002:000040d8       ??_C@_0DP@MAPFEJLC@C?3?2Programming?2Libs?2PhysX?2physx@ 00000001801d80d8     GuSDF.obj
 0002:00004118       ??_7?$PxThreadT@V?$PxReflectionAllocator@VPxThreadImpl@physx@@@physx@@@physx@@6B@ 00000001801d8118     GuSDF.obj
 0002:00004128       ??_C@_06FJHNOCKE@thread@   00000001801d8128     GuSDF.obj
 0002:00004130       ??_C@_0DO@LNPNLDDH@C?3?2Programming?2Libs?2PhysX?2physx@ 00000001801d8130     GuSDF.obj
 0002:00004170       __real@37800080            00000001801d8170     GuSDF.obj
 0002:00004174       __real@3b808081            00000001801d8174     GuSDF.obj
 0002:00004178       __real@3eaaaaab            00000001801d8178     GuSDF.obj
 0002:0000417c       __real@3f400000            00000001801d817c     GuSDF.obj
 0002:00004180       __real@3f7d70a4            00000001801d8180     GuSDF.obj
 0002:00004184       __real@4996b438            00000001801d8184     GuSDF.obj
 0002:00004188       __real@7e7fffff            00000001801d8188     GuSDF.obj
 0002:0000418c       __real@bf000000            00000001801d818c     GuSDF.obj
 0002:00004190       __real@fe7fffff            00000001801d8190     GuSDF.obj
 0002:000041a0       __xmm@00000001000000000000000000000000 00000001801d81a0     GuSDF.obj
 0002:000041b0       __real@437f0000            00000001801d81b0     GuCookingSDF.obj
 0002:000041b4       __real@477fff00            00000001801d81b4     GuCookingSDF.obj
 0002:000041e0       ??_7?$RelativeConvex@UCustomConvexV@@@Gu@physx@@6B@ 00000001801d81e0     GuGjkQuery.obj
 0002:00004210       ??_7?$LocalConvex@UCustomConvexV@@@Gu@physx@@6B@ 00000001801d8210     GuGjkQuery.obj
 0002:00004240       ??_7?$LocalConvex@UPointConvexV@@@Gu@physx@@6B@ 00000001801d8240     GuGjkQuery.obj
 0002:00004270       __xmm@3f0000003f0000003f0000003f000000 00000001801d8270     GuGjkQuery.obj
 0002:000042a0       __real@3da2f983            00000001801d82a0     GuWindingNumber.obj
 0002:000042a4       __real@3e22f983            00000001801d82a4     GuWindingNumber.obj
 0002:000042a8       __real@3f99999a            00000001801d82a8     GuWindingNumber.obj
 0002:00004310       __real@3c343958            00000001801d8310     GuCCDSweepConvexMesh.obj
 0002:00004314       __real@3ca3d70a            00000001801d8314     GuCCDSweepConvexMesh.obj
 0002:00004318       __real@3f0ccccd            00000001801d8318     GuCCDSweepConvexMesh.obj
 0002:0000431c       __real@3f8ccccd            00000001801d831c     GuCCDSweepConvexMesh.obj
 0002:00004320       __real@b58637bd            00000001801d8320     GuCCDSweepConvexMesh.obj
 0002:00004350       ??_7?$RelativeConvex@VCapsuleV@Gu@physx@@@Gu@physx@@6B@ 00000001801d8350     GuCCDSweepPrimitives.obj
 0002:00004380       ??_7?$RelativeConvex@VTriangleV@Gu@physx@@@Gu@physx@@6B@ 00000001801d8380     GuCCDSweepPrimitives.obj
 0002:000043b0       __real@3ba3d70a            00000001801d83b0     GuCCDSweepPrimitives.obj
 0002:000043b4       __real@501502f9            00000001801d83b4     GuCCDSweepPrimitives.obj
 0002:000043e0       ??_C@_0EO@MLMCIPPN@C?3?2Programming?2Libs?2PhysX?2physx@ 00000001801d83e0     GuAdjacencies.obj
 0002:00004430       ??_C@_0DA@FMEHLBKI@Adjacencies?3?3UpdateLink?3?5invali@ 00000001801d8430     GuAdjacencies.obj
 0002:00004460       ??_C@_0EA@CPHOACLK@Adjacencies?3?3CreateDatabase?3?5ca@ 00000001801d8460     GuAdjacencies.obj
 0002:000044a0       ??_C@_0EL@DJCFOMPK@C?3?2Programming?2Libs?2PhysX?2physx@ 00000001801d84a0     GuEdgeList.obj
 0002:000044f0       ??_C@_0CO@GBNJFPN@EdgeList?3?3CreateFacesToEdges?3?5N@ 00000001801d84f0     GuEdgeList.obj
 0002:00004520       ??_C@_0CO@EHJBBMNK@EdgeList?3?3ComputeActiveEdges?3?5N@ 00000001801d8520     GuEdgeList.obj
 0002:00004550       ??_C@_0DI@GBHLFOFP@ActiveEdges?3?3ComputeConvexEdges@ 00000001801d8550     GuEdgeList.obj
 0002:00004588       ??_C@_0DM@JOGBLHDI@ActiveEdges?3?3ComputeConvexEdges@ 00000001801d8588     GuEdgeList.obj
 0002:000045d0       ??_C@_0ED@FEMJKPEL@ActiveEdges?3?3ComputeConvexEdges@ 00000001801d85d0     GuEdgeList.obj
 0002:00004620       ??_C@_0EB@BFDPMFCD@ActiveEdges?3?3ComputeConvexEdges@ 00000001801d8620     GuEdgeList.obj
 0002:00004664       __real@bf7fbe77            00000001801d8664     GuEdgeList.obj
 0002:00004668       ??_7Quantizer@Gu@physx@@6B@ 00000001801d8668     GuQuantizer.obj
 0002:00004690       ??_7QuantizerImpl@@6B@     00000001801d8690     GuQuantizer.obj
 0002:000046c0       ??_C@_0EM@JELMELAM@C?3?2Programming?2Libs?2PhysX?2physx@ 00000001801d86c0     GuQuantizer.obj
 0002:0000470c       __real@3f0020c5            00000001801d870c     GuQuantizer.obj
 0002:00004710       __real@3f8020c5            00000001801d8710     GuQuantizer.obj
 0002:00004720       ??_C@_0EO@OOJJKCKJ@C?3?2Programming?2Libs?2PhysX?2physx@ 00000001801d8720     GuMeshCleaner.obj
 0002:00004770       ??_C@_0FA@JBNCHLFH@C?3?2Programming?2Libs?2PhysX?2physx@ 00000001801d8770     GuVertexReducer.obj
 0002:000048c0       __real@3f7fbe77            00000001801d88c0     GuContactBoxBox.obj
 0002:000048f0       __real@3f7ff2e5            00000001801d88f0     GuContactCapsuleCapsule.obj
 0002:000048f4       __real@40800000            00000001801d88f4     GuContactCapsuleCapsule.obj
 0002:00004980       __real@358637be            00000001801d8980     GuContactCapsuleMesh.obj
 0002:00004984       __real@ba83126f            00000001801d8984     GuContactCapsuleMesh.obj
 0002:000049e0       ??_7ConvexMeshContactGenerationCallback@@6B@ 00000001801d89e0     GuContactConvexMesh.obj
 0002:00004a60       __real@3ec90fdb            00000001801d8a60     GuContactPolygonPolygon.obj
 0002:00004a64       __real@3f490fdb            00000001801d8a64     GuContactPolygonPolygon.obj
 0002:00004a68       __real@3f96cbe4            00000001801d8a68     GuContactPolygonPolygon.obj
 0002:00004a6c       __real@3fc90fdb            00000001801d8a6c     GuContactPolygonPolygon.obj
 0002:00004a70       __real@3ffb53d2            00000001801d8a70     GuContactPolygonPolygon.obj
 0002:00004a74       __real@4016cbe4            00000001801d8a74     GuContactPolygonPolygon.obj
 0002:00004a78       __real@402feddf            00000001801d8a78     GuContactPolygonPolygon.obj
 0002:00004ab0       ??_C@_0DL@OAFGOMGB@Dropping?5contacts?5in?5sphere?5vs?5@ 00000001801d8ab0     GuContactSphereMesh.obj
 0002:00004af0       ??_C@_0FF@DCLBLILJ@C?3?2Programming?2Libs?2PhysX?2physx@ 00000001801d8af0     GuContactSphereMesh.obj
 0002:00004b78       ??_C@_0DM@KFICCAHA@C?3?2Programming?2Libs?2PhysX?2physx@ 00000001801d8b78     GuContactSphereMesh.obj
 0002:00004bc0       ??_C@_0FA@MDFBBPHD@C?3?2Programming?2Libs?2PhysX?2physx@ 00000001801d8bc0     GuBigConvexData.obj
 0002:00004c30       ??_C@_0N@CDGINLLF@PxConvexMesh@ 00000001801d8c30     GuConvexMesh.obj
 0002:00004c40       ??_7PxBase@physx@@6B@      00000001801d8c40     GuConvexMesh.obj
 0002:00004c68       ??_C@_0N@OPPDBGAG@PxRefCounted@ 00000001801d8c68     GuConvexMesh.obj
 0002:00004c78       ??_7ConvexMesh@Gu@physx@@6B@ 00000001801d8c78     GuConvexMesh.obj
 0002:00004d10       ??_C@_0EN@NGBOHBBM@C?3?2Programming?2Libs?2PhysX?2physx@ 00000001801d8d10     GuConvexMesh.obj
 0002:00004d60       ??_C@_0DM@NEJKOFIP@Loading?5convex?5mesh?5failed?3?5Dep@ 00000001801d8d60     GuConvexMesh.obj
 0002:00004da0       ??_C@_0DB@PAHEPIEL@PxConvexMesh?3?3release?3?5double?5d@ 00000001801d8da0     GuConvexMesh.obj
 0002:00004de0       ??_C@_0EF@FIOMKGJC@C?3?2Programming?2Libs?2PhysX?2physx@ 00000001801d8de0     GuConvexMesh.obj
 0002:00004e50       __xmm@000000000000000000000000ffffffff 00000001801d8e50     GuConvexSupportTable.obj
 0002:00004e60       __xmm@0000000000000000ffffffff00000000 00000001801d8e60     GuConvexSupportTable.obj
 0002:00004e70       __xmm@0000000000000000ffffffffffffffff 00000001801d8e70     GuConvexSupportTable.obj
 0002:00004e80       __xmm@00000000ffffffff0000000000000000 00000001801d8e80     GuConvexSupportTable.obj
 0002:00004e90       __xmm@00000000ffffffff00000000ffffffff 00000001801d8e90     GuConvexSupportTable.obj
 0002:00004ea0       __xmm@00000000ffffffffffffffff00000000 00000001801d8ea0     GuConvexSupportTable.obj
 0002:00004f70       __real@2b8cbccc            00000001801d8f70     GuDistanceSegmentTriangle.obj
 0002:00004f80       __xmm@3f8000013f8000013f8000013f800001 00000001801d8f80     GuDistanceSegmentTriangle.obj
 0002:00004f90       __xmm@b4000000b4000000b4000000b4000000 00000001801d8f90     GuDistanceSegmentTriangle.obj
 0002:00004ff0       __xmm@38d1b71738d1b71738d1b71738d1b717 00000001801d8ff0     GuGJKSimplex.obj
 0002:00005020       ??_C@_0O@PBAKPCEC@PxHeightField@ 00000001801d9020     GuHeightField.obj
 0002:00005030       ??_7HeightField@Gu@physx@@6B@ 00000001801d9030     GuHeightField.obj
 0002:000050e8       ??_C@_0DC@BDMMBOKH@PxHeightField?3?3release?3?5double?5@ 00000001801d90e8     GuHeightField.obj
 0002:00005120       ??_C@_0DF@LLAFPPKJ@Gu?3?3HeightField?3?3modifySamples?3@ 00000001801d9120     GuHeightField.obj
 0002:00005160       ??_C@_0EK@LFODOIPA@C?3?2Programming?2Libs?2PhysX?2physx@ 00000001801d9160     GuHeightField.obj
 0002:000051b0       ??_C@_0CI@DMKEKGNK@Gu?3?3HeightField?3?3load?3?5PX_ALLOC@ 00000001801d91b0     GuHeightField.obj
 0002:000051d8       ??_C@_0DG@LACOBMDE@Gu?3?3HeightField?3?3loadFromDesc?3?5@ 00000001801d91d8     GuHeightField.obj
 0002:00005210       ??_C@_0DO@PJNJPKPL@C?3?2Programming?2Libs?2PhysX?2physx@ 00000001801d9210     GuHeightField.obj
 0002:00005270       ??_C@_0DH@EJDJIMCB@HeightFieldShape?3?3getTriangle?3?5@ 00000001801d9270     GuHeightFieldUtil.obj
 0002:000052b0       ??_C@_0EO@EBLJNGHK@C?3?2Programming?2Libs?2PhysX?2physx@ 00000001801d92b0     GuHeightFieldUtil.obj
 0002:00005300       __real@3a03126f            00000001801d9300     GuHeightFieldUtil.obj
 0002:00005304       __real@3f19999a            00000001801d9304     GuHeightFieldUtil.obj
 0002:00005310       __xmm@40000000000000000000000000000000 00000001801d9310     GuHeightFieldUtil.obj
 0002:000053a0       ??_7HeightFieldTraceSegmentReport@@6B@ 00000001801d93a0     GuSweepsHF.obj
 0002:000053b0       ??_7CapsuleTraceSegmentReport@@6B@ 00000001801d93b0     GuSweepsHF.obj
 0002:000053c0       ??_7ConvexTraceSegmentReport@@6B@ 00000001801d93c0     GuSweepsHF.obj
 0002:000053d0       ??_7BoxTraceSegmentReport@@6B@ 00000001801d93d0     GuSweepsHF.obj
 0002:000053e0       __real@aedbe6ff            00000001801d93e0     GuSweepsHF.obj
 0002:00005410       __real@3089705f            00000001801d9410     GuIntersectionRayBox.obj
 0002:00005414       __real@b4000000            00000001801d9414     GuIntersectionRayBox.obj
 0002:00005420       __xmm@000000003089705f3089705f3089705f 00000001801d9420     GuIntersectionRayBox.obj
 0002:00005430       __xmm@00000000bf800000bf800000bf800000 00000001801d9430     GuIntersectionRayBox.obj
 0002:00005460       __real@ffc00000            00000001801d9460     GuIntersectionTriangleTriangle.obj
 0002:00005470       __xmm@ffc00000ffc00000ffc00000ffc00000 00000001801d9470     GuIntersectionTriangleTriangle.obj
 0002:000054a0       ??_7SourceMeshBase@Gu@physx@@6B@ 00000001801d94a0     GuBV4.obj
 0002:000054c8       ??_7SourceMesh@Gu@physx@@6B@ 00000001801d94c8     GuBV4.obj
 0002:000054f0       ??_7TetrahedronSourceMesh@Gu@physx@@6B@ 00000001801d94f0     GuBV4.obj
 0002:00005520       ??_C@_0EE@LFGAMFOD@C?3?2Programming?2Libs?2PhysX?2physx@ 00000001801d9520     GuBV4.obj
 0002:00005570       __xmm@ff7fffffff7fffffff7fffffff7fffff 00000001801d9570     GuBV4.obj
 0002:000055a0       ??_C@_0EJ@JHMAKEDL@C?3?2Programming?2Libs?2PhysX?2physx@ 00000001801d95a0     GuBV4Build.obj
 0002:000055ec       __real@38000100            00000001801d95ec     GuBV4Build.obj
 0002:000055f0       __real@3e93cd3a            00000001801d95f0     GuBV4Build.obj
 0002:000055f4       __real@46fffe00            00000001801d95f4     GuBV4Build.obj
 0002:000055f8       __real@be93cd3a            00000001801d95f8     GuBV4Build.obj
 0002:00005620       __xmm@0000ffff0000ffff0000ffff0000ffff 00000001801d9620     GuBV4_AABBSweep.obj
 0002:00005630       __xmm@3089705f3089705f3089705f3089705f 00000001801d9630     GuBV4_AABBSweep.obj
 0002:00005640       __xmm@33d6bf9533d6bf9533d6bf9533d6bf95 00000001801d9640     GuBV4_AABBSweep.obj
 0002:00005650       __xmm@40000000400000004000000040000000 00000001801d9650     GuBV4_AABBSweep.obj
 0002:00005740       __real@4f7fffff            00000001801d9740     GuBV4_SphereOverlap.obj
 0002:00005790       __xmm@000000007f7fffff0000000000000000 00000001801d9790     GuMidphaseBV4.obj
 0002:00005800       ??_C@_0DK@FFHPKGEP@PxMeshQuery?3?3getTriangle?3?5trian@ 00000001801d9800     GuMeshQuery.obj
 0002:00005840       ??_C@_0EK@LGALBAJL@C?3?2Programming?2Libs?2PhysX?2physx@ 00000001801d9840     GuMeshQuery.obj
 0002:00005890       ??_C@_0FD@EHCCILIF@Adjacency?5information?5not?5creat@ 00000001801d9890     GuMeshQuery.obj
 0002:000058f0       ??_C@_0FA@MCAAGAGM@findOverlapTriangleMesh?3?5Only?5b@ 00000001801d98f0     GuMeshQuery.obj
 0002:00005940       ??_C@_0FL@BKNMAHIA@PxMeshQuery?3?3findOverlapTriangl@ 00000001801d9940     GuMeshQuery.obj
 0002:000059a0       ??_C@_0EM@BEFNLPHI@findOverlapHeightField?3?5Only?5bo@ 00000001801d99a0     GuMeshQuery.obj
 0002:000059f0       ??_C@_0CJ@NLNHIMDM@PxMeshQuery?3?3sweep?$CI?$CJ?3?5pose?5is?5n@ 00000001801d99f0     GuMeshQuery.obj
 0002:00005a20       ??_C@_0CM@BFKJPOOO@PxMeshQuery?3?3sweep?$CI?$CJ?3?5unitDir?5i@ 00000001801d9a20     GuMeshQuery.obj
 0002:00005a50       ??_C@_0CN@JKBDLLPP@PxMeshQuery?3?3sweep?$CI?$CJ?3?5distance?5@ 00000001801d9a50     GuMeshQuery.obj
 0002:00005a80       ??_C@_0DN@DPNNFGGF@PxMeshQuery?3?3sweep?$CI?$CJ?3?5sweep?5dis@ 00000001801d9a80     GuMeshQuery.obj
 0002:00005ac0       ??_C@_0BA@MBAFFELP@MeshQuery?4sweep@ 00000001801d9ac0     GuMeshQuery.obj
 0002:00005ad0       ??_C@_0FJ@GNAHJJCM@PxMeshQuery?3?3sweep?$CI?$CJ?3?5geometry?5@ 00000001801d9ad0     GuMeshQuery.obj
 0002:00005b2c       __real@4cbebc20            00000001801d9b2c     GuMeshQuery.obj
 0002:00005b50       ??_7Callback@RTree@Gu@physx@@6B@ 00000001801d9b50     GuMidphaseRTree.obj
 0002:00005b68       ??_7?$RayRTreeCallback@$00$0A@@@6BCallbackRaycast@RTree@Gu@physx@@@ 00000001801d9b68     GuMidphaseRTree.obj
 0002:00005b68       ??_7?$RayRTreeCallback@$0A@$0A@@@6BCallbackRaycast@RTree@Gu@physx@@@ 00000001801d9b68     GuMidphaseRTree.obj
 0002:00005b78       ??_7?$RayRTreeCallback@$00$0A@@@6BCallback@RTree@Gu@physx@@@ 00000001801d9b78     GuMidphaseRTree.obj
 0002:00005b78       ??_7?$RayRTreeCallback@$0A@$0A@@@6BCallback@RTree@Gu@physx@@@ 00000001801d9b78     GuMidphaseRTree.obj
 0002:00005b90       ??_7RayMeshColliderCallback@@6B@ 00000001801d9b90     GuMidphaseRTree.obj
 0002:00005ba0       ??_C@_0EN@DPPFLBLF@Point?9mesh?5distance?5query?5not?5s@ 00000001801d9ba0     GuMidphaseRTree.obj
 0002:00005bf0       ??_C@_0EO@IPBKGBIP@C?3?2Programming?2Libs?2PhysX?2physx@ 00000001801d9bf0     GuMidphaseRTree.obj
 0002:00005c40       ??_7?$RayRTreeCallback@$0A@$00@@6BCallbackRaycast@RTree@Gu@physx@@@ 00000001801d9c40     GuMidphaseRTree.obj
 0002:00005c50       ??_7?$RayRTreeCallback@$0A@$00@@6BCallback@RTree@Gu@physx@@@ 00000001801d9c50     GuMidphaseRTree.obj
 0002:00005c68       ??_7?$RayRTreeCallback@$00$00@@6BCallbackRaycast@RTree@Gu@physx@@@ 00000001801d9c68     GuMidphaseRTree.obj
 0002:00005c78       ??_7?$RayRTreeCallback@$00$00@@6BCallback@RTree@Gu@physx@@@ 00000001801d9c78     GuMidphaseRTree.obj
 0002:00005cf0       __xmm@7f7fffff000000000000000000000000 00000001801d9cf0     GuMidphaseRTree.obj
 0002:00005d70       ??_7?$PxReportCallback@UPxGeomIndexPair@physx@@@physx@@6B@ 00000001801d9d70     GuOverlapTestsMesh.obj
 0002:00005d90       ??_C@_0EP@CEFGCJKJ@PxGeometryQuery?3?3overlap?$CI?$CJ?3?5onl@ 00000001801d9d90     GuOverlapTestsMesh.obj
 0002:00005de0       ??_C@_0FB@FBLHBOEN@C?3?2Programming?2Libs?2PhysX?2physx@ 00000001801d9de0     GuOverlapTestsMesh.obj
 0002:00005e60       ?MN@RTreePage@Gu@physx@@2MB 00000001801d9e60     GuRTree.obj
 0002:00005e64       ?MX@RTreePage@Gu@physx@@2MB 00000001801d9e64     GuRTree.obj
 0002:00005e70       ??_C@_0EG@FGODBLJH@C?3?2Programming?2Libs?2PhysX?2physx@ 00000001801d9e70     GuRTree.obj
 0002:00005f30       ??_7SweepShapeMeshHitCallback@Gu@physx@@6B@ 00000001801d9f30     GuSweepsMesh.obj
 0002:00005f40       ??_7SweepCapsuleMeshHitCallback@Gu@physx@@6B@ 00000001801d9f40     GuSweepsMesh.obj
 0002:00005f50       ??_7SweepBoxMeshHitCallback@Gu@physx@@6B@ 00000001801d9f50     GuSweepsMesh.obj
 0002:00005f60       ??_7SweepConvexMeshHitCallback@Gu@physx@@6B@ 00000001801d9f60     GuSweepsMesh.obj
 0002:00005f90       ??_C@_0P@GGNFNHKF@PxTriangleMesh@ 00000001801d9f90     GuTriangleMesh.obj
 0002:00005fa0       ??_7TriangleMesh@Gu@physx@@6B@ 00000001801d9fa0     GuTriangleMesh.obj
 0002:00006078       ??_C@_0DD@LOOPMCGG@PxTriangleMesh?3?3release?3?5double@ 00000001801da078     GuTriangleMesh.obj
 0002:000060b0       ??_C@_0FH@PMPAJDGI@PxTriangleMesh?3?3getVerticesForM@ 00000001801da0b0     GuTriangleMesh.obj
 0002:00006110       ??_C@_0EN@OIEONOPN@C?3?2Programming?2Libs?2PhysX?2physx@ 00000001801da110     GuTriangleMesh.obj
 0002:00006160       ??_C@_0EF@GMNFLDH@PxTriangleMesh?3?3refitBVH?$CI?$CJ?5is?5n@ 00000001801da160     GuTriangleMesh.obj
 0002:000061b0       __xmm@38383838383838383838383838383838 00000001801da1b0     GuTriangleMesh.obj
 0002:000061e0       ??_C@_0BE@CNJKIINO@PxBVH34TriangleMesh@ 00000001801da1e0     GuTriangleMeshBV4.obj
 0002:000061f8       ??_7BV4TriangleMesh@Gu@physx@@6B@ 00000001801da1f8     GuTriangleMeshBV4.obj
 0002:000062d0       ??_C@_0EF@JLFNNPLP@BVH34?5trees?3?5refit?5operation?5on@ 00000001801da2d0     GuTriangleMeshBV4.obj
 0002:00006320       ??_C@_0FA@PGLCLPH@C?3?2Programming?2Libs?2PhysX?2physx@ 00000001801da320     GuTriangleMeshBV4.obj
 0002:00006370       __real@3951b717            00000001801da370     GuTriangleMeshBV4.obj
 0002:000063a0       ??_C@_0BE@EIFHCCBO@PxBVH33TriangleMesh@ 00000001801da3a0     GuTriangleMeshRTree.obj
 0002:000063b8       ??_7RTreeTriangleMesh@Gu@physx@@6B@ 00000001801da3b8     GuTriangleMeshRTree.obj
 0002:00006490       ??_7?$RefitCallback@G@physx@@6B@ 00000001801da490     GuTriangleMeshRTree.obj
 0002:000064a0       ??_7?$RefitCallback@I@physx@@6B@ 00000001801da4a0     GuTriangleMeshRTree.obj
 0002:000064d0       ??_C@_0EF@EFPFDCBG@C?3?2Programming?2Libs?2PhysX?2physx@ 00000001801da4d0     GuBV32.obj
 0002:00006540       ??_C@_0EK@ODMBMOKO@C?3?2Programming?2Libs?2PhysX?2physx@ 00000001801da540     GuBV32Build.obj
 0002:000065b0       ??_C@_0BC@FDAIDHBP@PxTetrahedronMesh@ 00000001801da5b0     GuTetrahedronMesh.obj
 0002:000065c8       ??_C@_0BC@FBICGJIB@PxSoftBodyAuxData@ 00000001801da5c8     GuTetrahedronMesh.obj
 0002:000065e0       ??_C@_0P@CLLFGFAA@PxSoftBodyMesh@ 00000001801da5e0     GuTetrahedronMesh.obj
 0002:000065f0       ??_7SoftBodyAuxData@Gu@physx@@6B@ 00000001801da5f0     GuTetrahedronMesh.obj
 0002:00006630       ??_7TetrahedronMesh@Gu@physx@@6B@ 00000001801da630     GuTetrahedronMesh.obj
 0002:000066a8       ??_7BVTetrahedronMesh@Gu@physx@@6B@ 00000001801da6a8     GuTetrahedronMesh.obj
 0002:00006720       ??_7SoftBodyMesh@Gu@physx@@6B@ 00000001801da720     GuTetrahedronMesh.obj
 0002:000067a0       ??_C@_0DG@JJNMDPMD@PxTetrahedronMesh?3?3release?3?5dou@ 00000001801da7a0     GuTetrahedronMesh.obj
 0002:000067d8       ??_C@_0DD@GGFGEPII@PxSoftBodyMesh?3?3release?3?5double@ 00000001801da7d8     GuTetrahedronMesh.obj
 0002:00006810       ??_C@_0FA@ONCIMBGD@C?3?2Programming?2Libs?2PhysX?2physx@ 00000001801da810     GuTetrahedronMesh.obj
 0002:00006880       __xmm@00000000358637bd358637bd358637bd 00000001801da880     GuPCMContactBoxBox.obj
 0002:00006890       __xmm@3f4ccccd3f4ccccd3f4ccccd3f4ccccd 00000001801da890     GuPCMContactBoxBox.obj
 0002:000068a0       __xmm@3f8003473f8003473f8003473f800347 00000001801da8a0     GuPCMContactBoxBox.obj
 0002:000068b0       __xmm@ffffffff00000000ffffffffffffffff 00000001801da8b0     GuPCMContactBoxBox.obj
 0002:000068e0       ??_7?$LocalConvex@VConvexHullNoScaleV@Gu@physx@@@Gu@physx@@6B@ 00000001801da8e0     GuPCMContactBoxConvex.obj
 0002:00006910       __xmm@3f3504f33f3504f33f3504f33f3504f3 00000001801da910     GuPCMContactBoxConvex.obj
 0002:00006960       __xmm@ffffffffffffffffffffffff00000000 00000001801da960     GuPCMContactCapsuleCapsule.obj
 0002:00006990       __xmm@3fa000003fa000003fa000003fa00000 00000001801da990     GuPCMContactCapsuleConvex.obj
 0002:000069c0       ??_7PCMCapsuleVsHeightfieldContactGenerationCallback@@6B@ 00000001801da9c0     GuPCMContactCapsuleHeightField.obj
 0002:000069d0       __real@3f7f3b64            00000001801da9d0     GuPCMContactCapsuleHeightField.obj
 0002:00006a20       __xmm@3f7ff9723f7ff9723f7ff9723f7ff972 00000001801daa20     GuPCMContactCapsuleMesh.obj
 0002:00006a30       __xmm@3f7fffef3f7fffef3f7fffef3f7fffef 00000001801daa30     GuPCMContactCapsuleMesh.obj
 0002:00006a40       __xmm@60ad78ec60ad78ec60ad78ec60ad78ec 00000001801daa40     GuPCMContactCapsuleMesh.obj
 0002:00006a70       ??_7?$SupportLocalImpl@VTriangleV@Gu@physx@@@Gu@physx@@6B@ 00000001801daa70     GuPCMContactConvexCommon.obj
 0002:00006a90       __xmm@3cf5c2803cf5c2803cf5c2803cf5c280 00000001801daa90     GuPCMContactConvexCommon.obj
 0002:00006aa0       __xmm@3f7851ec3f7851ec3f7851ec3f7851ec 00000001801daaa0     GuPCMContactConvexCommon.obj
 0002:00006ad0       ??_7?$RelativeConvex@VConvexHullNoScaleV@Gu@physx@@@Gu@physx@@6B@ 00000001801daad0     GuPCMContactConvexConvex.obj
 0002:00006b20       ??_7PCMConvexVsHeightfieldContactGenerationCallback@physx@@6B@ 00000001801dab20     GuPCMContactConvexHeightField.obj
 0002:00006b30       __xmm@3f19999a3f19999a3f19999a3f19999a 00000001801dab30     GuPCMContactConvexHeightField.obj
 0002:00006b70       ??_7PCMConvexVsMeshContactGenerationCallback@physx@@6B@ 00000001801dab70     GuPCMContactConvexMesh.obj
 0002:00006ba0       __xmm@3f34fdf43f34fdf43f34fdf43f34fdf4 00000001801daba0     GuPCMContactGenBoxConvex.obj
 0002:00006bd0       __xmm@3f80a3d73f80a3d73f80a3d73f80a3d7 00000001801dabd0     GuPCMContactGenSphereCapsule.obj
 0002:00006be0       __xmm@bba3d70abba3d70abba3d70abba3d70a 00000001801dabe0     GuPCMContactGenSphereCapsule.obj
 0002:00006c10       __xmm@3f7ffd613f7ffd613f7ffd613f7ffd61 00000001801dac10     GuPCMContactPlaneBox.obj
 0002:00006c40       __real@3b23d70b            00000001801dac40     GuPCMContactPlaneCapsule.obj
 0002:00006c50       __xmm@3ca3d70a3ca3d70a3ca3d70a3ca3d70a 00000001801dac50     GuPCMContactPlaneCapsule.obj
 0002:00006c80       __xmm@3a03126f3a03126f3a03126f3a03126f 00000001801dac80     GuPCMContactPlaneConvex.obj
 0002:00006d10       ??_7PCMSphereVsHeightfieldContactGenerationCallback@physx@@6B@ 00000001801dad10     GuPCMContactSphereHeightField.obj
 0002:00006d60       ??_C@_0EF@EOEPBGBJ@C?3?2Programming?2Libs?2PhysX?2physx@ 00000001801dad60     GuPCMContactSphereMesh.obj
 0002:00006df0       __xmm@3727c5ac3727c5ac3727c5ac3727c5ac 00000001801dadf0     GuPCMContactSphereSphere.obj
 0002:00006e20       __xmm@3f7f06f73f7f06f73f7f06f73f7f06f7 00000001801dae20     GuPCMContactCustomGeometry.obj
 0002:00006e30       ?gPCMBoxPolygonData@Gu@physx@@3QBEB 00000001801dae30     GuPCMShapeConvex.obj
 0002:00006e90       ?invalidateThresholds@Gu@physx@@3QBMB 00000001801dae90     GuPersistentContactManifold.obj
 0002:00006ea8       ?invalidateQuatThresholds@Gu@physx@@3QBMB 00000001801daea8     GuPersistentContactManifold.obj
 0002:00006ec0       ?invalidateThresholds2@Gu@physx@@3QBMB 00000001801daec0     GuPersistentContactManifold.obj
 0002:00006ed0       ?invalidateQuatThresholds2@Gu@physx@@3QBMB 00000001801daed0     GuPersistentContactManifold.obj
 0002:00006f00       __xmm@00000000340000003400000034000000 00000001801daf00     GuPersistentContactManifold.obj
 0002:00006f10       __xmm@000000003f8000003f80000000000000 00000001801daf10     GuPersistentContactManifold.obj
 0002:00006f20       __xmm@00000000bf8000003f80000000000000 00000001801daf20     GuPersistentContactManifold.obj
 0002:00006f30       __xmm@ffffffffffffffff00000000ffffffff 00000001801daf30     GuPersistentContactManifold.obj
 0002:00006fa0       __real@b727c5ac            00000001801dafa0     GuSweepBoxSphere.obj
 0002:00007010       ??_C@_0FB@JDJNHLBP@C?3?2Programming?2Libs?2PhysX?2physx@ 00000001801db010     GuSweepCapsuleBox.obj
 0002:00007090       __real@3f7fff58            00000001801db090     GuSweepCapsuleTriangle.obj
 0002:00007100       ??_C@_0CH@DHJGKCPD@Gu?3?3computeBounds?3?5Unknown?5shap@ 00000001801db100     GuBounds.obj
 0002:00007130       ??_C@_0EC@FKBPHBHG@C?3?2Programming?2Libs?2PhysX?2physx@ 00000001801db130     GuBounds.obj
 0002:00007174       __real@34800000            00000001801db174     GuBounds.obj
 0002:00007178       __real@3f7fffef            00000001801db178     GuBounds.obj
 0002:00007180       __xmm@3f8147ae3f8147ae3f8147ae3f8147ae 00000001801db180     GuBounds.obj
 0002:000071b0       ??_C@_0EE@IKBCIGID@C?3?2Programming?2Libs?2PhysX?2physx@ 00000001801db1b0     GuAABBTree.obj
 0002:00007200       __xmm@5a60b17f5a60b17f5a60b17f5a60b17f 00000001801db200     GuAABBTree.obj
 0002:00007210       __xmm@da60b17fda60b17fda60b17fda60b17f 00000001801db210     GuAABBTree.obj
 0002:00007280       ??_C@_0EP@LBFPPBO@C?3?2Programming?2Libs?2PhysX?2physx@ 00000001801db280     GuIncrementalAABBTree.obj
 0002:000072d0       ??_C@_0DM@JJLHBGKO@C?3?2Programming?2Libs?2PhysX?2physx@ 00000001801db2d0     GuIncrementalAABBTree.obj
 0002:0000730c       __real@40400000            00000001801db30c     GuIncrementalAABBTree.obj
 0002:00007310       ??_C@_0DP@KIMHAHGF@C?3?2Programming?2Libs?2PhysX?2physx@ 00000001801db310     GuSAH.obj
 0002:00007370       ??_7PxBVH@physx@@6B@       00000001801db370     GuBVH.obj
 0002:00007400       ??_C@_05OKJNPKBM@PxBVH@    00000001801db400     GuBVH.obj
 0002:00007408       ??_7RefCountable@Cm@physx@@6B@ 00000001801db408     GuBVH.obj
 0002:00007418       ??_7BVH@Gu@physx@@6BPxBVH@2@@ 00000001801db418     GuBVH.obj
 0002:000074a8       ??_7BVH@Gu@physx@@6BRefCountable@Cm@2@@ 00000001801db4a8     GuBVH.obj
 0002:000074b8       ??_C@_0DP@LKKPJEJA@C?3?2Programming?2Libs?2PhysX?2physx@ 00000001801db4b8     GuBVH.obj
 0002:000074f8       ??_C@_0CK@HAIOEINI@PxBVH?3?3release?3?5double?5deletion@ 00000001801db4f8     GuBVH.obj
 0002:00007550       ??_C@_0FF@FHIDKHLE@C?3?2Programming?2Libs?2PhysX?2physx@ 00000001801db550     GuIncrementalAABBPrunerCore.obj
 0002:000075a8       __real@3f80a3d7            00000001801db5a8     GuIncrementalAABBPrunerCore.obj
 0002:000075d0       ??_7BasePruner@Gu@physx@@6B@ 00000001801db5d0     GuIncrementalAABBPruner.obj
 0002:000075e8       ??_7IncrementalAABBPruner@Gu@physx@@6B@ 00000001801db5e8     GuIncrementalAABBPruner.obj
 0002:00007670       ??_C@_0BM@FLAABPLG@SceneQuery?4prunerAddObjects@ 00000001801db670     GuIncrementalAABBPruner.obj
 0002:00007690       ??_C@_0BP@EAAOKPEE@SceneQuery?4prunerUpdateObjects@ 00000001801db690     GuIncrementalAABBPruner.obj
 0002:000076b0       ??_C@_0BP@EHMBNBOH@SceneQuery?4prunerRemoveObjects@ 00000001801db6b0     GuIncrementalAABBPruner.obj
 0002:000076d0       ??_C@_0BI@HOKOKBIM@SceneQuery?4prunerCommit@ 00000001801db6d0     GuIncrementalAABBPruner.obj
 0002:000076f0       ??_C@_0FB@IIPHJOCC@C?3?2Programming?2Libs?2PhysX?2physx@ 00000001801db6f0     GuIncrementalAABBPruner.obj
 0002:00007770       ??_C@_0BE@PKINCBHP@PruningPool?3?3resize@ 00000001801db770     GuPruningPool.obj
 0002:00007790       ??_C@_0EH@MCJNPFEL@C?3?2Programming?2Libs?2PhysX?2physx@ 00000001801db790     GuPruningPool.obj
 0002:000077d8       ??_C@_0BI@HMDEMGJB@PruningPool?3?3addObjects@ 00000001801db7d8     GuPruningPool.obj
 0002:000077f0       ??_C@_0BK@JPNIEHEJ@PruningPool?3?3removeObject@ 00000001801db7f0     GuPruningPool.obj
 0002:00007810       ??_C@_0BJ@GNLAFFBD@PruningPool?3?3shiftOrigin@ 00000001801db810     GuPruningPool.obj
 0002:00007830       ??_C@_0CE@MGPCCKGE@PruningPool?3?3updateAndInflateBo@ 00000001801db830     GuPruningPool.obj
 0002:000078a0       ??_7BucketPruner@Gu@physx@@6B@ 00000001801db8a0     GuBucketPruner.obj
 0002:00007930       ??_C@_0EI@NNGPLILH@C?3?2Programming?2Libs?2PhysX?2physx@ 00000001801db930     GuBucketPruner.obj
 0002:00007978       __real@bf13cd3a            00000001801db978     GuBucketPruner.obj
 0002:00007980       __xmm@000000007e7fffff7e7fffff7e7fffff 00000001801db980     GuBucketPruner.obj
 0002:00007990       __xmm@00000000fe7ffffffe7ffffffe7fffff 00000001801db990     GuBucketPruner.obj
 0002:000079a0       __xmm@3f13cd3a3f13cd3a3f13cd3a3f13cd3a 00000001801db9a0     GuBucketPruner.obj
 0002:000079b0       __xmm@bf13cd3abf13cd3abf13cd3a3f13cd3a 00000001801db9b0     GuBucketPruner.obj
 0002:000079c0       __xmm@bf8000003f8000003f800000bf800000 00000001801db9c0     GuBucketPruner.obj
 0002:000079d0       __xmm@bf8000003f800000bf8000003f800000 00000001801db9d0     GuBucketPruner.obj
 0002:000079e0       __xmm@bf800000bf8000003f8000003f800000 00000001801db9e0     GuBucketPruner.obj
 0002:000079f0       __xmm@bf800000bf800000bf8000003f800000 00000001801db9f0     GuBucketPruner.obj
 0002:00007a00       ?mIndices@MaverickNode@Gu@physx@@2QBIB 00000001801dba00     GuMaverickNode.obj
 0002:00007a60       ??_C@_0FA@LJGCACIO@C?3?2Programming?2Libs?2PhysX?2physx@ 00000001801dba60     GuExtendedBucketPruner.obj
 0002:00007ad0       ??_7CompanionPruner@Gu@physx@@6B@ 00000001801dbad0     GuSecondaryPruner.obj
 0002:00007b50       ??_7CompanionPrunerBucket@@6B@ 00000001801dbb50     GuSecondaryPruner.obj
 0002:00007bd0       ??_7CompanionPrunerIncremental@@6B@ 00000001801dbbd0     GuSecondaryPruner.obj
 0002:00007c50       ??_7CompanionPrunerAABBTree@@6B@ 00000001801dbc50     GuSecondaryPruner.obj
 0002:00007cd0       ??_C@_0EL@PAHFJJFJ@C?3?2Programming?2Libs?2PhysX?2physx@ 00000001801dbcd0     GuSecondaryPruner.obj
 0002:00007d40       ??_7AABBPruner@Gu@physx@@6B@ 00000001801dbd40     GuAABBPruner.obj
 0002:00007de0       ??_C@_0CC@JANKLMNO@SceneQuery?4bucketPrunerAddObjec@ 00000001801dbde0     GuAABBPruner.obj
 0002:00007e10       ??_C@_0LA@IHBEIKND@SceneQuery?5static?5AABB?5Tree?5reb@ 00000001801dbe10     GuAABBPruner.obj
 0002:00007ec0       ??_C@_0EG@GFMBCCOK@C?3?2Programming?2Libs?2PhysX?2physx@ 00000001801dbec0     GuAABBPruner.obj
 0002:00007f08       ??_C@_0CB@JOCHAJIC@SceneQuery?4prunerNewTreeFinaliz@ 00000001801dbf08     GuAABBPruner.obj
 0002:00007f30       ??_C@_0BP@IOICCIGM@SceneQuery?4prunerNewTreeSwitch@ 00000001801dbf30     GuAABBPruner.obj
 0002:00007f50       ??_C@_0CA@LJGALBJD@SceneQuery?4prunerNewTreeMapping@ 00000001801dbf50     GuAABBPruner.obj
 0002:00007f70       ??_C@_0CD@OCIEMIME@SceneQuery?4prunerNewTreeFinalRe@ 00000001801dbf70     GuAABBPruner.obj
 0002:00007f98       ??_C@_0CG@PMFEEPAE@SceneQuery?4prunerNewTreeRemoveO@ 00000001801dbf98     GuAABBPruner.obj
 0002:00007fc0       ??_C@_0BL@NAENOAHO@SceneQuery?4prunerBuildStep@ 00000001801dbfc0     GuAABBPruner.obj
 0002:00007fe0       ??_C@_0CC@MJCIDELA@SceneQuery?4prunerNewTreeFullRef@ 00000001801dbfe0     GuAABBPruner.obj
 0002:00008008       ??_C@_0BI@DAHHAEPA@SceneQuery?4prepareBuild@ 00000001801dc008     GuAABBPruner.obj
 0002:00008020       ??_C@_0CF@PDMDBIIO@SceneQuery?4prunerFullRebuildAAB@ 00000001801dc020     GuAABBPruner.obj
 0002:00008048       ??_C@_0CE@GKMPPEJP@SceneQuery?4prunerUpdateBucketPr@ 00000001801dc048     GuAABBPruner.obj
 0002:00008070       ??_C@_0CI@MKOHFNNO@SceneQuery?4prunerRefitUpdatedAn@ 00000001801dc070     GuAABBPruner.obj
 0002:000080a0       ??_C@_0EJ@JFHHPOOI@C?3?2Programming?2Libs?2PhysX?2physx@ 00000001801dc0a0     GuActorShapeMap.obj
 0002:00008110       ??_C@_0BF@DNABLJAF@Invalid?5pruner?5index@ 00000001801dc110     GuQuerySystem.obj
 0002:00008130       ??_C@_0EH@JMPLANMB@C?3?2Programming?2Libs?2PhysX?2physx@ 00000001801dc130     GuQuerySystem.obj
 0002:00008178       ??_C@_0BO@MMDENGGP@QuerySystem?4processDirtyLists@ 00000001801dc178     GuQuerySystem.obj
 0002:00008198       ??_C@_0BE@PHJMAGEL@QuerySystem?3?3update@ 00000001801dc198     GuQuerySystem.obj
 0002:000081b0       ??_C@_0BK@GODFCMPK@QuerySystem?4commitUpdates@ 00000001801dc1b0     GuQuerySystem.obj
 0002:00008200       ??_C@_0CA@NAJNANMC@QuerySystem?4createTreeOfPruners@ 00000001801dc200     GuQuerySystem.obj
 0002:00008240       ??_C@_0ED@NMHENAJD@C?3?2Programming?2Libs?2PhysX?2physx@ 00000001801dc240     GuFactory.obj
 0002:00008290       ?reductionFactors@SubSortQuick@physx@@2QBMB 00000001801dc290     GuRTreeCooking.obj
 0002:000082a0       ?stopAtTrisPerLeaf1@SubSortQuick@physx@@2QBIB 00000001801dc2a0     GuRTreeCooking.obj
 0002:00008370       ??_C@_0FA@FPLGEIHL@C?3?2Programming?2Libs?2PhysX?2physx@ 00000001801dc370     GuRTreeCooking.obj
 0002:000083c0       __real@41100000            00000001801dc3c0     GuRTreeCooking.obj
 0002:000083c4       __real@41700000            00000001801dc3c4     GuRTreeCooking.obj
 0002:000083c8       __real@42200000            00000001801dc3c8     GuRTreeCooking.obj
 0002:000083d0       __xmm@00000004000000030000000200000001 00000001801dc3d0     GuRTreeCooking.obj
 0002:00008400       ??_C@_0EO@EJGLBIPP@C?3?2Programming?2Libs?2PhysX?2physx@ 00000001801dc400     GuCookingBVH.obj
 0002:00008450       ??_C@_0DL@JHPKHGFA@Cooking?3?3cookBVH?3?5user?9provided@ 00000001801dc450     GuCookingBVH.obj
 0002:00008490       ??_C@_0DN@PLNPGFEB@Cooking?3?3createBVH?3?5user?9provid@ 00000001801dc490     GuCookingBVH.obj
 0002:000084d0       ??_C@_0EL@JCJBAPHL@Cooking?3?3cookHeightField?3?5user?9@ 00000001801dc4d0     GuCookingHF.obj
 0002:00008520       ??_C@_0EN@JEJAIBCL@C?3?2Programming?2Libs?2PhysX?2physx@ 00000001801dc520     GuCookingHF.obj
 0002:00008570       ??_C@_0EN@FCEPCAFC@Cooking?3?3createHeightField?3?5use@ 00000001801dc570     GuCookingHF.obj
 0002:000085c0       ??_C@_0EK@EKAIJEBL@Cooking?3?3cookConvexMesh?3?5user?9p@ 00000001801dc5c0     GuCookingConvexMesh.obj
 0002:00008610       ??_C@_0FA@GFFGAPML@Cooking?3?3cookConvexMesh?3?5provid@ 00000001801dc610     GuCookingConvexMesh.obj
 0002:00008660       ??_C@_0EP@PKDCPNNO@Cooking?3?3cookConvexMesh?3?5provid@ 00000001801dc660     GuCookingConvexMesh.obj
 0002:000086b0       ??_C@_0EO@LKFMMDE@Cooking?3?3cookConvexMesh?3?5user?9p@ 00000001801dc6b0     GuCookingConvexMesh.obj
 0002:00008700       ??_C@_0EL@KJEPJALG@Cooking?3?3cookConvexMesh?3?5user?9p@ 00000001801dc700     GuCookingConvexMesh.obj
 0002:00008750       ??_C@_0FM@LHMEBKMM@Cooking?3?3cookConvexMesh?3?5GPU?9co@ 00000001801dc750     GuCookingConvexMesh.obj
 0002:000087b0       ??_C@_0FJ@FHCFFABE@Cooking?3?3cookConvexMesh?3?5GPU?9co@ 00000001801dc7b0     GuCookingConvexMesh.obj
 0002:00008810       ??_C@_0FF@EJEGNPKJ@C?3?2Programming?2Libs?2PhysX?2physx@ 00000001801dc810     GuCookingConvexMesh.obj
 0002:00008890       ??_7TriangleMeshBuilder@physx@@6B@ 00000001801dc890     GuCookingTriangleMesh.obj
 0002:000088b8       ??_7RTreeTriangleMeshBuilder@physx@@6B@ 00000001801dc8b8     GuCookingTriangleMesh.obj
 0002:000088e0       ??_7BV4TriangleMeshBuilder@physx@@6B@ 00000001801dc8e0     GuCookingTriangleMesh.obj
 0002:00008910       ??_C@_0FH@BMFMPCIF@C?3?2Programming?2Libs?2PhysX?2physx@ 00000001801dc910     GuCookingTriangleMesh.obj
 0002:00008968       ??_C@_0DJ@IGODLHLP@TriangleMesh?3?5Enable?5mesh?5weldi@ 00000001801dc968     GuCookingTriangleMesh.obj
 0002:000089b0       ??_C@_0FJ@HHJLKGDF@TriangleMesh?3?5triangles?5are?5too@ 00000001801dc9b0     GuCookingTriangleMesh.obj
 0002:00008a10       ??_C@_0CN@KGPHHHLK@TriangleMesh?3?5mesh?5is?5too?5big?5f@ 00000001801dca10     GuCookingTriangleMesh.obj
 0002:00008a40       ??_C@_0DD@CMJGDCNN@TriangleMesh?3?3loadFromDesc?3?5des@ 00000001801dca40     GuCookingTriangleMesh.obj
 0002:00008a80       ??_C@_0ED@ILJJNHIP@TriangleMesh?3?3loadFromDesc?3?5mPa@ 00000001801dca80     GuCookingTriangleMesh.obj
 0002:00008ac8       ??_C@_0CK@BJFFGDPK@input?5mesh?5contains?5corrupted?5v@ 00000001801dcac8     GuCookingTriangleMesh.obj
 0002:00008af8       ??_C@_0BJ@BKHDBBHO@cleaning?5the?5mesh?5failed@ 00000001801dcaf8     GuCookingTriangleMesh.obj
 0002:00008b18       ??_C@_0CC@BPIMLJA@input?5sdf?5contains?5corrupted?5da@ 00000001801dcb18     GuCookingTriangleMesh.obj
 0002:00008b40       ??_C@_0BK@JIDHMMCE@BV4?5tree?5failed?5to?5build?4@ 00000001801dcb40     GuCookingTriangleMesh.obj
 0002:00008b60       ??_C@_0BL@DHNECNBE@BV32?5tree?5failed?5to?5build?4@ 00000001801dcb60     GuCookingTriangleMesh.obj
 0002:00008b80       ??_7RTreeCookerRemap@@6B@  00000001801dcb80     GuCookingTriangleMesh.obj
 0002:00008b90       ??_C@_0FC@PJIHAFK@Cooking?3?3validateTriangleMesh?3?5@ 00000001801dcb90     GuCookingTriangleMesh.obj
 0002:00008be4       __real@48742400            00000001801dcbe4     GuCookingTriangleMesh.obj
 0002:00008c10       ??_7PxCollisionTetrahedronMeshData@physx@@6B@ 00000001801dcc10     GuCookingTetrahedronMesh.obj
 0002:00008c40       ??_7PxSimulationTetrahedronMeshData@physx@@6B@ 00000001801dcc40     GuCookingTetrahedronMesh.obj
 0002:00008c60       ??_7CollisionTetrahedronMeshData@Gu@physx@@6B@ 00000001801dcc60     GuCookingTetrahedronMesh.obj
 0002:00008c90       ??_7SimulationTetrahedronMeshData@Gu@physx@@6B@ 00000001801dcc90     GuCookingTetrahedronMesh.obj
 0002:00008cb0       ??_C@_0FK@HNECOCJJ@C?3?2Programming?2Libs?2PhysX?2physx@ 00000001801dccb0     GuCookingTetrahedronMesh.obj
 0002:00008d10       ??_C@_0EG@BKGBJDHG@computeRestPoseAndPointMass?$CI?$CJ?3?5@ 00000001801dcd10     GuCookingTetrahedronMesh.obj
 0002:00008d58       ??_7?$LocalConvex@VTetrahedronV@Gu@physx@@@Gu@physx@@6B@ 00000001801dcd58     GuCookingTetrahedronMesh.obj
 0002:00008d88       ??_C@_0CD@OJGNHLOE@BV4_AABBTree?5tree?5failed?5to?5bui@ 00000001801dcd88     GuCookingTetrahedronMesh.obj
 0002:00008db0       ??_C@_0DG@NCNIEEHB@TetrahedronMesh?3?3loadFromDesc?3?5@ 00000001801dcdb0     GuCookingTetrahedronMesh.obj
 0002:00008df0       ??_C@_0EG@CJIFGLMC@TetrahedronMesh?3?3loadFromDesc?3?5@ 00000001801dcdf0     GuCookingTetrahedronMesh.obj
 0002:00008e38       __real@3e2aaaab            00000001801dce38     GuCookingTetrahedronMesh.obj
 0002:00008e3c       __real@be2aaaab            00000001801dce3c     GuCookingTetrahedronMesh.obj
 0002:00008e40       __xmm@00000003000000030000000300000003 00000001801dce40     GuCookingTetrahedronMesh.obj
 0002:00008e70       __real@3bc79ca10c924223    00000001801dce70     GuCookingVolumeIntegration.obj
 0002:00008e78       __real@3f91111111111111    00000001801dce78     GuCookingVolumeIntegration.obj
 0002:00008e80       __real@3fa5555555555555    00000001801dce80     GuCookingVolumeIntegration.obj
 0002:00008e88       __real@3fa999999999999a    00000001801dce88     GuCookingVolumeIntegration.obj
 0002:00008e90       __real@3fb5555555555555    00000001801dce90     GuCookingVolumeIntegration.obj
 0002:00008e98       __real@3fc5555555555555    00000001801dce98     GuCookingVolumeIntegration.obj
 0002:00008ea0       __real@3fe0000000000000    00000001801dcea0     GuCookingVolumeIntegration.obj
 0002:00008ea8       __real@3ff0000000000000    00000001801dcea8     GuCookingVolumeIntegration.obj
 0002:00008eb0       __real@4008000000000000    00000001801dceb0     GuCookingVolumeIntegration.obj
 0002:00008eb8       __real@4010000000000000    00000001801dceb8     GuCookingVolumeIntegration.obj
 0002:00008ec0       __real@bf91111111111111    00000001801dcec0     GuCookingVolumeIntegration.obj
 0002:00008ec8       __real@bfa999999999999a    00000001801dcec8     GuCookingVolumeIntegration.obj
 0002:00008ed0       __real@bfb5555555555555    00000001801dced0     GuCookingVolumeIntegration.obj
 0002:00008ed8       __real@bfc5555555555555    00000001801dced8     GuCookingVolumeIntegration.obj
 0002:00008ee0       __xmm@3c0888893c0888893c0888893c088889 00000001801dcee0     GuCookingVolumeIntegration.obj
 0002:00008ef0       __xmm@3c8888893c8888893c8888893c888889 00000001801dcef0     GuCookingVolumeIntegration.obj
 0002:00008f00       __xmm@3d2aaaab3d2aaaab3d2aaaab3d2aaaab 00000001801dcf00     GuCookingVolumeIntegration.obj
 0002:00008f10       __xmm@3e2aaaab3e2aaaab3e2aaaab3e2aaaab 00000001801dcf10     GuCookingVolumeIntegration.obj
 0002:00008f20       __xmm@3f811111111111113f81111111111111 00000001801dcf20     GuCookingVolumeIntegration.obj
 0002:00008f30       __xmm@3f811111111111113f91111111111111 00000001801dcf30     GuCookingVolumeIntegration.obj
 0002:00008f40       __xmm@3f911111111111113f91111111111111 00000001801dcf40     GuCookingVolumeIntegration.obj
 0002:00008f50       __xmm@3fa55555555555553fa5555555555555 00000001801dcf50     GuCookingVolumeIntegration.obj
 0002:00008f60       __xmm@3fa55555555555553fc5555555555555 00000001801dcf60     GuCookingVolumeIntegration.obj
 0002:00008f70       __xmm@3fd55555555555553fd5555555555555 00000001801dcf70     GuCookingVolumeIntegration.obj
 0002:00008f80       __xmm@3fe00000000000003fe0000000000000 00000001801dcf80     GuCookingVolumeIntegration.obj
 0002:00008f90       __xmm@7fffffffffffffff7fffffffffffffff 00000001801dcf90     GuCookingVolumeIntegration.obj
 0002:00008fa0       __xmm@80000000000000008000000000000000 00000001801dcfa0     GuCookingVolumeIntegration.obj
 0002:00008fb0       ??_7ConvexHullLib@physx@@6B@ 00000001801dcfb0     GuCookingQuickHullConvexHullLib.obj
 0002:00008fd0       ??_7QuickHullConvexHullLib@physx@@6B@ 00000001801dcfd0     GuCookingQuickHullConvexHullLib.obj
 0002:00008ff0       ??_C@_0GB@KHLBBAMC@C?3?2Programming?2Libs?2PhysX?2physx@ 00000001801dcff0     GuCookingQuickHullConvexHullLib.obj
 0002:00009060       ??_C@_0GA@EPPAEJPM@QuickHullConvexHullLib?3?3findSim@ 00000001801dd060     GuCookingQuickHullConvexHullLib.obj
 0002:000090c0       ??_C@_0FB@NEBIJMML@QuickHullConvexHullLib?3?3findSim@ 00000001801dd0c0     GuCookingQuickHullConvexHullLib.obj
 0002:00009120       ??_C@_0FB@CLLCBEMM@QuickHullConvexHullLib?3?3findSim@ 00000001801dd120     GuCookingQuickHullConvexHullLib.obj
 0002:00009174       __real@34c00000            00000001801dd174     GuCookingQuickHullConvexHullLib.obj
 0002:00009178       ??_C@_0DP@PJBJBEGF@Meshmerizer?3?3extractHullPolygon@ 00000001801dd178     GuCookingConvexPolygonsBuilder.obj
 0002:000091c0       ??_C@_0GA@FJCLIICB@C?3?2Programming?2Libs?2PhysX?2physx@ 00000001801dd1c0     GuCookingConvexPolygonsBuilder.obj
 0002:00009220       ??_C@_0DL@IAFKOCCK@ConvexHullBuilder?3?5convex?5hull?5@ 00000001801dd220     GuCookingConvexPolygonsBuilder.obj
 0002:00009260       ??_C@_0GF@OJLJHAMH@ConvexHullBuilder?3?3CreateTriang@ 00000001801dd260     GuCookingConvexPolygonsBuilder.obj
 0002:000092f0       ??_C@_0DF@LLFJIJGM@Gu?3?3ConvexMesh?3?3loadFromDesc?3?5d@ 00000001801dd2f0     GuCookingConvexMeshBuilder.obj
 0002:00009330       ??_C@_0HK@JOGKIEAA@Gu?3?3ConvexMesh?3?5Mesh?5has?5a?5nega@ 00000001801dd330     GuCookingConvexMeshBuilder.obj
 0002:000093b0       ??_C@_0DH@NJPPHFFD@Gu?3?3ConvexMesh?3?5Error?5computing@ 00000001801dd3b0     GuCookingConvexMeshBuilder.obj
 0002:000093e8       ??_C@_0DJ@LJDLGLDJ@Gu?3?3ConvexMesh?3?3loadConvexHull?3@ 00000001801dd3e8     GuCookingConvexMeshBuilder.obj
 0002:00009430       ??_C@_0HJ@KJANPPOE@ConvexMeshBuilder?3?3computeHullP@ 00000001801dd430     GuCookingConvexMeshBuilder.obj
 0002:000094b0       ??_C@_0FM@BNMJAPLI@C?3?2Programming?2Libs?2PhysX?2physx@ 00000001801dd4b0     GuCookingConvexMeshBuilder.obj
 0002:00009510       ??_C@_0O@JMAGMMGG@PxHullPolygon@ 00000001801dd510     GuCookingConvexMeshBuilder.obj
 0002:00009520       __real@3f13cd3a            00000001801dd520     GuCookingConvexMeshBuilder.obj
 0002:00009550       ??_C@_0FK@MMFLCIC@C?3?2Programming?2Libs?2PhysX?2physx@ 00000001801dd550     GuCookingConvexHullUtils.obj
 0002:000095ac       __real@3e20d97c            00000001801dd5ac     GuCookingConvexHullUtils.obj
 0002:000095b0       ??_C@_0FI@FPHEAAJI@C?3?2Programming?2Libs?2PhysX?2physx@ 00000001801dd5b0     GuCookingConvexHullLib.obj
 0002:00009610       ??_C@_0JE@PABBNGEL@ConvexHullLib?3?3cleanupVertices?3@ 00000001801dd610     GuCookingConvexHullLib.obj
 0002:000096d0       ??_C@_0FM@NDGNKPON@C?3?2Programming?2Libs?2PhysX?2physx@ 00000001801dd6d0     GuCookingConvexHullBuilder.obj
 0002:00009730       ??_C@_0EB@DCEIFDGC@ConvexHullBuilder?3?3init?3?5convex@ 00000001801dd730     GuCookingConvexHullBuilder.obj
 0002:00009780       ??_C@_0FM@KICBLCBH@Gu?3?3ConvexMesh?3?3checkHullPolygo@ 00000001801dd780     GuCookingConvexHullBuilder.obj
 0002:000097e0       ??_C@_0GO@HBFIOGLL@Gu?3?3ConvexMesh?3?3checkHullPolygo@ 00000001801dd7e0     GuCookingConvexHullBuilder.obj
 0002:00009850       ??_C@_0HF@OLJFBIEL@ConvexHullBuilder?3?5convex?5hull?5@ 00000001801dd850     GuCookingConvexHullBuilder.obj
 0002:000098d0       ??_C@_0OG@JNHFOIL@ConvexHullBuilder?3?5convex?5hull?5@ 00000001801dd8d0     GuCookingConvexHullBuilder.obj
 0002:000099c0       ??_C@_0EJ@NIOIBAKH@Cooking?3?3cookConvexMesh?3?5non?9ma@ 00000001801dd9c0     GuCookingConvexHullBuilder.obj
 0002:00009a30       ??_C@_0FP@IIEMKHGP@C?3?2Programming?2Libs?2PhysX?2physx@ 00000001801dda30     GuCookingBigConvexDataBuilder.obj
 0002:00009a90       __sz_PhysXFoundation_64_dll 00000001801dda90     PhysXFoundation_64:PhysXFoundation_64.dll
 0002:00009aa8       ??_C@_1BK@DBDEIDLH@?$AAK?$AAE?$AAR?$AAN?$AAE?$AAL?$AA3?$AA2?$AA?4?$AAD?$AAL?$AAL@ 00000001801ddaa8     Delayimp:delayhlp.obj
 0002:00009ac8       ??_C@_0BI@OMNLIJDB@AcquireSRWLockExclusive@ 00000001801ddac8     Delayimp:delayhlp.obj
 0002:00009ae0       ??_C@_0BI@HMIEPCNJ@ReleaseSRWLockExclusive@ 00000001801ddae0     Delayimp:delayhlp.obj
 0002:00009af8       __pfnDliFailureHook2       00000001801ddaf8     Delayimp:delayhk1.obj
 0002:00009b08       ??_7type_info@@6B@         00000001801ddb08     LIBCMT:std_type_info_static.obj
 0002:00009b70       _pDefaultRawDllMain        00000001801ddb70     LIBCMT:dll_dllmain.obj
 0002:00009b70       _pRawDllMain               00000001801ddb70     LIBCMT:dll_dllmain.obj
 0002:00009b80       _load_config_used          00000001801ddb80     LIBCMT:loadcfg.obj
 0002:00009cc0       _pDestructExceptionObject  00000001801ddcc0     libvcruntime:ehhelpers.obj
 0002:0000a3e0       ??_C@_08EHJDFFNH@__based?$CI@ 00000001801de3e0     libvcruntime:undname.obj
 0002:0000a3f0       ??_C@_07KOLFKCDI@__cdecl@  00000001801de3f0     libvcruntime:undname.obj
 0002:0000a3f8       ??_C@_08GHMPAG@__pascal@   00000001801de3f8     libvcruntime:undname.obj
 0002:0000a408       ??_C@_09IFJBGAPI@__stdcall@ 00000001801de408     libvcruntime:undname.obj
 0002:0000a418       ??_C@_0L@NPHFGOKO@__thiscall@ 00000001801de418     libvcruntime:undname.obj
 0002:0000a428       ??_C@_0L@JMKHOMEK@__fastcall@ 00000001801de428     libvcruntime:undname.obj
 0002:0000a438       ??_C@_0N@BCKKPABJ@__vectorcall@ 00000001801de438     libvcruntime:undname.obj
 0002:0000a448       ??_C@_09HIJEGCPM@__clrcall@ 00000001801de448     libvcruntime:undname.obj
 0002:0000a454       ??_C@_06GHPCKEAG@__eabi@   00000001801de454     libvcruntime:undname.obj
 0002:0000a460       ??_C@_09IOPIDJLG@__swift_1@ 00000001801de460     libvcruntime:undname.obj
 0002:0000a470       ??_C@_09KFNFGKHF@__swift_2@ 00000001801de470     libvcruntime:undname.obj
 0002:0000a480       ??_C@_09LMMOFLDE@__swift_3@ 00000001801de480     libvcruntime:undname.obj
 0002:0000a490       ??_C@_07JOMMBBKO@__ptr64@  00000001801de490     libvcruntime:undname.obj
 0002:0000a498       ??_C@_0L@PILCLIHE@__restrict@ 00000001801de498     libvcruntime:undname.obj
 0002:0000a4a8       ??_C@_0M@GFIIJFMG@__unaligned@ 00000001801de4a8     libvcruntime:undname.obj
 0002:0000a4b8       ??_C@_09DHDLOLLB@restrict?$CI@ 00000001801de4b8     libvcruntime:undname.obj
 0002:0000a4c4       ??_C@_04NIHEBCM@?5new@     00000001801de4c4     libvcruntime:undname.obj
 0002:0000a4d0       ??_C@_07FPCDHGMM@?5delete@ 00000001801de4d0     libvcruntime:undname.obj
 0002:0000a4d8       ??_C@_01NEMOKFLO@?$DN@     00000001801de4d8     libvcruntime:undname.obj
 0002:0000a4dc       ??_C@_02GPIOPFAK@?$DO?$DO@ 00000001801de4dc     libvcruntime:undname.obj
 0002:0000a4e0       ??_C@_02FODMEDOG@?$DM?$DM@ 00000001801de4e0     libvcruntime:undname.obj
 0002:0000a4e4       ??_C@_01DCLJPIOD@?$CB@     00000001801de4e4     libvcruntime:undname.obj
 0002:0000a4e8       ??_C@_02EGOFBIJA@?$DN?$DN@ 00000001801de4e8     libvcruntime:undname.obj
 0002:0000a4ec       ??_C@_02FDNJECIE@?$CB?$DN@ 00000001801de4ec     libvcruntime:undname.obj
 0002:0000a4f0       ??_C@_02GPECMEKF@?$FL?$FN@ 00000001801de4f0     libvcruntime:undname.obj
 0002:0000a4f8       ??_C@_08LHJFAFGD@operator@ 00000001801de4f8     libvcruntime:undname.obj
 0002:0000a504       ??_C@_02HBOOOICD@?9?$DO@   00000001801de504     libvcruntime:undname.obj
 0002:0000a508       ??_C@_01NBENCBCI@?$CK@     00000001801de508     libvcruntime:undname.obj
 0002:0000a50c       ??_C@_02ECNGHCIF@?$CL?$CL@ 00000001801de50c     libvcruntime:undname.obj
 0002:0000a510       ??_C@_02BAABKJLB@?9?9@     00000001801de510     libvcruntime:undname.obj
 0002:0000a514       ??_C@_01JOAMLHOP@?9@       00000001801de514     libvcruntime:undname.obj
 0002:0000a518       ??_C@_01MIFGBAGJ@?$CL@     00000001801de518     libvcruntime:undname.obj
 0002:0000a51c       ??_C@_01HNPIGOCE@?$CG@     00000001801de51c     libvcruntime:undname.obj
 0002:0000a520       ??_C@_03MNHNFDLC@?9?$DO?$CK@ 00000001801de520     libvcruntime:undname.obj
 0002:0000a524       ??_C@_01KMDKNFGN@?1@       00000001801de524     libvcruntime:undname.obj
 0002:0000a528       ??_C@_01FGNFDNOH@?$CF@     00000001801de528     libvcruntime:undname.obj
 0002:0000a52c       ??_C@_01MNNFJEPP@?$DM@     00000001801de52c     libvcruntime:undname.obj
 0002:0000a530       ??_C@_02EHCHHCKH@?$DM?$DN@ 00000001801de530     libvcruntime:undname.obj
 0002:0000a534       ??_C@_01PPODPGHN@?$DO@     00000001801de534     libvcruntime:undname.obj
 0002:0000a538       ??_C@_02EEKDKGMJ@?$DO?$DN@ 00000001801de538     libvcruntime:undname.obj
 0002:0000a53c       ??_C@_01IHBHIGKO@?0@       00000001801de53c     libvcruntime:undname.obj
 0002:0000a540       ??_C@_02HCKGKOFO@?$CI?$CJ@ 00000001801de540     libvcruntime:undname.obj
 0002:0000a544       ??_C@_01PJKLJHI@?$HO@      00000001801de544     libvcruntime:undname.obj
 0002:0000a548       ??_C@_01JKBOJNNK@?$FO@     00000001801de548     libvcruntime:undname.obj
 0002:0000a54c       ??_C@_01DNKMNLPK@?$HM@     00000001801de54c     libvcruntime:undname.obj
 0002:0000a550       ??_C@_02PPKAJPJL@?$CG?$CG@ 00000001801de550     libvcruntime:undname.obj
 0002:0000a554       ??_C@_02NONPIBCD@?$HM?$HM@ 00000001801de554     libvcruntime:undname.obj
 0002:0000a558       ??_C@_02FPIMKNGF@?$CK?$DN@ 00000001801de558     libvcruntime:undname.obj
 0002:0000a55c       ??_C@_02FOEOMHFC@?$CL?$DN@ 00000001801de55c     libvcruntime:undname.obj
 0002:0000a560       ??_C@_02FKMDLLOA@?9?$DN@   00000001801de560     libvcruntime:undname.obj
 0002:0000a564       ??_C@_02FJEHGPIO@?1?$DN@   00000001801de564     libvcruntime:undname.obj
 0002:0000a568       ??_C@_02FENAOKFI@?$CF?$DN@ 00000001801de568     libvcruntime:undname.obj
 0002:0000a56c       ??_C@_03IKFCCPFF@?$DO?$DO?$DN@ 00000001801de56c     libvcruntime:undname.obj
 0002:0000a570       ??_C@_03CDNPDDLA@?$DM?$DM?$DN@ 00000001801de570     libvcruntime:undname.obj
 0002:0000a574       ??_C@_02FGJGFEAB@?$CG?$DN@ 00000001801de574     libvcruntime:undname.obj
 0002:0000a578       ??_C@_02DHLNPPGH@?$HM?$DN@ 00000001801de578     libvcruntime:undname.obj
 0002:0000a57c       ??_C@_02MHEGNOJ@?$FO?$DN@  00000001801de57c     libvcruntime:undname.obj
 0002:0000a580       ??_C@_09IFPLHPGF@?$GAvftable?8@ 00000001801de580     libvcruntime:undname.obj
 0002:0000a590       ??_C@_09BLBHBJP@?$GAvbtable?8@ 00000001801de590     libvcruntime:undname.obj
 0002:0000a5a0       ??_C@_07FEEIOKP@?$GAvcall?8@ 00000001801de5a0     libvcruntime:undname.obj
 0002:0000a5a8       ??_C@_08LLFFHHDJ@?$GAtypeof?8@ 00000001801de5a8     libvcruntime:undname.obj
 0002:0000a5b8       ??_C@_0BF@KDPPACIK@?$GAlocal?5static?5guard?8@ 00000001801de5b8     libvcruntime:undname.obj
 0002:0000a5d0       ??_C@_08OBABFOLI@?$GAstring?8@ 00000001801de5d0     libvcruntime:undname.obj
 0002:0000a5e0       ??_C@_0BD@JDLKDPAB@?$GAvbase?5destructor?8@ 00000001801de5e0     libvcruntime:undname.obj
 0002:0000a5f8       ??_C@_0BN@DEGPLNFK@?$GAvector?5deleting?5destructor?8@ 00000001801de5f8     libvcruntime:undname.obj
 0002:0000a618       ??_C@_0BO@OBMKPJIG@?$GAdefault?5constructor?5closure?8@ 00000001801de618     libvcruntime:undname.obj
 0002:0000a638       ??_C@_0BN@IMDCHIKM@?$GAscalar?5deleting?5destructor?8@ 00000001801de638     libvcruntime:undname.obj
 0002:0000a658       ??_C@_0BO@PFGOCPJJ@?$GAvector?5constructor?5iterator?8@ 00000001801de658     libvcruntime:undname.obj
 0002:0000a678       ??_C@_0BN@LFPFMEDL@?$GAvector?5destructor?5iterator?8@ 00000001801de678     libvcruntime:undname.obj
 0002:0000a698       ??_C@_0CE@IKBNEHA@?$GAvector?5vbase?5constructor?5itera@ 00000001801de698     libvcruntime:undname.obj
 0002:0000a6c0       ??_C@_0BL@NILFHHPC@?$GAvirtual?5displacement?5map?8@ 00000001801de6c0     libvcruntime:undname.obj
 0002:0000a6e0       ??_C@_0CB@JONCMFFK@?$GAeh?5vector?5constructor?5iterator@ 00000001801de6e0     libvcruntime:undname.obj
 0002:0000a708       ??_C@_0CA@GCEOPDGL@?$GAeh?5vector?5destructor?5iterator?8@ 00000001801de708     libvcruntime:undname.obj
 0002:0000a728       ??_C@_0CH@OOJPLCPH@?$GAeh?5vector?5vbase?5constructor?5it@ 00000001801de728     libvcruntime:undname.obj
 0002:0000a750       ??_C@_0BL@LLKPOHJI@?$GAcopy?5constructor?5closure?8@ 00000001801de750     libvcruntime:undname.obj
 0002:0000a770       ??_C@_0BA@KBCDOMBN@?$GAudt?5returning?8@ 00000001801de770     libvcruntime:undname.obj
 0002:0000a780       ??_C@_03KLGMFNMG@?$GAEH@   00000001801de780     libvcruntime:undname.obj
 0002:0000a784       ??_C@_05KHLCHHI@?$GARTTI@  00000001801de784     libvcruntime:undname.obj
 0002:0000a790       ??_C@_0BA@KKLDJDLB@?$GAlocal?5vftable?8@ 00000001801de790     libvcruntime:undname.obj
 0002:0000a7a0       ??_C@_0CE@IIHCMGGL@?$GAlocal?5vftable?5constructor?5clos@ 00000001801de7a0     libvcruntime:undname.obj
 0002:0000a7c4       ??_C@_06FHBGPFGH@?5new?$FL?$FN@ 00000001801de7c4     libvcruntime:undname.obj
 0002:0000a7d0       ??_C@_09LBNFPBCA@?5delete?$FL?$FN@ 00000001801de7d0     libvcruntime:undname.obj
 0002:0000a7e0       ??_C@_0P@HJKNJFNN@?$GAomni?5callsig?8@ 00000001801de7e0     libvcruntime:undname.obj
 0002:0000a7f0       ??_C@_0BL@CNOONJFP@?$GAplacement?5delete?5closure?8@ 00000001801de7f0     libvcruntime:undname.obj
 0002:0000a810       ??_C@_0BN@CKNJLHMB@?$GAplacement?5delete?$FL?$FN?5closure?8@ 00000001801de810     libvcruntime:undname.obj
 0002:0000a830       ??_C@_0CG@CFDHKGGD@?$GAmanaged?5vector?5constructor?5ite@ 00000001801de830     libvcruntime:undname.obj
 0002:0000a858       ??_C@_0CF@IMGKMJNO@?$GAmanaged?5vector?5destructor?5iter@ 00000001801de858     libvcruntime:undname.obj
 0002:0000a880       ??_C@_0CG@HLDDJMAG@?$GAeh?5vector?5copy?5constructor?5ite@ 00000001801de880     libvcruntime:undname.obj
 0002:0000a8a8       ??_C@_0CM@FCBBDIGB@?$GAeh?5vector?5vbase?5copy?5construct@ 00000001801de8a8     libvcruntime:undname.obj
 0002:0000a8d8       ??_C@_0BL@CLIPGLGB@?$GAdynamic?5initializer?5for?5?8@ 00000001801de8d8     libvcruntime:undname.obj
 0002:0000a8f8       ??_C@_0CB@PDBIFEP@?$GAdynamic?5atexit?5destructor?5for?5@ 00000001801de8f8     libvcruntime:undname.obj
 0002:0000a920       ??_C@_0CD@CGAJBKEJ@?$GAvector?5copy?5constructor?5iterat@ 00000001801de920     libvcruntime:undname.obj
 0002:0000a948       ??_C@_0CJ@GJELGAMM@?$GAvector?5vbase?5copy?5constructor?5@ 00000001801de948     libvcruntime:undname.obj
 0002:0000a978       ??_C@_0CL@FGIJHLCE@?$GAmanaged?5vector?5copy?5constructo@ 00000001801de978     libvcruntime:undname.obj
 0002:0000a9a8       ??_C@_0BM@PMGGMLDN@?$GAlocal?5static?5thread?5guard?8@ 00000001801de9a8     libvcruntime:undname.obj
 0002:0000a9c8       ??_C@_0N@BDNMDMOL@operator?5?$CC?$CC?5@ 00000001801de9c8     libvcruntime:undname.obj
 0002:0000a9d8       ??_C@_0BC@GGEBGALA@operator?5co_await@ 00000001801de9d8     libvcruntime:undname.obj
 0002:0000a9f0       ??_C@_0M@GAAIMMOH@operator?$DM?$DN?$DO@ 00000001801de9f0     libvcruntime:undname.obj
 0002:0000aa00       ??_C@_0BC@DAFEJGAK@?5Type?5Descriptor?8@ 00000001801dea00     libvcruntime:undname.obj
 0002:0000aa18       ??_C@_0BM@LDKODKLH@?5Base?5Class?5Descriptor?5at?5?$CI@ 00000001801dea18     libvcruntime:undname.obj
 0002:0000aa38       ??_C@_0BD@LGICGFMM@?5Base?5Class?5Array?8@ 00000001801dea38     libvcruntime:undname.obj
 0002:0000aa50       ??_C@_0BN@MECKDCOJ@?5Class?5Hierarchy?5Descriptor?8@ 00000001801dea50     libvcruntime:undname.obj
 0002:0000aa70       ??_C@_0BK@CFCOFLF@?5Complete?5Object?5Locator?8@ 00000001801dea70     libvcruntime:undname.obj
 0002:0000aa90       ??_C@_0BG@JNJLAMPM@?$GAanonymous?5namespace?8@ 00000001801dea90     libvcruntime:undname.obj
 0002:0000aaa8       ??_C@_04HEJADOOB@CV?3?5@   00000001801deaa8     libvcruntime:undname.obj
 0002:0000aab0       ??_C@_02MOLJINC@?3?3@      00000001801deab0     libvcruntime:undname.obj
 0002:0000aab8       ??_C@_0BE@JAEOCHPE@template?9parameter?9@ 00000001801deab8     libvcruntime:undname.obj
 0002:0000aad0       ??_C@_0BF@LNLGBBNL@?$GAtemplate?9parameter?9@ 00000001801dead0     libvcruntime:undname.obj
 0002:0000aae8       ??_C@_0O@KHGCOMHP@generic?9type?9@ 00000001801deae8     libvcruntime:undname.obj
 0002:0000aaf8       ??_C@_0P@ODDENDLM@?$GAgeneric?9type?9@ 00000001801deaf8     libvcruntime:undname.obj
 0002:0000ab08       ??_C@_02OHHJMEON@?8?8@     00000001801deb08     libvcruntime:undname.obj
 0002:0000ab10       ??_C@_0BN@IBLMMFAP@?$GAnon?9type?9template?9parameter@ 00000001801deb10     libvcruntime:undname.obj
 0002:0000ab30       ??_C@_03DLDNIBIK@?$CFlf@   00000001801deb30     libvcruntime:undname.obj
 0002:0000ab34       ??_C@_04OFALKAJ@?$DP?$DP_C@ 00000001801deb34     libvcruntime:undname.obj
 0002:0000ab3c       ??_C@_03KHICJKCI@?4?4?4@   00000001801deb3c     libvcruntime:undname.obj
 0002:0000ab40       ??_C@_04HIBGFPH@NULL@      00000001801deb40     libvcruntime:undname.obj
 0002:0000ab48       ??_C@_02DPKJAMEF@?$CFd@    00000001801deb48     libvcruntime:undname.obj
 0002:0000ab50       ??_C@_0BK@IHCCFNEL@?$GAtemplate?9type?9parameter?9@ 00000001801deb50     libvcruntime:undname.obj
 0002:0000ab70       ??_C@_0BK@OFCNNNKO@?$GAgeneric?9class?9parameter?9@ 00000001801deb70     libvcruntime:undname.obj
 0002:0000ab90       ??_C@_0BL@NGJBLFIL@?$GAgeneric?9method?9parameter?9@ 00000001801deb90     libvcruntime:undname.obj
 0002:0000abb0       ??_C@_07OHNGEDJK@nullptr@  00000001801debb0     libvcruntime:undname.obj
 0002:0000abb8       ??_C@_06COJIGPIB@lambda@   00000001801debb8     libvcruntime:undname.obj
 0002:0000abc0       ??_C@_0BE@EODMJLIF@?$GAtemplate?9parameter@ 00000001801debc0     libvcruntime:undname.obj
 0002:0000abd4       ??_C@_03OPGICMGF@?$HN?8?5@ 00000001801debd4     libvcruntime:undname.obj
 0002:0000abd8       ??_C@_02IGFCGPIL@?$HN?8@   00000001801debd8     libvcruntime:undname.obj
 0002:0000abe0       ??_C@_0N@CBHHHENL@?$GAvtordispex?$HL@ 00000001801debe0     libvcruntime:undname.obj
 0002:0000abf0       ??_C@_0L@GHPFDFH@?$GAvtordisp?$HL@ 00000001801debf0     libvcruntime:undname.obj
 0002:0000ac00       ??_C@_0L@HNGCOGAE@?$GAadjustor?$HL@ 00000001801dec00     libvcruntime:undname.obj
 0002:0000ac10       ??_C@_0CB@KJDOOODE@?$GAlocal?5static?5destructor?5helper@ 00000001801dec10     libvcruntime:undname.obj
 0002:0000ac38       ??_C@_0DB@ILEFOCIJ@?$GAtemplate?5static?5data?5member?5co@ 00000001801dec38     libvcruntime:undname.obj
 0002:0000ac70       ??_C@_0DA@HGFJFBBE@?$GAtemplate?5static?5data?5member?5de@ 00000001801dec70     libvcruntime:undname.obj
 0002:0000aca0       ??_C@_07PGOEDBHP@static?5@ 00000001801deca0     libvcruntime:undname.obj
 0002:0000aca8       ??_C@_08NIEOINHE@virtual?5@ 00000001801deca8     libvcruntime:undname.obj
 0002:0000acb8       ??_C@_09LAPHOOG@private?3?5@ 00000001801decb8     libvcruntime:undname.obj
 0002:0000acc8       ??_C@_0M@GAIFPFIP@protected?3?5@ 00000001801decc8     libvcruntime:undname.obj
 0002:0000acd8       ??_C@_08GPDDCMKI@public?3?5@ 00000001801decd8     libvcruntime:undname.obj
 0002:0000ace8       ??_C@_08KJLFOPNE@?$FLthunk?$FN?3@ 00000001801dece8     libvcruntime:undname.obj
 0002:0000acf8       ??_C@_0M@DHNBOJMP@extern?5?$CCC?$CC?5@ 00000001801decf8     libvcruntime:undname.obj
 0002:0000ad04       ??_C@_02KCKGHPCA@?$CJ?5@   00000001801ded04     libvcruntime:undname.obj
 0002:0000ad08       ??_C@_05CIHEBHNO@char?5@   00000001801ded08     libvcruntime:undname.obj
 0002:0000ad10       ??_C@_06EHJMALKF@short?5@  00000001801ded10     libvcruntime:undname.obj
 0002:0000ad18       ??_C@_04LAHKHJMA@int?5@    00000001801ded18     libvcruntime:undname.obj
 0002:0000ad20       ??_C@_05CJIMAING@long?5@   00000001801ded20     libvcruntime:undname.obj
 0002:0000ad28       ??_C@_09EBBEKKIH@unsigned?5@ 00000001801ded28     libvcruntime:undname.obj
 0002:0000ad34       ??_C@_05BEFAKPML@void?5@   00000001801ded34     libvcruntime:undname.obj
 0002:0000ad40       ??_C@_09GAIEOBLP@volatile?5@ 00000001801ded40     libvcruntime:undname.obj
 0002:0000ad50       ??_C@_08PABEKFH@volatile@  00000001801ded50     libvcruntime:undname.obj
 0002:0000ad60       ??_C@_0BA@LKIJLKPP@std?3?3nullptr_t?5@ 00000001801ded60     libvcruntime:undname.obj
 0002:0000ad70       ??_C@_0P@GCOCNKDM@std?3?3nullptr_t@ 00000001801ded70     libvcruntime:undname.obj
 0002:0000ad80       ??_C@_0L@EGPHHEKN@?$DMellipsis?$DO@ 00000001801ded80     libvcruntime:undname.obj
 0002:0000ad8c       ??_C@_04EENFHACM@?0?4?4?4@ 00000001801ded8c     libvcruntime:undname.obj
 0002:0000ad98       ??_C@_0M@ELJOJFFH@?0?$DMellipsis?$DO@ 00000001801ded98     libvcruntime:undname.obj
 0002:0000ada8       ??_C@_09DNHFEOJI@?5noexcept@ 00000001801deda8     libvcruntime:undname.obj
 0002:0000adb4       ??_C@_03PBJBJNON@cpu@      00000001801dedb4     libvcruntime:undname.obj
 0002:0000adb8       ??_C@_03DCBBJBAA@amp@      00000001801dedb8     libvcruntime:undname.obj
 0002:0000adbc       ??_C@_02KEGNLNML@?0?5@     00000001801dedbc     libvcruntime:undname.obj
 0002:0000adc0       ??_C@_04ENMBGAPA@char@     00000001801dedc0     libvcruntime:undname.obj
 0002:0000adc8       ??_C@_05BFKKPKCG@short@    00000001801dedc8     libvcruntime:undname.obj
 0002:0000add0       ??_C@_03JBIPMCLC@int@      00000001801dedd0     libvcruntime:undname.obj
 0002:0000add4       ??_C@_04GOKPGOLB@long@     00000001801dedd4     libvcruntime:undname.obj
 0002:0000addc       ??_C@_06BNJCAIGJ@double@   00000001801deddc     libvcruntime:undname.obj
 0002:0000ade4       ??_C@_06EBGKOKIG@__int8@   00000001801dede4     libvcruntime:undname.obj
 0002:0000adf0       ??_C@_07ICFHOGAF@__int16@  00000001801dedf0     libvcruntime:undname.obj
 0002:0000adf8       ??_C@_07OFLPPHGP@__int32@  00000001801dedf8     libvcruntime:undname.obj
 0002:0000ae00       ??_C@_07LFCOJCAC@__int64@  00000001801dee00     libvcruntime:undname.obj
 0002:0000ae08       ??_C@_08GAHOLHEO@__int128@ 00000001801dee08     libvcruntime:undname.obj
 0002:0000ae18       ??_C@_09EEKGDCPH@?$DMunknown?$DO@ 00000001801dee18     libvcruntime:undname.obj
 0002:0000ae28       ??_C@_07CFHGOPCN@char8_t@  00000001801dee28     libvcruntime:undname.obj
 0002:0000ae30       ??_C@_08HBIPOFJB@char16_t@ 00000001801dee30     libvcruntime:undname.obj
 0002:0000ae40       ??_C@_08IECNCBKG@char32_t@ 00000001801dee40     libvcruntime:undname.obj
 0002:0000ae50       ??_C@_07CLGGIAMF@wchar_t@  00000001801dee50     libvcruntime:undname.obj
 0002:0000ae58       ??_C@_04HAPDLBFF@auto@     00000001801dee58     libvcruntime:undname.obj
 0002:0000ae60       ??_C@_0P@LHCGKIGK@decltype?$CIauto?$CJ@ 00000001801dee60     libvcruntime:undname.obj
 0002:0000ae70       ??_C@_05PCNBGHCF@this?5@   00000001801dee70     libvcruntime:undname.obj
 0002:0000ae78       ??_C@_06GCICPBLB@__w64?5@  00000001801dee78     libvcruntime:undname.obj
 0002:0000ae80       ??_C@_07NFANNNEC@UNKNOWN@  00000001801dee80     libvcruntime:undname.obj
 0002:0000ae88       ??_C@_07EDHNAJHC@signed?5@ 00000001801dee88     libvcruntime:undname.obj
 0002:0000ae90       ??_C@_05BNCCCJPP@const@    00000001801dee90     libvcruntime:undname.obj
 0002:0000ae98       ??_C@_09EFNPDFFP@?5volatile@ 00000001801dee98     libvcruntime:undname.obj
 0002:0000aea8       ??_C@_0P@GCIFDJCJ@?$GAunknown?5ecsu?8@ 00000001801deea8     libvcruntime:undname.obj
 0002:0000aeb8       ??_C@_06MOJHIBMG@union?5@  00000001801deeb8     libvcruntime:undname.obj
 0002:0000aec0       ??_C@_07DIBCDNGL@struct?5@ 00000001801deec0     libvcruntime:undname.obj
 0002:0000aec8       ??_C@_06LJBABKPM@class?5@  00000001801deec8     libvcruntime:undname.obj
 0002:0000aed0       ??_C@_08KOFANOFK@coclass?5@ 00000001801deed0     libvcruntime:undname.obj
 0002:0000aee0       ??_C@_0N@DLIEFKNA@cointerface?5@ 00000001801deee0     libvcruntime:undname.obj
 0002:0000aef0       ??_C@_05LJGMCFOG@enum?5@   00000001801deef0     libvcruntime:undname.obj
 0002:0000aef8       ??_C@_06LIJLOJAG@const?5@  00000001801deef8     libvcruntime:undname.obj
 0002:0000af00       ??_C@_02KJPKDIBN@?$CG?5@   00000001801def00     libvcruntime:undname.obj
 0002:0000af04       ??_C@_03PCKGMOPB@?$CG?$CG?5@ 00000001801def04     libvcruntime:undname.obj
 0002:0000af08       ??_C@_0M@EALIELKG@cli?3?3array?$DM@ 00000001801def08     libvcruntime:undname.obj
 0002:0000af18       ??_C@_0O@GKABPPIF@cli?3?3pin_ptr?$DM@ 00000001801def18     libvcruntime:undname.obj
 0002:0000af28       ??_C@_02GOGNNPBN@?$CJ?$FL@ 00000001801def28     libvcruntime:undname.obj
 0002:0000af2c       ??_C@_06EEGAIFAK@?$HLflat?$HN@ 00000001801def2c     libvcruntime:undname.obj
 0002:0000af34       ??_C@_05JIBOFOHK@?$HLfor?5@ 00000001801def34     libvcruntime:undname.obj
 0002:0000af3c       ??_C@_02MDINNEEG@s?5@      00000001801def3c     libvcruntime:undname.obj
 0002:0000af48       ??_7charNode@@6B@          00000001801def48     libvcruntime:undname.obj
 0002:0000af70       ??_7pcharNode@@6B@         00000001801def70     libvcruntime:undname.obj
 0002:0000af98       ??_7pDNameNode@@6B@        00000001801def98     libvcruntime:undname.obj
 0002:0000afc0       ??_7DNameStatusNode@@6B@   00000001801defc0     libvcruntime:undname.obj
 0002:0000afe8       ??_7pairNode@@6B@          00000001801defe8     libvcruntime:undname.obj
 0002:0000b110       ??_C@_04OKOHEJBO@?5?$DP?$DP?5@ 00000001801df110     libvcruntime:undname.obj
 0002:0000b120       ?nodes@?1??make@DNameStatusNode@@SAPEBV2@W4DNameStatus@@@Z@4QBV2@B 00000001801df120     libvcruntime:undname.obj
 0002:0000b160       ?s_negLengthTab@FH4@@3QBCB 00000001801df160     libvcruntime:risctrnsctrl.obj
 0002:0000b170       ?s_shiftTab@FH4@@3QBEB     00000001801df170     libvcruntime:risctrnsctrl.obj
 0002:0000b230       ??_C@_1DM@KHCHBNEB@?$AAa?$AAp?$AAi?$AA?9?$AAm?$AAs?$AA?9?$AAw?$AAi?$AAn?$AA?9?$AAc?$AAo?$AAr?$AAe@ 00000001801df230     libvcruntime:winapi_downlevel.obj
 0002:0000b270       ??_C@_1DK@LPPGFMPP@?$AAa?$AAp?$AAi?$AA?9?$AAm?$AAs?$AA?9?$AAw?$AAi?$AAn?$AA?9?$AAc?$AAo?$AAr?$AAe@ 00000001801df270     libvcruntime:winapi_downlevel.obj
 0002:0000b2b0       ??_C@_1BC@GDMECMAK@?$AAk?$AAe?$AAr?$AAn?$AAe?$AAl?$AA3?$AA2@ 00000001801df2b0     libvcruntime:winapi_downlevel.obj
 0002:0000b2c8       ??_C@_1BA@PFFKHIOG@?$AAa?$AAp?$AAi?$AA?9?$AAm?$AAs?$AA?9@ 00000001801df2c8     libvcruntime:winapi_downlevel.obj
 0002:0000b2e0       ??_C@_08KNHFBNJ@FlsAlloc@  00000001801df2e0     libvcruntime:winapi_downlevel.obj
 0002:0000b2f8       ??_C@_07PEJMOBNF@FlsFree@  00000001801df2f8     libvcruntime:winapi_downlevel.obj
 0002:0000b308       ??_C@_0M@GDNOONDI@FlsGetValue@ 00000001801df308     libvcruntime:winapi_downlevel.obj
 0002:0000b320       ??_C@_0M@JCPCPOEF@FlsSetValue@ 00000001801df320     libvcruntime:winapi_downlevel.obj
 0002:0000b338       ??_C@_0BM@HCFOFFN@InitializeCriticalSectionEx@ 00000001801df338     libvcruntime:winapi_downlevel.obj
 0002:0000b360       ??_7exception@std@@6B@     00000001801df360     libvcruntime:frame.obj
 0002:0000b370       ??_C@_0BC@EOODALEL@Unknown?5exception@ 00000001801df370     libvcruntime:frame.obj
 0002:0000b390       ??_7bad_exception@std@@6B@ 00000001801df390     libvcruntime:frame.obj
 0002:0000b3a0       ??_C@_0O@DPKOEFFH@bad?5exception@ 00000001801df3a0     libvcruntime:frame.obj
 0002:0000b6f0       ?standard_lookup_table_spectre@__crt_stdio_output@@3V?$spectre_mitigated_lookup_table@Ustate_transition_pair@__crt_stdio_output@@$0IA@@1@B 00000001801df6f0     libucrt:output.obj
 0002:0000baf0       ?format_validation_lookup_table_spectre@__crt_stdio_output@@3V?$spectre_mitigated_lookup_table@Ustate_transition_pair@__crt_stdio_output@@$0IA@@1@B 00000001801dfaf0     libucrt:output.obj
 0002:0000bef0       ??_C@_1O@CEDCILHN@?$AA?$CI?$AAn?$AAu?$AAl?$AAl?$AA?$CJ@ 00000001801dfef0     libucrt:output.obj
 0002:0000bf00       ??_C@_06OJHGLDPL@?$CInull?$CJ@ 00000001801dff00     libucrt:output.obj
 0002:0000cf98       __real@3f1a36e2eb1c432d    00000001801e0f98     libucrt:atan2f.obj
 0002:0000cfa0       __real@3fb0000000000000    00000001801e0fa0     libucrt:atan2f.obj
 0002:0000cfa8       __real@3fc2492482bd6be1    00000001801e0fa8     libucrt:atan2f.obj
 0002:0000cfb0       __real@3fc99999999643a3    00000001801e0fb0     libucrt:atan2f.obj
 0002:0000cfb8       __real@3fd5555555550877    00000001801e0fb8     libucrt:atan2f.obj
 0002:0000cfc0       __real@3fd5555555555538    00000001801e0fc0     libucrt:atan2f.obj
 0002:0000cfc8       __real@3ff921fb54442d18    00000001801e0fc8     libucrt:atan2f.obj
 0002:0000cfd0       __real@400921fb54442d18    00000001801e0fd0     libucrt:atan2f.obj
 0002:0000cfd8       __real@4070000000000000    00000001801e0fd8     libucrt:atan2f.obj
 0002:0000cfe0       __real@bf490fdb            00000001801e0fe0     libucrt:atan2f.obj
 0002:0000cfe4       __real@bfc90fdb            00000001801e0fe4     libucrt:atan2f.obj
 0002:0000cfe8       __real@c016cbe4            00000001801e0fe8     libucrt:atan2f.obj
 0002:0000cfec       __real@c0490fdb            00000001801e0fec     libucrt:atan2f.obj
 0002:0000cff0       ??_C@_05FFFCHCED@acosf@    00000001801e0ff0     libucrt:acosf.obj
 0002:0000cff8       __real@3b81ce6b            00000001801e0ff8     libucrt:acosf.obj
 0002:0000d000       __real@3c91a62633145c07    00000001801e1000     libucrt:acosf.obj
 0002:0000d008       __real@3d678bdd            00000001801e1008     libucrt:acosf.obj
 0002:0000d00c       __real@3e3c94dc            00000001801e100c     libucrt:acosf.obj
 0002:0000d010       __real@3f561f0d            00000001801e1010     libucrt:acosf.obj
 0002:0000d014       __real@3f8d6fa5            00000001801e1014     libucrt:acosf.obj
 0002:0000d018       __real@bc5b3fe1            00000001801e1018     libucrt:acosf.obj
